ARM GAS  /tmp/cc47Teva.s 			page 1


   1              		.cpu cortex-m3
   2              		.eabi_attribute 20, 1
   3              		.eabi_attribute 21, 1
   4              		.eabi_attribute 23, 3
   5              		.eabi_attribute 24, 1
   6              		.eabi_attribute 25, 1
   7              		.eabi_attribute 26, 1
   8              		.eabi_attribute 30, 1
   9              		.eabi_attribute 34, 1
  10              		.eabi_attribute 18, 4
  11              		.file	"lcd.c"
  12              		.text
  13              	.Ltext0:
  14              		.cfi_sections	.debug_frame
  15              		.section	.text.delay,"ax",%progbits
  16              		.align	1
  17              		.global	delay
  18              		.arch armv7-m
  19              		.syntax unified
  20              		.thumb
  21              		.thumb_func
  22              		.fpu softvfp
  24              	delay:
  25              	.LVL0:
  26              	.LFB68:
  27              		.file 1 "Drivers/display_ILI-93xx_sm/lcd.c"
   1:Drivers/display_ILI-93xx_sm/lcd.c **** /**
   2:Drivers/display_ILI-93xx_sm/lcd.c **** *	TechMaker
   3:Drivers/display_ILI-93xx_sm/lcd.c **** *	https://techmaker.ua
   4:Drivers/display_ILI-93xx_sm/lcd.c **** *
   5:Drivers/display_ILI-93xx_sm/lcd.c **** *	STM32 LCD TFT Library for 2.4" MCUfriend shield using 8080 8-bit parallel interface
   6:Drivers/display_ILI-93xx_sm/lcd.c **** *	based on Adafruit GFX & Adafruit TFT LCD libraries
   7:Drivers/display_ILI-93xx_sm/lcd.c **** *	20 Dec 2018 by Alexander Olenyev <sasha@techmaker.ua>
   8:Drivers/display_ILI-93xx_sm/lcd.c **** *
   9:Drivers/display_ILI-93xx_sm/lcd.c **** *	Changelog:
  10:Drivers/display_ILI-93xx_sm/lcd.c **** *		- v1.7 added support for 24-bit BMP
  11:Drivers/display_ILI-93xx_sm/lcd.c **** *		- v1.6 added support for SSD1297 (262k only)
  12:Drivers/display_ILI-93xx_sm/lcd.c **** *		- v1.5 added printf wipe line/screen defines
  13:Drivers/display_ILI-93xx_sm/lcd.c **** *		- v1.4 added support for R61505
  14:Drivers/display_ILI-93xx_sm/lcd.c **** *		- v1.3 added support for HX8347D
  15:Drivers/display_ILI-93xx_sm/lcd.c **** *		- v1.2 added Courier New font family with Cyrillic (CP1251), created using TheDotFactory font ge
  16:Drivers/display_ILI-93xx_sm/lcd.c **** *		- v1.1 added support for UNKNOWN1602, LCD_DrawBMP() & LCD_DrawBMPFromFile()
  17:Drivers/display_ILI-93xx_sm/lcd.c **** *		- v1.0 added support for ILI9325, ILI9328, ILI9340, ILI9341, ILI9341_00, R61505V, R61520, S6D015
  18:Drivers/display_ILI-93xx_sm/lcd.c **** */
  19:Drivers/display_ILI-93xx_sm/lcd.c **** 
  20:Drivers/display_ILI-93xx_sm/lcd.c **** // Graphics library by ladyada/adafruit with init code from Rossum
  21:Drivers/display_ILI-93xx_sm/lcd.c **** // MIT license
  22:Drivers/display_ILI-93xx_sm/lcd.c **** 
  23:Drivers/display_ILI-93xx_sm/lcd.c **** /*
  24:Drivers/display_ILI-93xx_sm/lcd.c **** This is the core graphics library for all our displays, providing a common
  25:Drivers/display_ILI-93xx_sm/lcd.c **** set of graphics primitives (points, lines, circles, etc.).  It needs to be
  26:Drivers/display_ILI-93xx_sm/lcd.c **** paired with a hardware-specific library for each display device we carry
  27:Drivers/display_ILI-93xx_sm/lcd.c **** (to handle the lower-level functions).
  28:Drivers/display_ILI-93xx_sm/lcd.c **** Adafruit invests time and resources providing this open source code, please
  29:Drivers/display_ILI-93xx_sm/lcd.c **** support Adafruit & open-source hardware by purchasing products from Adafruit!
  30:Drivers/display_ILI-93xx_sm/lcd.c **** Copyright (c) 2013 Adafruit Industries.  All rights reserved.
  31:Drivers/display_ILI-93xx_sm/lcd.c **** Redistribution and use in source and binary forms, with or without
ARM GAS  /tmp/cc47Teva.s 			page 2


  32:Drivers/display_ILI-93xx_sm/lcd.c **** modification, are permitted provided that the following conditions are met:
  33:Drivers/display_ILI-93xx_sm/lcd.c **** - Redistributions of source code must retain the above copyright notice,
  34:Drivers/display_ILI-93xx_sm/lcd.c ****   this list of conditions and the following disclaimer.
  35:Drivers/display_ILI-93xx_sm/lcd.c **** - Redistributions in binary form must reproduce the above copyright notice,
  36:Drivers/display_ILI-93xx_sm/lcd.c ****   this list of conditions and the following disclaimer in the documentation
  37:Drivers/display_ILI-93xx_sm/lcd.c ****   and/or other materials provided with the distribution.
  38:Drivers/display_ILI-93xx_sm/lcd.c **** THIS SOFTWARE IS PROVIDED BY THE COPYRIGHT HOLDERS AND CONTRIBUTORS "AS IS"
  39:Drivers/display_ILI-93xx_sm/lcd.c **** AND ANY EXPRESS OR IMPLIED WARRANTIES, INCLUDING, BUT NOT LIMITED TO, THE
  40:Drivers/display_ILI-93xx_sm/lcd.c **** IMPLIED WARRANTIES OF MERCHANTABILITY AND FITNESS FOR A PARTICULAR PURPOSE
  41:Drivers/display_ILI-93xx_sm/lcd.c **** ARE DISCLAIMED. IN NO EVENT SHALL THE COPYRIGHT HOLDER OR CONTRIBUTORS BE
  42:Drivers/display_ILI-93xx_sm/lcd.c **** LIABLE FOR ANY DIRECT, INDIRECT, INCIDENTAL, SPECIAL, EXEMPLARY, OR
  43:Drivers/display_ILI-93xx_sm/lcd.c **** CONSEQUENTIAL DAMAGES (INCLUDING, BUT NOT LIMITED TO, PROCUREMENT OF
  44:Drivers/display_ILI-93xx_sm/lcd.c **** SUBSTITUTE GOODS OR SERVICES; LOSS OF USE, DATA, OR PROFITS; OR BUSINESS
  45:Drivers/display_ILI-93xx_sm/lcd.c **** INTERRUPTION) HOWEVER CAUSED AND ON ANY THEORY OF LIABILITY, WHETHER IN
  46:Drivers/display_ILI-93xx_sm/lcd.c **** CONTRACT, STRICT LIABILITY, OR TORT (INCLUDING NEGLIGENCE OR OTHERWISE)
  47:Drivers/display_ILI-93xx_sm/lcd.c **** ARISING IN ANY WAY OUT OF THE USE OF THIS SOFTWARE, EVEN IF ADVISED OF THE
  48:Drivers/display_ILI-93xx_sm/lcd.c **** POSSIBILITY OF SUCH DAMAGE.
  49:Drivers/display_ILI-93xx_sm/lcd.c **** */
  50:Drivers/display_ILI-93xx_sm/lcd.c **** 
  51:Drivers/display_ILI-93xx_sm/lcd.c **** #include "lcd.h"
  52:Drivers/display_ILI-93xx_sm/lcd.c **** 
  53:Drivers/display_ILI-93xx_sm/lcd.c **** static int16_t m_width;
  54:Drivers/display_ILI-93xx_sm/lcd.c **** static int16_t m_height;
  55:Drivers/display_ILI-93xx_sm/lcd.c **** static int16_t m_cursor_x;
  56:Drivers/display_ILI-93xx_sm/lcd.c **** static int16_t m_cursor_y;
  57:Drivers/display_ILI-93xx_sm/lcd.c **** 
  58:Drivers/display_ILI-93xx_sm/lcd.c **** static uint16_t m_textcolor;
  59:Drivers/display_ILI-93xx_sm/lcd.c **** static uint16_t m_textbgcolor;
  60:Drivers/display_ILI-93xx_sm/lcd.c **** static uint8_t m_font;
  61:Drivers/display_ILI-93xx_sm/lcd.c **** static uint8_t m_rotation;
  62:Drivers/display_ILI-93xx_sm/lcd.c **** static uint8_t m_wrap;
  63:Drivers/display_ILI-93xx_sm/lcd.c **** 
  64:Drivers/display_ILI-93xx_sm/lcd.c **** static font_t * fonts[] = {
  65:Drivers/display_ILI-93xx_sm/lcd.c **** #ifdef USE_FONT8
  66:Drivers/display_ILI-93xx_sm/lcd.c **** 					&Font8,
  67:Drivers/display_ILI-93xx_sm/lcd.c **** #endif
  68:Drivers/display_ILI-93xx_sm/lcd.c **** #ifdef USE_FONT12
  69:Drivers/display_ILI-93xx_sm/lcd.c **** 					&Font12,
  70:Drivers/display_ILI-93xx_sm/lcd.c **** #endif
  71:Drivers/display_ILI-93xx_sm/lcd.c **** #ifdef USE_FONT16
  72:Drivers/display_ILI-93xx_sm/lcd.c **** 					&Font16,
  73:Drivers/display_ILI-93xx_sm/lcd.c **** #endif
  74:Drivers/display_ILI-93xx_sm/lcd.c **** #ifdef USE_FONT20
  75:Drivers/display_ILI-93xx_sm/lcd.c **** 					&Font20,
  76:Drivers/display_ILI-93xx_sm/lcd.c **** #endif
  77:Drivers/display_ILI-93xx_sm/lcd.c **** #ifdef USE_FONT24
  78:Drivers/display_ILI-93xx_sm/lcd.c **** 					&Font24,
  79:Drivers/display_ILI-93xx_sm/lcd.c **** #endif
  80:Drivers/display_ILI-93xx_sm/lcd.c **** 					};
  81:Drivers/display_ILI-93xx_sm/lcd.c **** const static uint8_t fontsNum = sizeof(fonts) / sizeof(fonts[0]);
  82:Drivers/display_ILI-93xx_sm/lcd.c **** 
  83:Drivers/display_ILI-93xx_sm/lcd.c **** void delay(uint32_t t);
  84:Drivers/display_ILI-93xx_sm/lcd.c **** void GPIO_Init(uint32_t mode);
  85:Drivers/display_ILI-93xx_sm/lcd.c **** void LCD_Write8(uint8_t data);
  86:Drivers/display_ILI-93xx_sm/lcd.c **** uint8_t LCD_Read8(void);
  87:Drivers/display_ILI-93xx_sm/lcd.c **** void LCD_Write8Register8(uint8_t a, uint8_t d);
  88:Drivers/display_ILI-93xx_sm/lcd.c **** void LCD_Write16Register8(uint8_t a, uint16_t d);
ARM GAS  /tmp/cc47Teva.s 			page 3


  89:Drivers/display_ILI-93xx_sm/lcd.c **** void LCD_Write24Register8(uint8_t a, uint32_t d);
  90:Drivers/display_ILI-93xx_sm/lcd.c **** void LCD_Write32Register8(uint8_t a, uint32_t d);
  91:Drivers/display_ILI-93xx_sm/lcd.c **** void LCD_Write16Register16(uint16_t a, uint16_t d);
  92:Drivers/display_ILI-93xx_sm/lcd.c **** void LCD_Write16RegisterPair8(uint8_t aH, uint8_t aL, uint16_t d);
  93:Drivers/display_ILI-93xx_sm/lcd.c **** uint8_t LCD_Read8Register8(uint8_t a, uint8_t dummy);
  94:Drivers/display_ILI-93xx_sm/lcd.c **** uint32_t LCD_Color565_to_888(uint16_t color);
  95:Drivers/display_ILI-93xx_sm/lcd.c **** uint8_t LCD_Color565_to_R(uint16_t color);
  96:Drivers/display_ILI-93xx_sm/lcd.c **** uint8_t LCD_Color565_to_G(uint16_t color);
  97:Drivers/display_ILI-93xx_sm/lcd.c **** uint8_t LCD_Color565_to_B(uint16_t color);
  98:Drivers/display_ILI-93xx_sm/lcd.c **** 
  99:Drivers/display_ILI-93xx_sm/lcd.c **** // Initialization command tables for different LCD controllers
 100:Drivers/display_ILI-93xx_sm/lcd.c **** #if	defined(ILI9325) || defined (ILI9328)
 101:Drivers/display_ILI-93xx_sm/lcd.c **** static const uint16_t ILI932x_regValues[] = {
 102:Drivers/display_ILI-93xx_sm/lcd.c **** 	ILI932X_START_OSC        , 0x0001, // Start oscillator
 103:Drivers/display_ILI-93xx_sm/lcd.c **** 	TFTLCD_DELAY             , 50,     // 50 millisecond delay
 104:Drivers/display_ILI-93xx_sm/lcd.c **** 	ILI932X_DRIV_OUT_CTRL    , 0x0100,
 105:Drivers/display_ILI-93xx_sm/lcd.c **** 	ILI932X_DRIV_WAV_CTRL    , 0x0700,
 106:Drivers/display_ILI-93xx_sm/lcd.c **** 	ILI932X_ENTRY_MOD        , 0x1030,
 107:Drivers/display_ILI-93xx_sm/lcd.c **** 	ILI932X_RESIZE_CTRL      , 0x0000,
 108:Drivers/display_ILI-93xx_sm/lcd.c **** 	ILI932X_DISP_CTRL2       , 0x0202,
 109:Drivers/display_ILI-93xx_sm/lcd.c **** 	ILI932X_DISP_CTRL3       , 0x0000,
 110:Drivers/display_ILI-93xx_sm/lcd.c **** 	ILI932X_DISP_CTRL4       , 0x0000,
 111:Drivers/display_ILI-93xx_sm/lcd.c **** 	ILI932X_RGB_DISP_IF_CTRL1, 0x0,
 112:Drivers/display_ILI-93xx_sm/lcd.c **** 	ILI932X_FRM_MARKER_POS   , 0x0,
 113:Drivers/display_ILI-93xx_sm/lcd.c **** 	ILI932X_RGB_DISP_IF_CTRL2, 0x0,
 114:Drivers/display_ILI-93xx_sm/lcd.c **** 	ILI932X_POW_CTRL1        , 0x0000,
 115:Drivers/display_ILI-93xx_sm/lcd.c **** 	ILI932X_POW_CTRL2        , 0x0007,
 116:Drivers/display_ILI-93xx_sm/lcd.c **** 	ILI932X_POW_CTRL3        , 0x0000,
 117:Drivers/display_ILI-93xx_sm/lcd.c **** 	ILI932X_POW_CTRL4        , 0x0000,
 118:Drivers/display_ILI-93xx_sm/lcd.c **** 	TFTLCD_DELAY             , 200,
 119:Drivers/display_ILI-93xx_sm/lcd.c **** 	ILI932X_POW_CTRL1        , 0x1690,
 120:Drivers/display_ILI-93xx_sm/lcd.c **** 	ILI932X_POW_CTRL2        , 0x0227,
 121:Drivers/display_ILI-93xx_sm/lcd.c **** 	TFTLCD_DELAY             , 50,
 122:Drivers/display_ILI-93xx_sm/lcd.c **** 	ILI932X_POW_CTRL3        , 0x001A,
 123:Drivers/display_ILI-93xx_sm/lcd.c **** 	TFTLCD_DELAY             , 50,
 124:Drivers/display_ILI-93xx_sm/lcd.c **** 	ILI932X_POW_CTRL4        , 0x1800,
 125:Drivers/display_ILI-93xx_sm/lcd.c **** 	ILI932X_POW_CTRL7        , 0x002A,
 126:Drivers/display_ILI-93xx_sm/lcd.c **** 	TFTLCD_DELAY             , 50,
 127:Drivers/display_ILI-93xx_sm/lcd.c **** 	ILI932X_GAMMA_CTRL1      , 0x0000,
 128:Drivers/display_ILI-93xx_sm/lcd.c **** 	ILI932X_GAMMA_CTRL2      , 0x0000,
 129:Drivers/display_ILI-93xx_sm/lcd.c **** 	ILI932X_GAMMA_CTRL3      , 0x0000,
 130:Drivers/display_ILI-93xx_sm/lcd.c **** 	ILI932X_GAMMA_CTRL4      , 0x0206,
 131:Drivers/display_ILI-93xx_sm/lcd.c **** 	ILI932X_GAMMA_CTRL5      , 0x0808,
 132:Drivers/display_ILI-93xx_sm/lcd.c **** 	ILI932X_GAMMA_CTRL6      , 0x0007,
 133:Drivers/display_ILI-93xx_sm/lcd.c **** 	ILI932X_GAMMA_CTRL7      , 0x0201,
 134:Drivers/display_ILI-93xx_sm/lcd.c **** 	ILI932X_GAMMA_CTRL8      , 0x0000,
 135:Drivers/display_ILI-93xx_sm/lcd.c **** 	ILI932X_GAMMA_CTRL9      , 0x0000,
 136:Drivers/display_ILI-93xx_sm/lcd.c **** 	ILI932X_GAMMA_CTRL10     , 0x0000,
 137:Drivers/display_ILI-93xx_sm/lcd.c **** 	ILI932X_GRAM_HOR_AD      , 0x0000,
 138:Drivers/display_ILI-93xx_sm/lcd.c **** 	ILI932X_GRAM_VER_AD      , 0x0000,
 139:Drivers/display_ILI-93xx_sm/lcd.c **** 	ILI932X_HOR_START_AD     , 0x0000,
 140:Drivers/display_ILI-93xx_sm/lcd.c **** 	ILI932X_HOR_END_AD       , 0x00EF,
 141:Drivers/display_ILI-93xx_sm/lcd.c **** 	ILI932X_VER_START_AD     , 0X0000,
 142:Drivers/display_ILI-93xx_sm/lcd.c **** 	ILI932X_VER_END_AD       , 0x013F,
 143:Drivers/display_ILI-93xx_sm/lcd.c **** 	ILI932X_GATE_SCAN_CTRL1  , 0xA700, // Driver Output Control (R60h)
 144:Drivers/display_ILI-93xx_sm/lcd.c **** 	ILI932X_GATE_SCAN_CTRL2  , 0x0003, // Driver Output Control (R61h)
 145:Drivers/display_ILI-93xx_sm/lcd.c **** 	ILI932X_GATE_SCAN_CTRL3  , 0x0000, // Driver Output Control (R62h)
ARM GAS  /tmp/cc47Teva.s 			page 4


 146:Drivers/display_ILI-93xx_sm/lcd.c **** 	ILI932X_PANEL_IF_CTRL1   , 0X0010, // Panel Interface Control 1 (R90h)
 147:Drivers/display_ILI-93xx_sm/lcd.c **** 	ILI932X_PANEL_IF_CTRL2   , 0X0000,
 148:Drivers/display_ILI-93xx_sm/lcd.c **** 	ILI932X_PANEL_IF_CTRL3   , 0X0003,
 149:Drivers/display_ILI-93xx_sm/lcd.c **** 	ILI932X_PANEL_IF_CTRL4   , 0X1100,
 150:Drivers/display_ILI-93xx_sm/lcd.c **** 	ILI932X_PANEL_IF_CTRL5   , 0X0000,
 151:Drivers/display_ILI-93xx_sm/lcd.c **** 	ILI932X_PANEL_IF_CTRL6   , 0X0000,
 152:Drivers/display_ILI-93xx_sm/lcd.c **** 	ILI932X_DISP_CTRL1       , 0x0133, // Main screen turn on
 153:Drivers/display_ILI-93xx_sm/lcd.c **** };
 154:Drivers/display_ILI-93xx_sm/lcd.c **** #elif defined(UNKNOWN1602)
 155:Drivers/display_ILI-93xx_sm/lcd.c **** static const uint8_t ILI9329_regValues[] = {
 156:Drivers/display_ILI-93xx_sm/lcd.c **** 	ILI9341_SOFTRESET,			0,            //Soft Reset
 157:Drivers/display_ILI-93xx_sm/lcd.c **** 	TFTLCD_DELAY,				150,// .kbv will power up with ONLY reset, sleep out, display on
 158:Drivers/display_ILI-93xx_sm/lcd.c **** 	ILI9341_DISPLAYOFF,			0,//Display Off
 159:Drivers/display_ILI-93xx_sm/lcd.c **** 	ILI9341_PIXELFORMAT,		1, 0x55,//Pixel read=565, write=565.
 160:Drivers/display_ILI-93xx_sm/lcd.c **** 	//0xF6,						3, 0x01, 0x01, 0x00,  //Interface Control needs EXTC=1 MX_EOR=1, TM=0, RIM=0
 161:Drivers/display_ILI-93xx_sm/lcd.c **** 	//0xB6,						3, 0x0A, 0x82, 0x27,  //Display Function [0A 82 27]
 162:Drivers/display_ILI-93xx_sm/lcd.c **** 	//0xB7,						1, 0x06,      //Entry Mode Set [06]
 163:Drivers/display_ILI-93xx_sm/lcd.c **** 	//0x36,						1, 0x00,//Memory Access [00] pointless but stops an empty array
 164:Drivers/display_ILI-93xx_sm/lcd.c **** 	ILI9341_SLEEPOUT,			0,//Sleep Out
 165:Drivers/display_ILI-93xx_sm/lcd.c **** 	TFTLCD_DELAY,				150,
 166:Drivers/display_ILI-93xx_sm/lcd.c **** 	ILI9341_DISPLAYON,			0,//Display On
 167:Drivers/display_ILI-93xx_sm/lcd.c **** 	TFTLCD_DELAY,				100,
 168:Drivers/display_ILI-93xx_sm/lcd.c **** 	ILI9341_MEMORYWRITE,		0,
 169:Drivers/display_ILI-93xx_sm/lcd.c **** };
 170:Drivers/display_ILI-93xx_sm/lcd.c **** #elif defined(ILI9340)
 171:Drivers/display_ILI-93xx_sm/lcd.c **** static const uint8_t ILI9340_regValues[] = {
 172:Drivers/display_ILI-93xx_sm/lcd.c **** 	ILI9341_SOFTRESET			, 0,
 173:Drivers/display_ILI-93xx_sm/lcd.c **** 	ILI9341_POWERCONTROLA		, 5, 0x39, 0x2C, 0x00, 0x34, 0x02,
 174:Drivers/display_ILI-93xx_sm/lcd.c **** 	ILI9341_POWERCONTROLB		, 3, 0x00, 0xC1, 0x30,
 175:Drivers/display_ILI-93xx_sm/lcd.c **** 	ILI9341_DRIVERTIMINGCTLA	, 3, 0x85, 0x00, 0x78,
 176:Drivers/display_ILI-93xx_sm/lcd.c **** 	ILI9341_DRIVERTIMINGCTLB	, 2, 0x00, 0x00,
 177:Drivers/display_ILI-93xx_sm/lcd.c **** 	ILI9341_POWERONSEQCONTROL	, 4, 0x64, 0x03, 0x12, 0x81,
 178:Drivers/display_ILI-93xx_sm/lcd.c **** 	ILI9341_PUMPRATIOCONTROL	, 1, 0x20,
 179:Drivers/display_ILI-93xx_sm/lcd.c **** 	ILI9341_POWERCONTROL1		, 1, 0x23,
 180:Drivers/display_ILI-93xx_sm/lcd.c **** 	ILI9341_POWERCONTROL2		, 1, 0x10,
 181:Drivers/display_ILI-93xx_sm/lcd.c **** 	ILI9341_VCOMCONTROL1		, 2, 0x3E, 0x28,
 182:Drivers/display_ILI-93xx_sm/lcd.c **** 	ILI9341_VCOMCONTROL2		, 1, 0x86,
 183:Drivers/display_ILI-93xx_sm/lcd.c **** 	ILI9341_MEMCONTROL			, 1, ILI9341_MADCTL_MX | ILI9341_MADCTL_BGR, // change rotation here
 184:Drivers/display_ILI-93xx_sm/lcd.c **** 	ILI9341_PIXELFORMAT			, 1, 0x55,
 185:Drivers/display_ILI-93xx_sm/lcd.c **** 	ILI9341_FRAMECONTROL		, 2, 0x00, 0x18,
 186:Drivers/display_ILI-93xx_sm/lcd.c **** 	ILI9341_DISPLAYFUNC			, 3, 0x08, 0x82, 0x27,
 187:Drivers/display_ILI-93xx_sm/lcd.c **** 	ILI9341_ENABLE3G			, 1, 0x00,
 188:Drivers/display_ILI-93xx_sm/lcd.c **** 	ILI9341_GAMMASET			, 1, 0x01,
 189:Drivers/display_ILI-93xx_sm/lcd.c **** 	ILI9341_POSITIVEGAMMACORR	,15, 0x0f,0x31,0x2b,0x0c,0x0e,0x08,0x4e,0xf1,0x37,0x07,0x10,0x03,0x0e,0x
 190:Drivers/display_ILI-93xx_sm/lcd.c **** 	ILI9341_NEGATIVEGAMMACORR	,15, 0x00,0x0e,0x14,0x03,0x11,0x07,0x31,0xC1,0x48,0x08,0x0f,0x0c,0x31,0x
 191:Drivers/display_ILI-93xx_sm/lcd.c **** 	ILI9341_INVERTON			, 0,
 192:Drivers/display_ILI-93xx_sm/lcd.c **** 	ILI9341_SLEEPOUT			, 0,
 193:Drivers/display_ILI-93xx_sm/lcd.c **** 	TFTLCD_DELAY				, 150,
 194:Drivers/display_ILI-93xx_sm/lcd.c **** 	ILI9341_DISPLAYON			, 0,
 195:Drivers/display_ILI-93xx_sm/lcd.c **** 	ILI9341_MEMORYWRITE			, 0,
 196:Drivers/display_ILI-93xx_sm/lcd.c **** };
 197:Drivers/display_ILI-93xx_sm/lcd.c **** #elif defined(ILI9341)
 198:Drivers/display_ILI-93xx_sm/lcd.c **** static const uint8_t ILI9341_regValues[] = {
 199:Drivers/display_ILI-93xx_sm/lcd.c **** 	ILI9341_SOFTRESET			, 0,
 200:Drivers/display_ILI-93xx_sm/lcd.c **** 	ILI9341_POWERCONTROLA		, 5, 0x39, 0x2C, 0x00, 0x34, 0x02,
 201:Drivers/display_ILI-93xx_sm/lcd.c **** 	ILI9341_POWERCONTROLB		, 3, 0x00, 0xC1, 0x30,
 202:Drivers/display_ILI-93xx_sm/lcd.c **** 	ILI9341_DRIVERTIMINGCTLA	, 3, 0x85, 0x00, 0x78,
ARM GAS  /tmp/cc47Teva.s 			page 5


 203:Drivers/display_ILI-93xx_sm/lcd.c **** 	ILI9341_DRIVERTIMINGCTLB	, 2, 0x00, 0x00,
 204:Drivers/display_ILI-93xx_sm/lcd.c **** 	ILI9341_POWERONSEQCONTROL	, 4, 0x64, 0x03, 0x12, 0x81,
 205:Drivers/display_ILI-93xx_sm/lcd.c **** 	ILI9341_PUMPRATIOCONTROL	, 1, 0x20,
 206:Drivers/display_ILI-93xx_sm/lcd.c **** 	ILI9341_POWERCONTROL1		, 1, 0x23,
 207:Drivers/display_ILI-93xx_sm/lcd.c **** 	ILI9341_POWERCONTROL2		, 1, 0x10,
 208:Drivers/display_ILI-93xx_sm/lcd.c **** 	ILI9341_VCOMCONTROL1		, 2, 0x3E, 0x28,
 209:Drivers/display_ILI-93xx_sm/lcd.c **** 	ILI9341_VCOMCONTROL2		, 1, 0x86,
 210:Drivers/display_ILI-93xx_sm/lcd.c **** 	ILI9341_MEMCONTROL			, 1, ILI9341_MADCTL_MX | ILI9341_MADCTL_BGR, // change rotation here
 211:Drivers/display_ILI-93xx_sm/lcd.c **** 	ILI9341_PIXELFORMAT			, 1, 0x55,
 212:Drivers/display_ILI-93xx_sm/lcd.c **** 	ILI9341_FRAMECONTROL		, 2, 0x00, 0x18,
 213:Drivers/display_ILI-93xx_sm/lcd.c **** 	ILI9341_DISPLAYFUNC			, 3, 0x08, 0x82, 0x27,
 214:Drivers/display_ILI-93xx_sm/lcd.c **** 	ILI9341_ENABLE3G			, 1, 0x00,
 215:Drivers/display_ILI-93xx_sm/lcd.c **** 	ILI9341_GAMMASET			, 1, 0x01,
 216:Drivers/display_ILI-93xx_sm/lcd.c **** 	ILI9341_POSITIVEGAMMACORR	,15, 0x0f,0x31,0x2b,0x0c,0x0e,0x08,0x4e,0xf1,0x37,0x07,0x10,0x03,0x0e,0x
 217:Drivers/display_ILI-93xx_sm/lcd.c **** 	ILI9341_NEGATIVEGAMMACORR	,15, 0x00,0x0e,0x14,0x03,0x11,0x07,0x31,0xC1,0x48,0x08,0x0f,0x0c,0x31,0x
 218:Drivers/display_ILI-93xx_sm/lcd.c **** 	ILI9341_SLEEPOUT			, 0,
 219:Drivers/display_ILI-93xx_sm/lcd.c **** 	TFTLCD_DELAY				, 150,
 220:Drivers/display_ILI-93xx_sm/lcd.c **** 	ILI9341_DISPLAYON			, 0,
 221:Drivers/display_ILI-93xx_sm/lcd.c **** 	ILI9341_MEMORYWRITE			, 0,
 222:Drivers/display_ILI-93xx_sm/lcd.c **** };
 223:Drivers/display_ILI-93xx_sm/lcd.c **** #elif defined(ILI9341_00)
 224:Drivers/display_ILI-93xx_sm/lcd.c **** static const uint8_t ILI9341_00_regValues[] = {
 225:Drivers/display_ILI-93xx_sm/lcd.c **** 	ILI9341_SOFTRESET			, 0,
 226:Drivers/display_ILI-93xx_sm/lcd.c **** 	TFTLCD_DELAY				, 50,
 227:Drivers/display_ILI-93xx_sm/lcd.c **** 	ILI9341_DISPLAYOFF			, 0,
 228:Drivers/display_ILI-93xx_sm/lcd.c **** 	ILI9341_POWERCONTROL1		, 1, 0x23,
 229:Drivers/display_ILI-93xx_sm/lcd.c **** 	ILI9341_POWERCONTROL2		, 1, 0x10,
 230:Drivers/display_ILI-93xx_sm/lcd.c **** 	ILI9341_VCOMCONTROL1		, 2, 0x2B, 0x2B,
 231:Drivers/display_ILI-93xx_sm/lcd.c **** 	ILI9341_VCOMCONTROL2		, 1, 0xC0,
 232:Drivers/display_ILI-93xx_sm/lcd.c **** 	ILI9341_MEMCONTROL			, 1, ILI9341_MADCTL_MX | ILI9341_MADCTL_BGR, // change rotation here
 233:Drivers/display_ILI-93xx_sm/lcd.c **** 	ILI9341_PIXELFORMAT			, 1, 0x55,
 234:Drivers/display_ILI-93xx_sm/lcd.c **** 	ILI9341_FRAMECONTROL		, 2, 0x00, 0x1B,
 235:Drivers/display_ILI-93xx_sm/lcd.c **** 	ILI9341_ENTRYMODE			, 1, 0x07,
 236:Drivers/display_ILI-93xx_sm/lcd.c **** 	ILI9341_INVERTON			, 0,
 237:Drivers/display_ILI-93xx_sm/lcd.c **** 	ILI9341_SLEEPOUT			, 0,
 238:Drivers/display_ILI-93xx_sm/lcd.c **** 	TFTLCD_DELAY				, 150,
 239:Drivers/display_ILI-93xx_sm/lcd.c **** 	ILI9341_DISPLAYON			, 0,
 240:Drivers/display_ILI-93xx_sm/lcd.c **** 	TFTLCD_DELAY				, 100,
 241:Drivers/display_ILI-93xx_sm/lcd.c **** 	ILI9341_MEMORYWRITE			, 0,
 242:Drivers/display_ILI-93xx_sm/lcd.c **** };
 243:Drivers/display_ILI-93xx_sm/lcd.c **** #elif defined(R61505)
 244:Drivers/display_ILI-93xx_sm/lcd.c **** static const uint16_t ILI9320_regValues[] = {
 245:Drivers/display_ILI-93xx_sm/lcd.c **** 	0x00e5, 0x8000,
 246:Drivers/display_ILI-93xx_sm/lcd.c **** 	0x0000, 0x0001,
 247:Drivers/display_ILI-93xx_sm/lcd.c **** 	0x0001, 0x0100,
 248:Drivers/display_ILI-93xx_sm/lcd.c **** 	0x0002, 0x0700,
 249:Drivers/display_ILI-93xx_sm/lcd.c **** 	0x0003, 0x1030,
 250:Drivers/display_ILI-93xx_sm/lcd.c **** 	0x0004, 0x0000,
 251:Drivers/display_ILI-93xx_sm/lcd.c **** 	0x0008, 0x0202,
 252:Drivers/display_ILI-93xx_sm/lcd.c **** 	0x0009, 0x0000,
 253:Drivers/display_ILI-93xx_sm/lcd.c **** 	0x000A, 0x0000,
 254:Drivers/display_ILI-93xx_sm/lcd.c **** 	0x000C, 0x0000,
 255:Drivers/display_ILI-93xx_sm/lcd.c **** 	0x000D, 0x0000,
 256:Drivers/display_ILI-93xx_sm/lcd.c **** 	0x000F, 0x0000,
 257:Drivers/display_ILI-93xx_sm/lcd.c **** 	//-----Power On sequence-----------------------
 258:Drivers/display_ILI-93xx_sm/lcd.c **** 	0x0010, 0x0000,
 259:Drivers/display_ILI-93xx_sm/lcd.c **** 	0x0011, 0x0007,
ARM GAS  /tmp/cc47Teva.s 			page 6


 260:Drivers/display_ILI-93xx_sm/lcd.c **** 	0x0012, 0x0000,
 261:Drivers/display_ILI-93xx_sm/lcd.c **** 	0x0013, 0x0000,
 262:Drivers/display_ILI-93xx_sm/lcd.c **** 	TFTLCD_DELAY, 50,
 263:Drivers/display_ILI-93xx_sm/lcd.c **** 	0x0010, 0x17B0,  //SAP=1, BT=7, APE=1, AP=3
 264:Drivers/display_ILI-93xx_sm/lcd.c **** 	0x0011, 0x0007,  //DC1=0, DC0=0, VC=7
 265:Drivers/display_ILI-93xx_sm/lcd.c **** 	TFTLCD_DELAY, 10,
 266:Drivers/display_ILI-93xx_sm/lcd.c **** 	0x0012, 0x013A,  //VCMR=1, PON=3, VRH=10
 267:Drivers/display_ILI-93xx_sm/lcd.c **** 	TFTLCD_DELAY, 10,
 268:Drivers/display_ILI-93xx_sm/lcd.c **** 	0x0013, 0x1A00,  //VDV=26
 269:Drivers/display_ILI-93xx_sm/lcd.c **** 	0x0029, 0x000c,  //VCM=12
 270:Drivers/display_ILI-93xx_sm/lcd.c **** 	TFTLCD_DELAY, 10,
 271:Drivers/display_ILI-93xx_sm/lcd.c **** 	//-----Gamma control-----------------------
 272:Drivers/display_ILI-93xx_sm/lcd.c **** 	0x0030, 0x0000,
 273:Drivers/display_ILI-93xx_sm/lcd.c **** 	0x0031, 0x0505,
 274:Drivers/display_ILI-93xx_sm/lcd.c **** 	0x0032, 0x0004,
 275:Drivers/display_ILI-93xx_sm/lcd.c **** 	0x0035, 0x0006,
 276:Drivers/display_ILI-93xx_sm/lcd.c **** 	0x0036, 0x0707,
 277:Drivers/display_ILI-93xx_sm/lcd.c **** 	0x0037, 0x0105,
 278:Drivers/display_ILI-93xx_sm/lcd.c **** 	0x0038, 0x0002,
 279:Drivers/display_ILI-93xx_sm/lcd.c **** 	0x0039, 0x0707,
 280:Drivers/display_ILI-93xx_sm/lcd.c **** 	0x003C, 0x0704,
 281:Drivers/display_ILI-93xx_sm/lcd.c **** 	0x003D, 0x0807,
 282:Drivers/display_ILI-93xx_sm/lcd.c **** 	//-----Set RAM area-----------------------
 283:Drivers/display_ILI-93xx_sm/lcd.c **** 	0x0060, 0x2700,     //GS=0!
 284:Drivers/display_ILI-93xx_sm/lcd.c **** 	0x0061, 0x0001,
 285:Drivers/display_ILI-93xx_sm/lcd.c **** 	0x006A, 0x0000,
 286:Drivers/display_ILI-93xx_sm/lcd.c **** 	0x0021, 0x0000,
 287:Drivers/display_ILI-93xx_sm/lcd.c **** 	0x0020, 0x0000,
 288:Drivers/display_ILI-93xx_sm/lcd.c **** 	//-----Partial Display Control------------
 289:Drivers/display_ILI-93xx_sm/lcd.c **** 	0x0080, 0x0000,
 290:Drivers/display_ILI-93xx_sm/lcd.c **** 	0x0081, 0x0000,
 291:Drivers/display_ILI-93xx_sm/lcd.c **** 	0x0082, 0x0000,
 292:Drivers/display_ILI-93xx_sm/lcd.c **** 	0x0083, 0x0000,
 293:Drivers/display_ILI-93xx_sm/lcd.c **** 	0x0084, 0x0000,
 294:Drivers/display_ILI-93xx_sm/lcd.c **** 	0x0085, 0x0000,
 295:Drivers/display_ILI-93xx_sm/lcd.c **** 	//-----Panel Control----------------------
 296:Drivers/display_ILI-93xx_sm/lcd.c **** 	0x0090, 0x0010,
 297:Drivers/display_ILI-93xx_sm/lcd.c **** 	0x0092, 0x0000,
 298:Drivers/display_ILI-93xx_sm/lcd.c **** 	0x0093, 0x0003,
 299:Drivers/display_ILI-93xx_sm/lcd.c **** 	0x0095, 0x0110,
 300:Drivers/display_ILI-93xx_sm/lcd.c **** 	0x0097, 0x0000,
 301:Drivers/display_ILI-93xx_sm/lcd.c **** 	0x0098, 0x0000,
 302:Drivers/display_ILI-93xx_sm/lcd.c **** 	//-----Display on-----------------------
 303:Drivers/display_ILI-93xx_sm/lcd.c **** 	0x0007, 0x0173,
 304:Drivers/display_ILI-93xx_sm/lcd.c **** 	TFTLCD_DELAY, 50,
 305:Drivers/display_ILI-93xx_sm/lcd.c **** };
 306:Drivers/display_ILI-93xx_sm/lcd.c **** #elif defined(R61505V)
 307:Drivers/display_ILI-93xx_sm/lcd.c **** static const uint16_t R61505V_regValues[] = {
 308:Drivers/display_ILI-93xx_sm/lcd.c **** 	0x0000, 0x0000,
 309:Drivers/display_ILI-93xx_sm/lcd.c **** 	0x0000, 0x0000,
 310:Drivers/display_ILI-93xx_sm/lcd.c **** 	0x0000, 0x0000,
 311:Drivers/display_ILI-93xx_sm/lcd.c **** 	0x0000, 0x0001,
 312:Drivers/display_ILI-93xx_sm/lcd.c **** 	0x00A4, 0x0001,     //CALB=1
 313:Drivers/display_ILI-93xx_sm/lcd.c **** 	TFTLCD_DELAY, 10,
 314:Drivers/display_ILI-93xx_sm/lcd.c **** 	0x0060, 0x2700,     //NL
 315:Drivers/display_ILI-93xx_sm/lcd.c **** 	0x0008, 0x0808,     //FP & BP
 316:Drivers/display_ILI-93xx_sm/lcd.c **** 	0x0030, 0x0214,     //Gamma settings
ARM GAS  /tmp/cc47Teva.s 			page 7


 317:Drivers/display_ILI-93xx_sm/lcd.c **** 	0x0031, 0x3715,
 318:Drivers/display_ILI-93xx_sm/lcd.c **** 	0x0032, 0x0604,
 319:Drivers/display_ILI-93xx_sm/lcd.c **** 	0x0033, 0x0E16,
 320:Drivers/display_ILI-93xx_sm/lcd.c **** 	0x0034, 0x2211,
 321:Drivers/display_ILI-93xx_sm/lcd.c **** 	0x0035, 0x1500,
 322:Drivers/display_ILI-93xx_sm/lcd.c **** 	0x0036, 0x8507,
 323:Drivers/display_ILI-93xx_sm/lcd.c **** 	0x0037, 0x1407,
 324:Drivers/display_ILI-93xx_sm/lcd.c **** 	0x0038, 0x1403,
 325:Drivers/display_ILI-93xx_sm/lcd.c **** 	0x0039, 0x0020,
 326:Drivers/display_ILI-93xx_sm/lcd.c **** 	0x0090, 0x0015,     //DIVI & RTNI
 327:Drivers/display_ILI-93xx_sm/lcd.c **** 	0x0010, 0x0410,     //BT,AP
 328:Drivers/display_ILI-93xx_sm/lcd.c **** 	0x0011, 0x0237,     //VC,DC0,DC1
 329:Drivers/display_ILI-93xx_sm/lcd.c **** 	0x0029, 0x0046,     //VCM1
 330:Drivers/display_ILI-93xx_sm/lcd.c **** 	0x002A, 0x0046,     //VCMSEL,VCM2
 331:Drivers/display_ILI-93xx_sm/lcd.c **** 	// Sleep mode IN sequence
 332:Drivers/display_ILI-93xx_sm/lcd.c **** 	0x0007, 0x0000,
 333:Drivers/display_ILI-93xx_sm/lcd.c **** 	//0x0012, 0x0000,   //PSON=0,PON=0
 334:Drivers/display_ILI-93xx_sm/lcd.c **** 	// Sleep mode EXIT sequence
 335:Drivers/display_ILI-93xx_sm/lcd.c **** 	0x0012, 0x0189,     //VRH=9,VCMR=1,PSON=0,PON=0
 336:Drivers/display_ILI-93xx_sm/lcd.c **** 	0x0013, 0x1100,     //VDV
 337:Drivers/display_ILI-93xx_sm/lcd.c **** 	TFTLCD_DELAY, 150,
 338:Drivers/display_ILI-93xx_sm/lcd.c **** 	0x0012, 0x01B9,     //VRH=9,VCMR=1,PSON=1,PON=1 [018F]
 339:Drivers/display_ILI-93xx_sm/lcd.c **** 	0x0001, 0x0100,     //SS=1 Other mode settings
 340:Drivers/display_ILI-93xx_sm/lcd.c **** 	0x0002, 0x0200,     //BC0=1--Line inversion
 341:Drivers/display_ILI-93xx_sm/lcd.c **** 	0x0003, 0x1030,
 342:Drivers/display_ILI-93xx_sm/lcd.c **** 	0x0009, 0x0001,     //ISC=1 [0000]
 343:Drivers/display_ILI-93xx_sm/lcd.c **** 	0x000A, 0x0000,     // [0000]
 344:Drivers/display_ILI-93xx_sm/lcd.c **** 	//0x000C, 0x0001,   //RIM=1 [0000]
 345:Drivers/display_ILI-93xx_sm/lcd.c **** 	0x000D, 0x0000,     // [0000]
 346:Drivers/display_ILI-93xx_sm/lcd.c **** 	0x000E, 0x0030,     //VEM=3 VCOM equalize [0000]
 347:Drivers/display_ILI-93xx_sm/lcd.c **** 	0x0061, 0x0001,
 348:Drivers/display_ILI-93xx_sm/lcd.c **** 	0x006A, 0x0000,
 349:Drivers/display_ILI-93xx_sm/lcd.c **** 	0x0080, 0x0000,
 350:Drivers/display_ILI-93xx_sm/lcd.c **** 	0x0081, 0x0000,
 351:Drivers/display_ILI-93xx_sm/lcd.c **** 	0x0082, 0x005F,
 352:Drivers/display_ILI-93xx_sm/lcd.c **** 	0x0092, 0x0100,
 353:Drivers/display_ILI-93xx_sm/lcd.c **** 	0x0093, 0x0701,
 354:Drivers/display_ILI-93xx_sm/lcd.c **** 	TFTLCD_DELAY, 80,
 355:Drivers/display_ILI-93xx_sm/lcd.c **** 	0x0007, 0x0100,     //BASEE=1--Display On
 356:Drivers/display_ILI-93xx_sm/lcd.c **** };
 357:Drivers/display_ILI-93xx_sm/lcd.c **** #elif defined(R61520)
 358:Drivers/display_ILI-93xx_sm/lcd.c **** static const uint8_t R61520_regValues[] = { //AUTO_READINC | MIPI_DCS_REV1 | MV_AXIS | READ_24BITS
 359:Drivers/display_ILI-93xx_sm/lcd.c **** 	ILI9341_SOFTRESET			, 0,            //Soft Reset
 360:Drivers/display_ILI-93xx_sm/lcd.c **** 	TFTLCD_DELAY				, 150,  // .kbv will power up with ONLY reset, sleep out, display on
 361:Drivers/display_ILI-93xx_sm/lcd.c **** 	ILI9341_DISPLAYOFF			, 0,            //Display Off
 362:Drivers/display_ILI-93xx_sm/lcd.c **** 	ILI9341_PIXELFORMAT			, 1, 0x55,      //Pixel read=565, write=565.
 363:Drivers/display_ILI-93xx_sm/lcd.c ****     0xB0						, 1, 0x00,      //Command Access Protect
 364:Drivers/display_ILI-93xx_sm/lcd.c ****     0xC0						, 1, 0x08 | 0x02 | 0x01,// DM = 1, BGR = 1, MH = 1 // DM - SPLITFIX HERE!!!!
 365:Drivers/display_ILI-93xx_sm/lcd.c **** 	ILI9341_POSITIVEGAMMACORR	,15, 0x0f,0x31,0x2b,0x0c,0x0e,0x08,0x4e,0xf1,0x37,0x07,0x10,0x03,0x0e,0x
 366:Drivers/display_ILI-93xx_sm/lcd.c **** 	ILI9341_NEGATIVEGAMMACORR	,15, 0x00,0x0e,0x14,0x03,0x11,0x07,0x31,0xC1,0x48,0x08,0x0f,0x0c,0x31,0x
 367:Drivers/display_ILI-93xx_sm/lcd.c **** 	ILI9341_SLEEPOUT			, 0,            //Sleep Out
 368:Drivers/display_ILI-93xx_sm/lcd.c **** 	TFTLCD_DELAY				, 150,
 369:Drivers/display_ILI-93xx_sm/lcd.c **** 	ILI9341_DISPLAYON			, 0,            //Display On
 370:Drivers/display_ILI-93xx_sm/lcd.c **** 	TFTLCD_DELAY				, 100,
 371:Drivers/display_ILI-93xx_sm/lcd.c **** 	ILI9341_MEMORYWRITE			, 0,
 372:Drivers/display_ILI-93xx_sm/lcd.c **** };
 373:Drivers/display_ILI-93xx_sm/lcd.c **** #elif defined(S6D0154)
ARM GAS  /tmp/cc47Teva.s 			page 8


 374:Drivers/display_ILI-93xx_sm/lcd.c **** static const uint16_t S6D0154_regValues[] = {
 375:Drivers/display_ILI-93xx_sm/lcd.c **** 	0x0011, 0x001A,
 376:Drivers/display_ILI-93xx_sm/lcd.c **** 	0x0012, 0x3121,
 377:Drivers/display_ILI-93xx_sm/lcd.c **** 	0x0013, 0x006C,
 378:Drivers/display_ILI-93xx_sm/lcd.c **** 	0x0014, 0x4249,
 379:Drivers/display_ILI-93xx_sm/lcd.c **** 	0x0010, 0x0800,
 380:Drivers/display_ILI-93xx_sm/lcd.c **** 	TFTLCD_DELAY, 10,
 381:Drivers/display_ILI-93xx_sm/lcd.c **** 	0x0011, 0x011A,
 382:Drivers/display_ILI-93xx_sm/lcd.c **** 	TFTLCD_DELAY, 10,
 383:Drivers/display_ILI-93xx_sm/lcd.c **** 	0x0011, 0x031A,
 384:Drivers/display_ILI-93xx_sm/lcd.c **** 	TFTLCD_DELAY, 10,
 385:Drivers/display_ILI-93xx_sm/lcd.c **** 	0x0011, 0x071A,
 386:Drivers/display_ILI-93xx_sm/lcd.c **** 	TFTLCD_DELAY, 10,
 387:Drivers/display_ILI-93xx_sm/lcd.c **** 	0x0011, 0x0F1A,
 388:Drivers/display_ILI-93xx_sm/lcd.c **** 	TFTLCD_DELAY, 10,
 389:Drivers/display_ILI-93xx_sm/lcd.c **** 	0x0011, 0x0F3A,
 390:Drivers/display_ILI-93xx_sm/lcd.c **** 	TFTLCD_DELAY, 30,
 391:Drivers/display_ILI-93xx_sm/lcd.c **** 	0x0001, 0x0128,
 392:Drivers/display_ILI-93xx_sm/lcd.c **** 	0x0002, 0x0100,
 393:Drivers/display_ILI-93xx_sm/lcd.c **** 	0x0003, 0x1030,
 394:Drivers/display_ILI-93xx_sm/lcd.c **** 	0x0007, 0x1012,
 395:Drivers/display_ILI-93xx_sm/lcd.c **** 	0x0008, 0x0303,
 396:Drivers/display_ILI-93xx_sm/lcd.c **** 	0x000B, 0x1100,
 397:Drivers/display_ILI-93xx_sm/lcd.c **** 	0x000C, 0x0000,
 398:Drivers/display_ILI-93xx_sm/lcd.c **** 	0x000F, 0x1801,
 399:Drivers/display_ILI-93xx_sm/lcd.c **** 	0x0015, 0x0020,
 400:Drivers/display_ILI-93xx_sm/lcd.c **** 	/*
 401:Drivers/display_ILI-93xx_sm/lcd.c **** 	0x0050,0x0101,
 402:Drivers/display_ILI-93xx_sm/lcd.c **** 	0x0051,0x0603,
 403:Drivers/display_ILI-93xx_sm/lcd.c **** 	0x0052,0x0408,
 404:Drivers/display_ILI-93xx_sm/lcd.c **** 	0x0053,0x0000,
 405:Drivers/display_ILI-93xx_sm/lcd.c **** 	0x0054,0x0605,
 406:Drivers/display_ILI-93xx_sm/lcd.c **** 	0x0055,0x0406,
 407:Drivers/display_ILI-93xx_sm/lcd.c **** 	0x0056,0x0303,
 408:Drivers/display_ILI-93xx_sm/lcd.c **** 	0x0057,0x0303,
 409:Drivers/display_ILI-93xx_sm/lcd.c **** 	0x0058,0x0010,
 410:Drivers/display_ILI-93xx_sm/lcd.c **** 	0x0059,0x1000,
 411:Drivers/display_ILI-93xx_sm/lcd.c **** 	*/
 412:Drivers/display_ILI-93xx_sm/lcd.c **** 	0x0007, 0x0012,
 413:Drivers/display_ILI-93xx_sm/lcd.c **** 	TFTLCD_DELAY, 40,
 414:Drivers/display_ILI-93xx_sm/lcd.c **** 	0x0007, 0x0013,     /* GRAM Address Set */
 415:Drivers/display_ILI-93xx_sm/lcd.c **** 	0x0007, 0x0017,     /* Display Control DISPLAY ON */
 416:Drivers/display_ILI-93xx_sm/lcd.c **** };
 417:Drivers/display_ILI-93xx_sm/lcd.c **** #elif defined(HX8347D)
 418:Drivers/display_ILI-93xx_sm/lcd.c **** static const uint8_t HX8347D_regValues[] = {
 419:Drivers/display_ILI-93xx_sm/lcd.c **** 	0x2E, 0x89,
 420:Drivers/display_ILI-93xx_sm/lcd.c **** 	0x29, 0x8F,
 421:Drivers/display_ILI-93xx_sm/lcd.c **** 	0x2B, 0x02,
 422:Drivers/display_ILI-93xx_sm/lcd.c **** 	0xE2, 0x00,
 423:Drivers/display_ILI-93xx_sm/lcd.c **** 	0xE4, 0x01,
 424:Drivers/display_ILI-93xx_sm/lcd.c **** 	0xE5, 0x10,
 425:Drivers/display_ILI-93xx_sm/lcd.c **** 	0xE6, 0x01,
 426:Drivers/display_ILI-93xx_sm/lcd.c **** 	0xE7, 0x10,
 427:Drivers/display_ILI-93xx_sm/lcd.c **** 	0xE8, 0x70,
 428:Drivers/display_ILI-93xx_sm/lcd.c **** 	0xF2, 0x00,
 429:Drivers/display_ILI-93xx_sm/lcd.c **** 	0xEA, 0x00,
 430:Drivers/display_ILI-93xx_sm/lcd.c **** 	0xEB, 0x20,
ARM GAS  /tmp/cc47Teva.s 			page 9


 431:Drivers/display_ILI-93xx_sm/lcd.c **** 	0xEC, 0x3C,
 432:Drivers/display_ILI-93xx_sm/lcd.c **** 	0xED, 0xC8,
 433:Drivers/display_ILI-93xx_sm/lcd.c **** 	0xE9, 0x38,
 434:Drivers/display_ILI-93xx_sm/lcd.c **** 	0xF1, 0x01,
 435:Drivers/display_ILI-93xx_sm/lcd.c **** 	// skip gamma, do later
 436:Drivers/display_ILI-93xx_sm/lcd.c **** 	0x1B, 0x1A,
 437:Drivers/display_ILI-93xx_sm/lcd.c **** 	0x1A, 0x02,
 438:Drivers/display_ILI-93xx_sm/lcd.c **** 	0x24, 0x61,
 439:Drivers/display_ILI-93xx_sm/lcd.c **** 	0x25, 0x5C,
 440:Drivers/display_ILI-93xx_sm/lcd.c **** 	0x18, 0x36,
 441:Drivers/display_ILI-93xx_sm/lcd.c **** 	0x19, 0x01,
 442:Drivers/display_ILI-93xx_sm/lcd.c **** 	0x1F, 0x88,
 443:Drivers/display_ILI-93xx_sm/lcd.c **** 	TFTLCD_DELAY, 5,// delay 5 ms
 444:Drivers/display_ILI-93xx_sm/lcd.c **** 	0x1F, 0x80,
 445:Drivers/display_ILI-93xx_sm/lcd.c **** 	TFTLCD_DELAY, 5,
 446:Drivers/display_ILI-93xx_sm/lcd.c **** 	0x1F, 0x90,
 447:Drivers/display_ILI-93xx_sm/lcd.c **** 	TFTLCD_DELAY, 5,
 448:Drivers/display_ILI-93xx_sm/lcd.c **** 	0x1F, 0xD4,
 449:Drivers/display_ILI-93xx_sm/lcd.c **** 	TFTLCD_DELAY, 5,
 450:Drivers/display_ILI-93xx_sm/lcd.c **** 	0x17, 0x05,
 451:Drivers/display_ILI-93xx_sm/lcd.c **** 	0x36, 0x01,	// MADCTL: 0x01 BGR=1, 0x02 INVERTCOLOR=1, 0x04 MY=1, 0x08 MX=1
 452:Drivers/display_ILI-93xx_sm/lcd.c **** 	0x28, 0x38,
 453:Drivers/display_ILI-93xx_sm/lcd.c **** 	TFTLCD_DELAY, 40,
 454:Drivers/display_ILI-93xx_sm/lcd.c **** 	0x28, 0x3C,
 455:Drivers/display_ILI-93xx_sm/lcd.c **** 	0x02, 0x00,
 456:Drivers/display_ILI-93xx_sm/lcd.c **** 	0x03, 0x00,
 457:Drivers/display_ILI-93xx_sm/lcd.c **** 	0x04, 0x00,
 458:Drivers/display_ILI-93xx_sm/lcd.c **** 	0x05, 0xEF,
 459:Drivers/display_ILI-93xx_sm/lcd.c **** 	0x06, 0x00,
 460:Drivers/display_ILI-93xx_sm/lcd.c **** 	0x07, 0x00,
 461:Drivers/display_ILI-93xx_sm/lcd.c **** 	0x08, 0x01,
 462:Drivers/display_ILI-93xx_sm/lcd.c **** 	0x09, 0x3F
 463:Drivers/display_ILI-93xx_sm/lcd.c **** };
 464:Drivers/display_ILI-93xx_sm/lcd.c **** #elif defined(HX8347G)
 465:Drivers/display_ILI-93xx_sm/lcd.c **** static const uint8_t HX8347G_regValues[] = {
 466:Drivers/display_ILI-93xx_sm/lcd.c **** 	0x2E, 0x89,
 467:Drivers/display_ILI-93xx_sm/lcd.c **** 	0x29, 0x8F,
 468:Drivers/display_ILI-93xx_sm/lcd.c **** 	0x2B, 0x02,
 469:Drivers/display_ILI-93xx_sm/lcd.c **** 	0xE2, 0x00,
 470:Drivers/display_ILI-93xx_sm/lcd.c **** 	0xE4, 0x01,
 471:Drivers/display_ILI-93xx_sm/lcd.c **** 	0xE5, 0x10,
 472:Drivers/display_ILI-93xx_sm/lcd.c **** 	0xE6, 0x01,
 473:Drivers/display_ILI-93xx_sm/lcd.c **** 	0xE7, 0x10,
 474:Drivers/display_ILI-93xx_sm/lcd.c **** 	0xE8, 0x70,
 475:Drivers/display_ILI-93xx_sm/lcd.c **** 	0xF2, 0x00,
 476:Drivers/display_ILI-93xx_sm/lcd.c **** 	0xEA, 0x00,
 477:Drivers/display_ILI-93xx_sm/lcd.c **** 	0xEB, 0x20,
 478:Drivers/display_ILI-93xx_sm/lcd.c **** 	0xEC, 0x3C,
 479:Drivers/display_ILI-93xx_sm/lcd.c **** 	0xED, 0xC8,
 480:Drivers/display_ILI-93xx_sm/lcd.c **** 	0xE9, 0x38,
 481:Drivers/display_ILI-93xx_sm/lcd.c **** 	0xF1, 0x01,
 482:Drivers/display_ILI-93xx_sm/lcd.c **** 	// skip gamma, do later
 483:Drivers/display_ILI-93xx_sm/lcd.c **** 	0x1B, 0x1A,
 484:Drivers/display_ILI-93xx_sm/lcd.c **** 	0x1A, 0x02,
 485:Drivers/display_ILI-93xx_sm/lcd.c **** 	0x24, 0x61,
 486:Drivers/display_ILI-93xx_sm/lcd.c **** 	0x25, 0x5C,
 487:Drivers/display_ILI-93xx_sm/lcd.c **** 	0x18, 0x36,
ARM GAS  /tmp/cc47Teva.s 			page 10


 488:Drivers/display_ILI-93xx_sm/lcd.c **** 	0x19, 0x01,
 489:Drivers/display_ILI-93xx_sm/lcd.c **** 	0x1F, 0x88,
 490:Drivers/display_ILI-93xx_sm/lcd.c **** 	TFTLCD_DELAY, 5,// delay 5 ms
 491:Drivers/display_ILI-93xx_sm/lcd.c **** 	0x1F, 0x80,
 492:Drivers/display_ILI-93xx_sm/lcd.c **** 	TFTLCD_DELAY, 5,
 493:Drivers/display_ILI-93xx_sm/lcd.c **** 	0x1F, 0x90,
 494:Drivers/display_ILI-93xx_sm/lcd.c **** 	TFTLCD_DELAY, 5,
 495:Drivers/display_ILI-93xx_sm/lcd.c **** 	0x1F, 0xD4,
 496:Drivers/display_ILI-93xx_sm/lcd.c **** 	TFTLCD_DELAY, 5,
 497:Drivers/display_ILI-93xx_sm/lcd.c **** 	0x17, 0x05,
 498:Drivers/display_ILI-93xx_sm/lcd.c **** 	0x36, 0x09,
 499:Drivers/display_ILI-93xx_sm/lcd.c **** 	0x28, 0x38,
 500:Drivers/display_ILI-93xx_sm/lcd.c **** 	TFTLCD_DELAY, 40,
 501:Drivers/display_ILI-93xx_sm/lcd.c **** 	0x28, 0x3C,
 502:Drivers/display_ILI-93xx_sm/lcd.c **** 	0x02, 0x00,
 503:Drivers/display_ILI-93xx_sm/lcd.c **** 	0x03, 0x00,
 504:Drivers/display_ILI-93xx_sm/lcd.c **** 	0x04, 0x00,
 505:Drivers/display_ILI-93xx_sm/lcd.c **** 	0x05, 0xEF,
 506:Drivers/display_ILI-93xx_sm/lcd.c **** 	0x06, 0x00,
 507:Drivers/display_ILI-93xx_sm/lcd.c **** 	0x07, 0x00,
 508:Drivers/display_ILI-93xx_sm/lcd.c **** 	0x08, 0x01,
 509:Drivers/display_ILI-93xx_sm/lcd.c **** 	0x09, 0x3F
 510:Drivers/display_ILI-93xx_sm/lcd.c **** };
 511:Drivers/display_ILI-93xx_sm/lcd.c **** #elif defined(HX8357D)
 512:Drivers/display_ILI-93xx_sm/lcd.c **** static const uint8_t HX8357D_regValues[] = {
 513:Drivers/display_ILI-93xx_sm/lcd.c **** 	HX8357_SWRESET, 0,
 514:Drivers/display_ILI-93xx_sm/lcd.c **** 	HX8357D_SETC, 3, 0xFF, 0x83, 0x57,
 515:Drivers/display_ILI-93xx_sm/lcd.c **** 	TFTLCD_DELAY, 250,
 516:Drivers/display_ILI-93xx_sm/lcd.c **** 	HX8357_SETRGB, 4, 0x00, 0x00, 0x06, 0x06,
 517:Drivers/display_ILI-93xx_sm/lcd.c **** 	HX8357D_SETCOM, 1, 0x25,  // -1.52V
 518:Drivers/display_ILI-93xx_sm/lcd.c **** 	HX8357_SETOSC, 1, 0x68,  // Normal mode 70Hz, Idle mode 55 Hz
 519:Drivers/display_ILI-93xx_sm/lcd.c **** 	HX8357_SETPANEL, 1, 0x05,  // BGR, Gate direction swapped
 520:Drivers/display_ILI-93xx_sm/lcd.c **** 	HX8357_SETPWR1, 6, 0x00, 0x15, 0x1C, 0x1C, 0x83, 0xAA,
 521:Drivers/display_ILI-93xx_sm/lcd.c **** 	HX8357D_SETSTBA, 6, 0x50, 0x50, 0x01, 0x3C, 0x1E, 0x08,
 522:Drivers/display_ILI-93xx_sm/lcd.c **** 	// MEME GAMMA HERE
 523:Drivers/display_ILI-93xx_sm/lcd.c **** 	HX8357D_SETCYC, 7, 0x02, 0x40, 0x00, 0x2A, 0x2A, 0x0D, 0x78,
 524:Drivers/display_ILI-93xx_sm/lcd.c **** 	HX8357_COLMOD, 1, 0x55,
 525:Drivers/display_ILI-93xx_sm/lcd.c **** 	HX8357_MADCTL, 1, 0xC0,
 526:Drivers/display_ILI-93xx_sm/lcd.c **** 	HX8357_TEON, 1, 0x00,
 527:Drivers/display_ILI-93xx_sm/lcd.c **** 	HX8357_TEARLINE, 2, 0x00, 0x02,
 528:Drivers/display_ILI-93xx_sm/lcd.c **** 	HX8357_SLPOUT, 0,
 529:Drivers/display_ILI-93xx_sm/lcd.c **** 	TFTLCD_DELAY, 150,
 530:Drivers/display_ILI-93xx_sm/lcd.c **** 	HX8357_DISPON, 0,
 531:Drivers/display_ILI-93xx_sm/lcd.c **** 	TFTLCD_DELAY, 50,
 532:Drivers/display_ILI-93xx_sm/lcd.c **** };
 533:Drivers/display_ILI-93xx_sm/lcd.c **** #elif defined(ST7781)
 534:Drivers/display_ILI-93xx_sm/lcd.c **** static const uint16_t ST7781_regValues[] = {
 535:Drivers/display_ILI-93xx_sm/lcd.c **** 	0x0001, 0x0100,
 536:Drivers/display_ILI-93xx_sm/lcd.c **** 	0x0002, 0x0700,
 537:Drivers/display_ILI-93xx_sm/lcd.c **** 	0x0003, 0x1030,
 538:Drivers/display_ILI-93xx_sm/lcd.c **** 	0x0008, 0x0302,
 539:Drivers/display_ILI-93xx_sm/lcd.c **** 	0x0009, 0x0000,
 540:Drivers/display_ILI-93xx_sm/lcd.c **** 	0x000A, 0x0008,
 541:Drivers/display_ILI-93xx_sm/lcd.c **** 	//*******POWER CONTROL REGISTER INITIAL*******//
 542:Drivers/display_ILI-93xx_sm/lcd.c **** 	0x0010, 0x0790,
 543:Drivers/display_ILI-93xx_sm/lcd.c **** 	0x0011, 0x0005,
 544:Drivers/display_ILI-93xx_sm/lcd.c **** 	0x0012, 0x0000,
ARM GAS  /tmp/cc47Teva.s 			page 11


 545:Drivers/display_ILI-93xx_sm/lcd.c **** 	0x0013, 0x0000,
 546:Drivers/display_ILI-93xx_sm/lcd.c **** 	//delayms(50,
 547:Drivers/display_ILI-93xx_sm/lcd.c **** 	//********POWER SUPPPLY STARTUP 1 SETTING*******//
 548:Drivers/display_ILI-93xx_sm/lcd.c **** 	0x0010, 0x12B0,
 549:Drivers/display_ILI-93xx_sm/lcd.c **** 	// delayms(50,
 550:Drivers/display_ILI-93xx_sm/lcd.c **** 	0x0011, 0x0007,
 551:Drivers/display_ILI-93xx_sm/lcd.c **** 	//delayms(50,
 552:Drivers/display_ILI-93xx_sm/lcd.c **** 	//********POWER SUPPLY STARTUP 2 SETTING******//
 553:Drivers/display_ILI-93xx_sm/lcd.c **** 	0x0012, 0x008C,
 554:Drivers/display_ILI-93xx_sm/lcd.c **** 	0x0013, 0x1700,
 555:Drivers/display_ILI-93xx_sm/lcd.c **** 	0x0029, 0x0022,
 556:Drivers/display_ILI-93xx_sm/lcd.c **** 	// delayms(50,
 557:Drivers/display_ILI-93xx_sm/lcd.c **** 	//******GAMMA CLUSTER SETTING******//
 558:Drivers/display_ILI-93xx_sm/lcd.c **** 	0x0030, 0x0000,
 559:Drivers/display_ILI-93xx_sm/lcd.c **** 	0x0031, 0x0505,
 560:Drivers/display_ILI-93xx_sm/lcd.c **** 	0x0032, 0x0205,
 561:Drivers/display_ILI-93xx_sm/lcd.c **** 	0x0035, 0x0206,
 562:Drivers/display_ILI-93xx_sm/lcd.c **** 	0x0036, 0x0408,
 563:Drivers/display_ILI-93xx_sm/lcd.c **** 	0x0037, 0x0000,
 564:Drivers/display_ILI-93xx_sm/lcd.c **** 	0x0038, 0x0504,
 565:Drivers/display_ILI-93xx_sm/lcd.c **** 	0x0039, 0x0206,
 566:Drivers/display_ILI-93xx_sm/lcd.c **** 	0x003C, 0x0206,
 567:Drivers/display_ILI-93xx_sm/lcd.c **** 	0x003D, 0x0408,
 568:Drivers/display_ILI-93xx_sm/lcd.c **** 	// -----------DISPLAY WINDOWS 240*320-------------//
 569:Drivers/display_ILI-93xx_sm/lcd.c **** 	0x0050, 0x0000,
 570:Drivers/display_ILI-93xx_sm/lcd.c **** 	0x0051, 0x00EF,
 571:Drivers/display_ILI-93xx_sm/lcd.c **** 	0x0052, 0x0000,
 572:Drivers/display_ILI-93xx_sm/lcd.c **** 	0x0053, 0x013F,
 573:Drivers/display_ILI-93xx_sm/lcd.c **** 	//-----FRAME RATE SETTING-------//
 574:Drivers/display_ILI-93xx_sm/lcd.c **** 	0x0060, 0xA700,
 575:Drivers/display_ILI-93xx_sm/lcd.c **** 	0x0061, 0x0001,
 576:Drivers/display_ILI-93xx_sm/lcd.c **** 	0x0090, 0x0033,//RTNI setting
 577:Drivers/display_ILI-93xx_sm/lcd.c **** 	//-------DISPLAY ON------//
 578:Drivers/display_ILI-93xx_sm/lcd.c **** 	0x0007, 0x0133,
 579:Drivers/display_ILI-93xx_sm/lcd.c **** 	0x0001, 0x0100,
 580:Drivers/display_ILI-93xx_sm/lcd.c **** 	0x0002, 0x0700,
 581:Drivers/display_ILI-93xx_sm/lcd.c **** 	0x0003, 0x1030,
 582:Drivers/display_ILI-93xx_sm/lcd.c **** 	0x0008, 0x0302,
 583:Drivers/display_ILI-93xx_sm/lcd.c **** 	0x0009, 0x0000,
 584:Drivers/display_ILI-93xx_sm/lcd.c **** 	0x000A, 0x0008,
 585:Drivers/display_ILI-93xx_sm/lcd.c **** 	//*******POWER CONTROL REGISTER INITIAL*******//
 586:Drivers/display_ILI-93xx_sm/lcd.c **** 	0x0010, 0x0790,
 587:Drivers/display_ILI-93xx_sm/lcd.c **** 	0x0011, 0x0005,
 588:Drivers/display_ILI-93xx_sm/lcd.c **** 	0x0012, 0x0000,
 589:Drivers/display_ILI-93xx_sm/lcd.c **** 	0x0013, 0x0000,
 590:Drivers/display_ILI-93xx_sm/lcd.c **** 	TFTLCD_DELAY, 5,
 591:Drivers/display_ILI-93xx_sm/lcd.c **** 	//********POWER SUPPPLY STARTUP 1 SETTING*******//
 592:Drivers/display_ILI-93xx_sm/lcd.c **** 	0x0010, 0x12B0,
 593:Drivers/display_ILI-93xx_sm/lcd.c **** 	TFTLCD_DELAY, 5,
 594:Drivers/display_ILI-93xx_sm/lcd.c **** 	0x0011, 0x0007,
 595:Drivers/display_ILI-93xx_sm/lcd.c **** 	TFTLCD_DELAY, 5,
 596:Drivers/display_ILI-93xx_sm/lcd.c **** 	//********POWER SUPPLY STARTUP 2 SETTING******//
 597:Drivers/display_ILI-93xx_sm/lcd.c **** 	0x0012, 0x008C,
 598:Drivers/display_ILI-93xx_sm/lcd.c **** 	0x0013, 0x1700,
 599:Drivers/display_ILI-93xx_sm/lcd.c **** 	0x0029, 0x0022,
 600:Drivers/display_ILI-93xx_sm/lcd.c **** 	TFTLCD_DELAY, 5,
 601:Drivers/display_ILI-93xx_sm/lcd.c **** 	//******GAMMA CLUSTER SETTING******//
ARM GAS  /tmp/cc47Teva.s 			page 12


 602:Drivers/display_ILI-93xx_sm/lcd.c **** 	0x0030, 0x0000,
 603:Drivers/display_ILI-93xx_sm/lcd.c **** 	0x0031, 0x0505,
 604:Drivers/display_ILI-93xx_sm/lcd.c **** 	0x0032, 0x0205,
 605:Drivers/display_ILI-93xx_sm/lcd.c **** 	0x0035, 0x0206,
 606:Drivers/display_ILI-93xx_sm/lcd.c **** 	0x0036, 0x0408,
 607:Drivers/display_ILI-93xx_sm/lcd.c **** 	0x0037, 0x0000,
 608:Drivers/display_ILI-93xx_sm/lcd.c **** 	0x0038, 0x0504,
 609:Drivers/display_ILI-93xx_sm/lcd.c **** 	0x0039, 0x0206,
 610:Drivers/display_ILI-93xx_sm/lcd.c **** 	0x003C, 0x0206,
 611:Drivers/display_ILI-93xx_sm/lcd.c **** 	0x003D, 0x0408,
 612:Drivers/display_ILI-93xx_sm/lcd.c **** 	// -----------DISPLAY WINDOWS 240*320-------------//
 613:Drivers/display_ILI-93xx_sm/lcd.c **** 	0x0050, 0x0000,
 614:Drivers/display_ILI-93xx_sm/lcd.c **** 	0x0051, 0x00EF,
 615:Drivers/display_ILI-93xx_sm/lcd.c **** 	0x0052, 0x0000,
 616:Drivers/display_ILI-93xx_sm/lcd.c **** 	0x0053, 0x013F,
 617:Drivers/display_ILI-93xx_sm/lcd.c **** 	//-----FRAME RATE SETTING-------//
 618:Drivers/display_ILI-93xx_sm/lcd.c **** 	0x0060, 0xA700,
 619:Drivers/display_ILI-93xx_sm/lcd.c **** 	0x0061, 0x0001,
 620:Drivers/display_ILI-93xx_sm/lcd.c **** 	0x0090, 0x0033, //RTNI setting
 621:Drivers/display_ILI-93xx_sm/lcd.c **** 	//-------DISPLAY ON------//
 622:Drivers/display_ILI-93xx_sm/lcd.c **** 	0x0007, 0x0133,
 623:Drivers/display_ILI-93xx_sm/lcd.c **** 	TFTLCD_DELAY, 50,
 624:Drivers/display_ILI-93xx_sm/lcd.c **** };
 625:Drivers/display_ILI-93xx_sm/lcd.c **** #elif defined (SSD1297)
 626:Drivers/display_ILI-93xx_sm/lcd.c **** // came from MikroElektronika library http://www.hmsprojects.com/tft_lcd.html
 627:Drivers/display_ILI-93xx_sm/lcd.c **** static const uint16_t SSD1297_regValues[] = {
 628:Drivers/display_ILI-93xx_sm/lcd.c ****         0x0000, 0x0001,
 629:Drivers/display_ILI-93xx_sm/lcd.c ****         0x0003, 0xA8A4,
 630:Drivers/display_ILI-93xx_sm/lcd.c ****         0x000C, 0x0000,
 631:Drivers/display_ILI-93xx_sm/lcd.c ****         0x000D, 0x000A,     // VRH=10
 632:Drivers/display_ILI-93xx_sm/lcd.c ****         0x000E, 0x2B00,
 633:Drivers/display_ILI-93xx_sm/lcd.c ****         0x001E, 0x00B7,
 634:Drivers/display_ILI-93xx_sm/lcd.c ****         0x0001, 0x2B3F,     // setRotation() alters
 635:Drivers/display_ILI-93xx_sm/lcd.c ****         0x0002, 0x0600,     // B_C=1, EOR=1
 636:Drivers/display_ILI-93xx_sm/lcd.c ****         0x0010, 0x0000,
 637:Drivers/display_ILI-93xx_sm/lcd.c ****         0x0011, 0x4C30,     // setRotation() alters
 638:Drivers/display_ILI-93xx_sm/lcd.c ****         0x0005, 0x0000,
 639:Drivers/display_ILI-93xx_sm/lcd.c ****         0x0006, 0x0000,
 640:Drivers/display_ILI-93xx_sm/lcd.c ****         0x0016, 0xEF1C,
 641:Drivers/display_ILI-93xx_sm/lcd.c ****         0x0017, 0x0003,
 642:Drivers/display_ILI-93xx_sm/lcd.c ****         0x0007, 0x0233,
 643:Drivers/display_ILI-93xx_sm/lcd.c ****         0x000B, 0x0000,
 644:Drivers/display_ILI-93xx_sm/lcd.c ****         0x000F, 0x0000,
 645:Drivers/display_ILI-93xx_sm/lcd.c ****         0x0030, 0x0707,
 646:Drivers/display_ILI-93xx_sm/lcd.c ****         0x0031, 0x0204,
 647:Drivers/display_ILI-93xx_sm/lcd.c ****         0x0032, 0x0204,
 648:Drivers/display_ILI-93xx_sm/lcd.c ****         0x0033, 0x0502,
 649:Drivers/display_ILI-93xx_sm/lcd.c ****         0x0034, 0x0507,
 650:Drivers/display_ILI-93xx_sm/lcd.c ****         0x0035, 0x0204,
 651:Drivers/display_ILI-93xx_sm/lcd.c ****         0x0036, 0x0204,
 652:Drivers/display_ILI-93xx_sm/lcd.c ****         0x0037, 0x0502,
 653:Drivers/display_ILI-93xx_sm/lcd.c ****         0x003A, 0x0302,
 654:Drivers/display_ILI-93xx_sm/lcd.c ****         0x003B, 0x0302,
 655:Drivers/display_ILI-93xx_sm/lcd.c ****         0x0023, 0x0000,
 656:Drivers/display_ILI-93xx_sm/lcd.c ****         0x0024, 0x0000,
 657:Drivers/display_ILI-93xx_sm/lcd.c ****         0x0025, 0x8000
 658:Drivers/display_ILI-93xx_sm/lcd.c **** };
ARM GAS  /tmp/cc47Teva.s 			page 13


 659:Drivers/display_ILI-93xx_sm/lcd.c **** #endif
 660:Drivers/display_ILI-93xx_sm/lcd.c **** 
 661:Drivers/display_ILI-93xx_sm/lcd.c **** /**
 662:Drivers/display_ILI-93xx_sm/lcd.c ****  * \brief Makes a delays for t processor cycles
 663:Drivers/display_ILI-93xx_sm/lcd.c ****  *
 664:Drivers/display_ILI-93xx_sm/lcd.c ****  * \param t		Number of "nop" cycles
 665:Drivers/display_ILI-93xx_sm/lcd.c ****  *
 666:Drivers/display_ILI-93xx_sm/lcd.c ****  * \return void
 667:Drivers/display_ILI-93xx_sm/lcd.c ****  */		
 668:Drivers/display_ILI-93xx_sm/lcd.c **** inline void delay(uint32_t t) {
  28              		.loc 1 668 31 view -0
  29              		.cfi_startproc
  30              		@ args = 0, pretend = 0, frame = 0
  31              		@ frame_needed = 0, uses_anonymous_args = 0
  32              		@ link register save eliminated.
 669:Drivers/display_ILI-93xx_sm/lcd.c **** 	for (; t; t--) __asm("nop");
  33              		.loc 1 669 2 view .LVU1
  34              	.L2:
  35              		.loc 1 669 2 is_stmt 0 discriminator 1 view .LVU2
  36 0000 10B1     		cbz	r0, .L4
  37              		.loc 1 669 17 is_stmt 1 discriminator 2 view .LVU3
  38              		.syntax unified
  39              	@ 669 "Drivers/display_ILI-93xx_sm/lcd.c" 1
  40 0002 00BF     		nop
  41              	@ 0 "" 2
  42              		.loc 1 669 13 is_stmt 0 discriminator 2 view .LVU4
  43              		.thumb
  44              		.syntax unified
  45 0004 0138     		subs	r0, r0, #1
  46              	.LVL1:
  47              		.loc 1 669 13 discriminator 2 view .LVU5
  48 0006 FBE7     		b	.L2
  49              	.L4:
 670:Drivers/display_ILI-93xx_sm/lcd.c **** }
  50              		.loc 1 670 1 view .LVU6
  51 0008 7047     		bx	lr
  52              		.cfi_endproc
  53              	.LFE68:
  55              		.section	.text.GPIO_Init,"ax",%progbits
  56              		.align	1
  57              		.global	GPIO_Init
  58              		.syntax unified
  59              		.thumb
  60              		.thumb_func
  61              		.fpu softvfp
  63              	GPIO_Init:
  64              	.LVL2:
  65              	.LFB69:
 671:Drivers/display_ILI-93xx_sm/lcd.c **** 
 672:Drivers/display_ILI-93xx_sm/lcd.c **** /**
 673:Drivers/display_ILI-93xx_sm/lcd.c ****  * \brief GPIO Initialization
 674:Drivers/display_ILI-93xx_sm/lcd.c ****  *
 675:Drivers/display_ILI-93xx_sm/lcd.c ****  * \param
 676:Drivers/display_ILI-93xx_sm/lcd.c ****  *
 677:Drivers/display_ILI-93xx_sm/lcd.c ****  * \return void
 678:Drivers/display_ILI-93xx_sm/lcd.c ****  */
 679:Drivers/display_ILI-93xx_sm/lcd.c **** void GPIO_Init(uint32_t mode) {
ARM GAS  /tmp/cc47Teva.s 			page 14


  66              		.loc 1 679 31 is_stmt 1 view -0
  67              		.cfi_startproc
  68              		@ args = 0, pretend = 0, frame = 32
  69              		@ frame_needed = 0, uses_anonymous_args = 0
 680:Drivers/display_ILI-93xx_sm/lcd.c **** 
 681:Drivers/display_ILI-93xx_sm/lcd.c **** 	// GPIO to data bus pin connections
 682:Drivers/display_ILI-93xx_sm/lcd.c **** 	// ---- PORT Pin ---     --- Data ----
 683:Drivers/display_ILI-93xx_sm/lcd.c **** 	// GPIOA, GPIO_PIN_9  -> BIT 0
 684:Drivers/display_ILI-93xx_sm/lcd.c **** 	// GPIOC, GPIO_PIN_7  -> BIT 1
 685:Drivers/display_ILI-93xx_sm/lcd.c **** 	// GPIOA, GPIO_PIN_10 -> BIT 2
 686:Drivers/display_ILI-93xx_sm/lcd.c **** 	// GPIOB, GPIO_PIN_3  -> BIT 3
 687:Drivers/display_ILI-93xx_sm/lcd.c **** 	// GPIOB, GPIO_PIN_5  -> BIT 4
 688:Drivers/display_ILI-93xx_sm/lcd.c **** 	// GPIOB, GPIO_PIN_4  -> BIT 5
 689:Drivers/display_ILI-93xx_sm/lcd.c **** 	// GPIOB, GPIO_PIN_10 -> BIT 6
 690:Drivers/display_ILI-93xx_sm/lcd.c **** 	// GPIOA, GPIO_PIN_8  -> BIT 7
 691:Drivers/display_ILI-93xx_sm/lcd.c **** 
 692:Drivers/display_ILI-93xx_sm/lcd.c **** 	// GPIO to control bus pin connections
 693:Drivers/display_ILI-93xx_sm/lcd.c **** 	// ---- PORT Pin ---     --- Signal ----
 694:Drivers/display_ILI-93xx_sm/lcd.c **** 	// GPIOB, GPIO_PIN_0  -> CS
 695:Drivers/display_ILI-93xx_sm/lcd.c **** 	// GPIOA, GPIO_PIN_4  -> CD or RS
 696:Drivers/display_ILI-93xx_sm/lcd.c **** 	// GPIOC, GPIO_PIN_1  -> RST
 697:Drivers/display_ILI-93xx_sm/lcd.c **** 	// GPIOA, GPIO_PIN_0  -> RD
 698:Drivers/display_ILI-93xx_sm/lcd.c **** 	// GPIOA, GPIO_PIN_1  -> WR
 699:Drivers/display_ILI-93xx_sm/lcd.c **** 
 700:Drivers/display_ILI-93xx_sm/lcd.c **** 	if (!(mode == GPIO_MODE_OUTPUT_PP || mode == GPIO_MODE_INPUT)) return;
  70              		.loc 1 700 2 view .LVU8
  71              		.loc 1 700 5 is_stmt 0 view .LVU9
  72 0000 0128     		cmp	r0, #1
  73 0002 00D9     		bls	.L12
  74 0004 7047     		bx	lr
  75              	.L12:
 679:Drivers/display_ILI-93xx_sm/lcd.c **** 
  76              		.loc 1 679 31 view .LVU10
  77 0006 2DE9F041 		push	{r4, r5, r6, r7, r8, lr}
  78              	.LCFI0:
  79              		.cfi_def_cfa_offset 24
  80              		.cfi_offset 4, -24
  81              		.cfi_offset 5, -20
  82              		.cfi_offset 6, -16
  83              		.cfi_offset 7, -12
  84              		.cfi_offset 8, -8
  85              		.cfi_offset 14, -4
  86 000a 88B0     		sub	sp, sp, #32
  87              	.LCFI1:
  88              		.cfi_def_cfa_offset 56
  89 000c 0646     		mov	r6, r0
 701:Drivers/display_ILI-93xx_sm/lcd.c **** 
 702:Drivers/display_ILI-93xx_sm/lcd.c **** 	GPIO_InitTypeDef GPIO_InitStruct;
  90              		.loc 1 702 2 is_stmt 1 view .LVU11
 703:Drivers/display_ILI-93xx_sm/lcd.c **** 
 704:Drivers/display_ILI-93xx_sm/lcd.c **** 	#ifdef STM32F4xx
 705:Drivers/display_ILI-93xx_sm/lcd.c **** 		/* GPIO Ports Clock Enable */
 706:Drivers/display_ILI-93xx_sm/lcd.c **** 		__GPIOA_CLK_ENABLE();
 707:Drivers/display_ILI-93xx_sm/lcd.c **** 		__GPIOB_CLK_ENABLE();
 708:Drivers/display_ILI-93xx_sm/lcd.c **** 		__GPIOC_CLK_ENABLE();
 709:Drivers/display_ILI-93xx_sm/lcd.c **** 
 710:Drivers/display_ILI-93xx_sm/lcd.c **** 		/*Configure GPIO data pins : PA8 PA9 PA10 */
ARM GAS  /tmp/cc47Teva.s 			page 15


 711:Drivers/display_ILI-93xx_sm/lcd.c **** 		GPIO_InitStruct.Pin = GPIO_PIN_8 | GPIO_PIN_9 | GPIO_PIN_10;
 712:Drivers/display_ILI-93xx_sm/lcd.c **** 		GPIO_InitStruct.Mode = mode;
 713:Drivers/display_ILI-93xx_sm/lcd.c **** 		GPIO_InitStruct.Pull = GPIO_NOPULL;
 714:Drivers/display_ILI-93xx_sm/lcd.c **** 		GPIO_InitStruct.Speed = GPIO_SPEED_LOW;
 715:Drivers/display_ILI-93xx_sm/lcd.c **** 		HAL_GPIO_Init(GPIOA, &GPIO_InitStruct);
 716:Drivers/display_ILI-93xx_sm/lcd.c **** 
 717:Drivers/display_ILI-93xx_sm/lcd.c **** 		/*Configure GPIO data pins : PB3 PB4 PB5 PB10 */
 718:Drivers/display_ILI-93xx_sm/lcd.c **** 		GPIO_InitStruct.Pin = GPIO_PIN_3 | GPIO_PIN_4 | GPIO_PIN_5 | GPIO_PIN_10;
 719:Drivers/display_ILI-93xx_sm/lcd.c **** 		GPIO_InitStruct.Mode = mode;
 720:Drivers/display_ILI-93xx_sm/lcd.c **** 		GPIO_InitStruct.Pull = GPIO_NOPULL;
 721:Drivers/display_ILI-93xx_sm/lcd.c **** 		GPIO_InitStruct.Speed = GPIO_SPEED_LOW;
 722:Drivers/display_ILI-93xx_sm/lcd.c **** 		HAL_GPIO_Init(GPIOB, &GPIO_InitStruct);
 723:Drivers/display_ILI-93xx_sm/lcd.c **** 
 724:Drivers/display_ILI-93xx_sm/lcd.c **** 		#ifdef NEW_BIT1
 725:Drivers/display_ILI-93xx_sm/lcd.c **** 			/*Configure GPIO data pins : PA7 */
 726:Drivers/display_ILI-93xx_sm/lcd.c **** 			GPIO_InitStruct.Pin = GPIO_PIN_7;
 727:Drivers/display_ILI-93xx_sm/lcd.c **** 			GPIO_InitStruct.Mode = mode;
 728:Drivers/display_ILI-93xx_sm/lcd.c **** 			GPIO_InitStruct.Pull = GPIO_NOPULL;
 729:Drivers/display_ILI-93xx_sm/lcd.c **** 			GPIO_InitStruct.Speed = GPIO_SPEED_LOW;
 730:Drivers/display_ILI-93xx_sm/lcd.c **** 			HAL_GPIO_Init(GPIOA, &GPIO_InitStruct);
 731:Drivers/display_ILI-93xx_sm/lcd.c **** 		#else
 732:Drivers/display_ILI-93xx_sm/lcd.c **** 			/*Configure GPIO data pins : PC7 */
 733:Drivers/display_ILI-93xx_sm/lcd.c **** 			GPIO_InitStruct.Pin = GPIO_PIN_7;
 734:Drivers/display_ILI-93xx_sm/lcd.c **** 			GPIO_InitStruct.Mode = mode;
 735:Drivers/display_ILI-93xx_sm/lcd.c **** 			GPIO_InitStruct.Pull = GPIO_NOPULL;
 736:Drivers/display_ILI-93xx_sm/lcd.c **** 			GPIO_InitStruct.Speed = GPIO_SPEED_LOW;
 737:Drivers/display_ILI-93xx_sm/lcd.c **** 			HAL_GPIO_Init(GPIOC, &GPIO_InitStruct);
 738:Drivers/display_ILI-93xx_sm/lcd.c **** 		#endif
 739:Drivers/display_ILI-93xx_sm/lcd.c **** 
 740:Drivers/display_ILI-93xx_sm/lcd.c **** 		/*Configure GPIO control pins : PA0 PA1 PA4 */
 741:Drivers/display_ILI-93xx_sm/lcd.c **** 		GPIO_InitStruct.Pin = GPIO_PIN_0 | GPIO_PIN_1 | GPIO_PIN_4;
 742:Drivers/display_ILI-93xx_sm/lcd.c **** 		GPIO_InitStruct.Mode = GPIO_MODE_OUTPUT_PP;
 743:Drivers/display_ILI-93xx_sm/lcd.c **** 		GPIO_InitStruct.Pull = GPIO_NOPULL;
 744:Drivers/display_ILI-93xx_sm/lcd.c **** 		GPIO_InitStruct.Speed = GPIO_SPEED_LOW;
 745:Drivers/display_ILI-93xx_sm/lcd.c **** 		HAL_GPIO_Init(GPIOA, &GPIO_InitStruct);
 746:Drivers/display_ILI-93xx_sm/lcd.c **** 
 747:Drivers/display_ILI-93xx_sm/lcd.c **** 		/*Configure GPIO control pins : PB0 */
 748:Drivers/display_ILI-93xx_sm/lcd.c **** 		GPIO_InitStruct.Pin = GPIO_PIN_0;
 749:Drivers/display_ILI-93xx_sm/lcd.c **** 		GPIO_InitStruct.Mode = GPIO_MODE_OUTPUT_PP;
 750:Drivers/display_ILI-93xx_sm/lcd.c **** 		GPIO_InitStruct.Pull = GPIO_NOPULL;
 751:Drivers/display_ILI-93xx_sm/lcd.c **** 		GPIO_InitStruct.Speed = GPIO_SPEED_LOW;
 752:Drivers/display_ILI-93xx_sm/lcd.c **** 		HAL_GPIO_Init(GPIOB, &GPIO_InitStruct);
 753:Drivers/display_ILI-93xx_sm/lcd.c **** 
 754:Drivers/display_ILI-93xx_sm/lcd.c **** 		#ifdef NEW_RST
 755:Drivers/display_ILI-93xx_sm/lcd.c **** 			/*Configure GPIO control pins : PB1 */
 756:Drivers/display_ILI-93xx_sm/lcd.c **** 			GPIO_InitStruct.Pin = GPIO_PIN_1;
 757:Drivers/display_ILI-93xx_sm/lcd.c **** 			GPIO_InitStruct.Mode = GPIO_MODE_OUTPUT_PP;
 758:Drivers/display_ILI-93xx_sm/lcd.c **** 			GPIO_InitStruct.Pull = GPIO_NOPULL;
 759:Drivers/display_ILI-93xx_sm/lcd.c **** 			GPIO_InitStruct.Speed = GPIO_SPEED_LOW;
 760:Drivers/display_ILI-93xx_sm/lcd.c **** 			HAL_GPIO_Init(GPIOB, &GPIO_InitStruct);
 761:Drivers/display_ILI-93xx_sm/lcd.c **** 		#else
 762:Drivers/display_ILI-93xx_sm/lcd.c **** 			/*Configure GPIO control pins : PC1 */
 763:Drivers/display_ILI-93xx_sm/lcd.c **** 			GPIO_InitStruct.Pin = GPIO_PIN_1;
 764:Drivers/display_ILI-93xx_sm/lcd.c **** 			GPIO_InitStruct.Mode = GPIO_MODE_OUTPUT_PP;
 765:Drivers/display_ILI-93xx_sm/lcd.c **** 			GPIO_InitStruct.Pull = GPIO_NOPULL;
 766:Drivers/display_ILI-93xx_sm/lcd.c **** 			GPIO_InitStruct.Speed = GPIO_SPEED_LOW;
 767:Drivers/display_ILI-93xx_sm/lcd.c **** 			HAL_GPIO_Init(GPIOC, &GPIO_InitStruct);
ARM GAS  /tmp/cc47Teva.s 			page 16


 768:Drivers/display_ILI-93xx_sm/lcd.c **** 		#endif
 769:Drivers/display_ILI-93xx_sm/lcd.c **** 	#endif
 770:Drivers/display_ILI-93xx_sm/lcd.c **** 
 771:Drivers/display_ILI-93xx_sm/lcd.c **** #ifdef STM32F1xx
 772:Drivers/display_ILI-93xx_sm/lcd.c **** 		/* GPIO Ports Clock Enable */
 773:Drivers/display_ILI-93xx_sm/lcd.c **** 		__HAL_RCC_GPIOA_CLK_ENABLE();
  91              		.loc 1 773 3 view .LVU12
  92              	.LBB33:
  93              		.loc 1 773 3 view .LVU13
  94              		.loc 1 773 3 view .LVU14
  95 000e 2D4B     		ldr	r3, .L13
  96 0010 9A69     		ldr	r2, [r3, #24]
  97 0012 42F00402 		orr	r2, r2, #4
  98 0016 9A61     		str	r2, [r3, #24]
  99              		.loc 1 773 3 view .LVU15
 100 0018 9A69     		ldr	r2, [r3, #24]
 101 001a 02F00402 		and	r2, r2, #4
 102 001e 0192     		str	r2, [sp, #4]
 103              		.loc 1 773 3 view .LVU16
 104 0020 019A     		ldr	r2, [sp, #4]
 105              	.LBE33:
 774:Drivers/display_ILI-93xx_sm/lcd.c **** 		__HAL_RCC_GPIOB_CLK_ENABLE();
 106              		.loc 1 774 3 view .LVU17
 107              	.LBB34:
 108              		.loc 1 774 3 view .LVU18
 109              		.loc 1 774 3 view .LVU19
 110 0022 9A69     		ldr	r2, [r3, #24]
 111 0024 42F00802 		orr	r2, r2, #8
 112 0028 9A61     		str	r2, [r3, #24]
 113              		.loc 1 774 3 view .LVU20
 114 002a 9A69     		ldr	r2, [r3, #24]
 115 002c 02F00802 		and	r2, r2, #8
 116 0030 0292     		str	r2, [sp, #8]
 117              		.loc 1 774 3 view .LVU21
 118 0032 029A     		ldr	r2, [sp, #8]
 119              	.LBE34:
 775:Drivers/display_ILI-93xx_sm/lcd.c **** 		__HAL_RCC_GPIOC_CLK_ENABLE();
 120              		.loc 1 775 3 view .LVU22
 121              	.LBB35:
 122              		.loc 1 775 3 view .LVU23
 123              		.loc 1 775 3 view .LVU24
 124 0034 9A69     		ldr	r2, [r3, #24]
 125 0036 42F01002 		orr	r2, r2, #16
 126 003a 9A61     		str	r2, [r3, #24]
 127              		.loc 1 775 3 view .LVU25
 128 003c 9B69     		ldr	r3, [r3, #24]
 129 003e 03F01003 		and	r3, r3, #16
 130 0042 0393     		str	r3, [sp, #12]
 131              		.loc 1 775 3 view .LVU26
 132 0044 039B     		ldr	r3, [sp, #12]
 133              	.LBE35:
 776:Drivers/display_ILI-93xx_sm/lcd.c **** 
 777:Drivers/display_ILI-93xx_sm/lcd.c **** 		/*Configure GPIO data pins : PA8 PA9 PA10 */
 778:Drivers/display_ILI-93xx_sm/lcd.c **** 		GPIO_InitStruct.Pin = GPIO_PIN_8 | GPIO_PIN_9 | GPIO_PIN_10;
 134              		.loc 1 778 3 view .LVU27
 135              		.loc 1 778 23 is_stmt 0 view .LVU28
 136 0046 4FF4E063 		mov	r3, #1792
ARM GAS  /tmp/cc47Teva.s 			page 17


 137 004a 0493     		str	r3, [sp, #16]
 779:Drivers/display_ILI-93xx_sm/lcd.c **** 		GPIO_InitStruct.Mode = mode;
 138              		.loc 1 779 3 is_stmt 1 view .LVU29
 139              		.loc 1 779 24 is_stmt 0 view .LVU30
 140 004c 0590     		str	r0, [sp, #20]
 780:Drivers/display_ILI-93xx_sm/lcd.c **** 		GPIO_InitStruct.Pull = GPIO_NOPULL;
 141              		.loc 1 780 3 is_stmt 1 view .LVU31
 142              		.loc 1 780 24 is_stmt 0 view .LVU32
 143 004e 0025     		movs	r5, #0
 144 0050 0695     		str	r5, [sp, #24]
 781:Drivers/display_ILI-93xx_sm/lcd.c **** 		GPIO_InitStruct.Speed = GPIO_SPEED_FREQ_LOW;
 145              		.loc 1 781 3 is_stmt 1 view .LVU33
 146              		.loc 1 781 25 is_stmt 0 view .LVU34
 147 0052 0224     		movs	r4, #2
 148 0054 0794     		str	r4, [sp, #28]
 782:Drivers/display_ILI-93xx_sm/lcd.c **** 		HAL_GPIO_Init(GPIOA, &GPIO_InitStruct);
 149              		.loc 1 782 3 is_stmt 1 view .LVU35
 150 0056 DFF87480 		ldr	r8, .L13+8
 151 005a 04A9     		add	r1, sp, #16
 152 005c 4046     		mov	r0, r8
 153              	.LVL3:
 154              		.loc 1 782 3 is_stmt 0 view .LVU36
 155 005e FFF7FEFF 		bl	HAL_GPIO_Init
 156              	.LVL4:
 783:Drivers/display_ILI-93xx_sm/lcd.c **** 
 784:Drivers/display_ILI-93xx_sm/lcd.c **** 		/*Configure GPIO data pins : PB3 PB4 PB5 PB10 */
 785:Drivers/display_ILI-93xx_sm/lcd.c **** 		GPIO_InitStruct.Pin = GPIO_PIN_3 | GPIO_PIN_4 | GPIO_PIN_5 | GPIO_PIN_10;
 157              		.loc 1 785 3 is_stmt 1 view .LVU37
 158              		.loc 1 785 23 is_stmt 0 view .LVU38
 159 0062 4FF48763 		mov	r3, #1080
 160 0066 0493     		str	r3, [sp, #16]
 786:Drivers/display_ILI-93xx_sm/lcd.c **** 		GPIO_InitStruct.Mode = mode;
 161              		.loc 1 786 3 is_stmt 1 view .LVU39
 162              		.loc 1 786 24 is_stmt 0 view .LVU40
 163 0068 0596     		str	r6, [sp, #20]
 787:Drivers/display_ILI-93xx_sm/lcd.c **** 		GPIO_InitStruct.Pull = GPIO_NOPULL;
 164              		.loc 1 787 3 is_stmt 1 view .LVU41
 165              		.loc 1 787 24 is_stmt 0 view .LVU42
 166 006a 0695     		str	r5, [sp, #24]
 788:Drivers/display_ILI-93xx_sm/lcd.c **** 		GPIO_InitStruct.Speed = GPIO_SPEED_FREQ_LOW;
 167              		.loc 1 788 3 is_stmt 1 view .LVU43
 168              		.loc 1 788 25 is_stmt 0 view .LVU44
 169 006c 0794     		str	r4, [sp, #28]
 789:Drivers/display_ILI-93xx_sm/lcd.c **** 		HAL_GPIO_Init(GPIOB, &GPIO_InitStruct);
 170              		.loc 1 789 3 is_stmt 1 view .LVU45
 171 006e 164F     		ldr	r7, .L13+4
 172 0070 04A9     		add	r1, sp, #16
 173 0072 3846     		mov	r0, r7
 174 0074 FFF7FEFF 		bl	HAL_GPIO_Init
 175              	.LVL5:
 790:Drivers/display_ILI-93xx_sm/lcd.c **** 
 791:Drivers/display_ILI-93xx_sm/lcd.c **** 		#ifdef NEW_BIT1
 792:Drivers/display_ILI-93xx_sm/lcd.c **** 			/*Configure GPIO data pins : PA7 */
 793:Drivers/display_ILI-93xx_sm/lcd.c **** 			GPIO_InitStruct.Pin = GPIO_PIN_7;
 176              		.loc 1 793 4 view .LVU46
 177              		.loc 1 793 24 is_stmt 0 view .LVU47
 178 0078 8023     		movs	r3, #128
ARM GAS  /tmp/cc47Teva.s 			page 18


 179 007a 0493     		str	r3, [sp, #16]
 794:Drivers/display_ILI-93xx_sm/lcd.c **** 			GPIO_InitStruct.Mode = mode;
 180              		.loc 1 794 4 is_stmt 1 view .LVU48
 181              		.loc 1 794 25 is_stmt 0 view .LVU49
 182 007c 0596     		str	r6, [sp, #20]
 795:Drivers/display_ILI-93xx_sm/lcd.c **** 			GPIO_InitStruct.Pull = GPIO_NOPULL;
 183              		.loc 1 795 4 is_stmt 1 view .LVU50
 184              		.loc 1 795 25 is_stmt 0 view .LVU51
 185 007e 0695     		str	r5, [sp, #24]
 796:Drivers/display_ILI-93xx_sm/lcd.c **** 			GPIO_InitStruct.Speed = GPIO_SPEED_FREQ_LOW;
 186              		.loc 1 796 4 is_stmt 1 view .LVU52
 187              		.loc 1 796 26 is_stmt 0 view .LVU53
 188 0080 0794     		str	r4, [sp, #28]
 797:Drivers/display_ILI-93xx_sm/lcd.c **** 			HAL_GPIO_Init(GPIOA, &GPIO_InitStruct);
 189              		.loc 1 797 4 is_stmt 1 view .LVU54
 190 0082 04A9     		add	r1, sp, #16
 191 0084 4046     		mov	r0, r8
 192 0086 FFF7FEFF 		bl	HAL_GPIO_Init
 193              	.LVL6:
 798:Drivers/display_ILI-93xx_sm/lcd.c **** 		#else
 799:Drivers/display_ILI-93xx_sm/lcd.c **** 			/*Configure GPIO data pins : PC7 */
 800:Drivers/display_ILI-93xx_sm/lcd.c **** 			GPIO_InitStruct.Pin = GPIO_PIN_7;
 801:Drivers/display_ILI-93xx_sm/lcd.c **** 			GPIO_InitStruct.Mode = mode;
 802:Drivers/display_ILI-93xx_sm/lcd.c **** 			GPIO_InitStruct.Pull = GPIO_NOPULL;
 803:Drivers/display_ILI-93xx_sm/lcd.c **** 			GPIO_InitStruct.Speed = GPIO_SPEED_LOW;
 804:Drivers/display_ILI-93xx_sm/lcd.c **** 			HAL_GPIO_Init(GPIOC, &GPIO_InitStruct);
 805:Drivers/display_ILI-93xx_sm/lcd.c **** 		#endif
 806:Drivers/display_ILI-93xx_sm/lcd.c **** 
 807:Drivers/display_ILI-93xx_sm/lcd.c **** 		/*Configure GPIO control pins : PA0 PA1 PA4 */
 808:Drivers/display_ILI-93xx_sm/lcd.c **** 		GPIO_InitStruct.Pin = GPIO_PIN_0 | GPIO_PIN_1 | GPIO_PIN_4;
 194              		.loc 1 808 3 view .LVU55
 195              		.loc 1 808 23 is_stmt 0 view .LVU56
 196 008a 1323     		movs	r3, #19
 197 008c 0493     		str	r3, [sp, #16]
 809:Drivers/display_ILI-93xx_sm/lcd.c **** 		GPIO_InitStruct.Mode = GPIO_MODE_OUTPUT_PP;
 198              		.loc 1 809 3 is_stmt 1 view .LVU57
 199              		.loc 1 809 24 is_stmt 0 view .LVU58
 200 008e 0126     		movs	r6, #1
 201              	.LVL7:
 202              		.loc 1 809 24 view .LVU59
 203 0090 0596     		str	r6, [sp, #20]
 810:Drivers/display_ILI-93xx_sm/lcd.c **** 		GPIO_InitStruct.Pull = GPIO_NOPULL;
 204              		.loc 1 810 3 is_stmt 1 view .LVU60
 205              		.loc 1 810 24 is_stmt 0 view .LVU61
 206 0092 0695     		str	r5, [sp, #24]
 811:Drivers/display_ILI-93xx_sm/lcd.c **** 		GPIO_InitStruct.Speed = GPIO_SPEED_FREQ_LOW;
 207              		.loc 1 811 3 is_stmt 1 view .LVU62
 208              		.loc 1 811 25 is_stmt 0 view .LVU63
 209 0094 0794     		str	r4, [sp, #28]
 812:Drivers/display_ILI-93xx_sm/lcd.c **** 		HAL_GPIO_Init(GPIOA, &GPIO_InitStruct);
 210              		.loc 1 812 3 is_stmt 1 view .LVU64
 211 0096 04A9     		add	r1, sp, #16
 212 0098 4046     		mov	r0, r8
 213 009a FFF7FEFF 		bl	HAL_GPIO_Init
 214              	.LVL8:
 813:Drivers/display_ILI-93xx_sm/lcd.c **** 
 814:Drivers/display_ILI-93xx_sm/lcd.c **** 		/*Configure GPIO control pins : PB0 */
ARM GAS  /tmp/cc47Teva.s 			page 19


 815:Drivers/display_ILI-93xx_sm/lcd.c **** 		GPIO_InitStruct.Pin = GPIO_PIN_0;
 215              		.loc 1 815 3 view .LVU65
 216              		.loc 1 815 23 is_stmt 0 view .LVU66
 217 009e 0496     		str	r6, [sp, #16]
 816:Drivers/display_ILI-93xx_sm/lcd.c **** 		GPIO_InitStruct.Mode = GPIO_MODE_OUTPUT_PP;
 218              		.loc 1 816 3 is_stmt 1 view .LVU67
 219              		.loc 1 816 24 is_stmt 0 view .LVU68
 220 00a0 0596     		str	r6, [sp, #20]
 817:Drivers/display_ILI-93xx_sm/lcd.c **** 		GPIO_InitStruct.Pull = GPIO_NOPULL;
 221              		.loc 1 817 3 is_stmt 1 view .LVU69
 222              		.loc 1 817 24 is_stmt 0 view .LVU70
 223 00a2 0695     		str	r5, [sp, #24]
 818:Drivers/display_ILI-93xx_sm/lcd.c **** 		GPIO_InitStruct.Speed = GPIO_SPEED_FREQ_LOW;
 224              		.loc 1 818 3 is_stmt 1 view .LVU71
 225              		.loc 1 818 25 is_stmt 0 view .LVU72
 226 00a4 0794     		str	r4, [sp, #28]
 819:Drivers/display_ILI-93xx_sm/lcd.c **** 		HAL_GPIO_Init(GPIOB, &GPIO_InitStruct);
 227              		.loc 1 819 3 is_stmt 1 view .LVU73
 228 00a6 04A9     		add	r1, sp, #16
 229 00a8 3846     		mov	r0, r7
 230 00aa FFF7FEFF 		bl	HAL_GPIO_Init
 231              	.LVL9:
 820:Drivers/display_ILI-93xx_sm/lcd.c **** 
 821:Drivers/display_ILI-93xx_sm/lcd.c **** 		#ifdef NEW_RST
 822:Drivers/display_ILI-93xx_sm/lcd.c **** 			/*Configure GPIO control pins : PB1 */
 823:Drivers/display_ILI-93xx_sm/lcd.c **** 			GPIO_InitStruct.Pin = GPIO_PIN_1;
 232              		.loc 1 823 4 view .LVU74
 233              		.loc 1 823 24 is_stmt 0 view .LVU75
 234 00ae 0494     		str	r4, [sp, #16]
 824:Drivers/display_ILI-93xx_sm/lcd.c **** 			GPIO_InitStruct.Mode = GPIO_MODE_OUTPUT_PP;
 235              		.loc 1 824 4 is_stmt 1 view .LVU76
 236              		.loc 1 824 25 is_stmt 0 view .LVU77
 237 00b0 0596     		str	r6, [sp, #20]
 825:Drivers/display_ILI-93xx_sm/lcd.c **** 			GPIO_InitStruct.Pull = GPIO_NOPULL;
 238              		.loc 1 825 4 is_stmt 1 view .LVU78
 239              		.loc 1 825 25 is_stmt 0 view .LVU79
 240 00b2 0695     		str	r5, [sp, #24]
 826:Drivers/display_ILI-93xx_sm/lcd.c **** 			GPIO_InitStruct.Speed = GPIO_SPEED_FREQ_LOW;
 241              		.loc 1 826 4 is_stmt 1 view .LVU80
 242              		.loc 1 826 26 is_stmt 0 view .LVU81
 243 00b4 0794     		str	r4, [sp, #28]
 827:Drivers/display_ILI-93xx_sm/lcd.c **** 			HAL_GPIO_Init(GPIOB, &GPIO_InitStruct);
 244              		.loc 1 827 4 is_stmt 1 view .LVU82
 245 00b6 04A9     		add	r1, sp, #16
 246 00b8 3846     		mov	r0, r7
 247 00ba FFF7FEFF 		bl	HAL_GPIO_Init
 248              	.LVL10:
 828:Drivers/display_ILI-93xx_sm/lcd.c **** 		#else
 829:Drivers/display_ILI-93xx_sm/lcd.c **** 			/*Configure GPIO control pins : PC1 */
 830:Drivers/display_ILI-93xx_sm/lcd.c **** 			GPIO_InitStruct.Pin = GPIO_PIN_1;
 831:Drivers/display_ILI-93xx_sm/lcd.c **** 			GPIO_InitStruct.Mode = GPIO_MODE_OUTPUT_PP;
 832:Drivers/display_ILI-93xx_sm/lcd.c **** 			GPIO_InitStruct.Pull = GPIO_NOPULL;
 833:Drivers/display_ILI-93xx_sm/lcd.c **** 			GPIO_InitStruct.Speed = GPIO_SPEED_LOW;
 834:Drivers/display_ILI-93xx_sm/lcd.c **** 			HAL_GPIO_Init(GPIOC, &GPIO_InitStruct);
 835:Drivers/display_ILI-93xx_sm/lcd.c **** 		#endif
 836:Drivers/display_ILI-93xx_sm/lcd.c **** 
 837:Drivers/display_ILI-93xx_sm/lcd.c **** 	#endif
ARM GAS  /tmp/cc47Teva.s 			page 20


 838:Drivers/display_ILI-93xx_sm/lcd.c **** }
 249              		.loc 1 838 1 is_stmt 0 view .LVU83
 250 00be 08B0     		add	sp, sp, #32
 251              	.LCFI2:
 252              		.cfi_def_cfa_offset 24
 253              		@ sp needed
 254 00c0 BDE8F081 		pop	{r4, r5, r6, r7, r8, pc}
 255              	.L14:
 256              		.align	2
 257              	.L13:
 258 00c4 00100240 		.word	1073876992
 259 00c8 000C0140 		.word	1073810432
 260 00cc 00080140 		.word	1073809408
 261              		.cfi_endproc
 262              	.LFE69:
 264              		.section	.text.LCD_Write8,"ax",%progbits
 265              		.align	1
 266              		.global	LCD_Write8
 267              		.syntax unified
 268              		.thumb
 269              		.thumb_func
 270              		.fpu softvfp
 272              	LCD_Write8:
 273              	.LVL11:
 274              	.LFB70:
 839:Drivers/display_ILI-93xx_sm/lcd.c **** 
 840:Drivers/display_ILI-93xx_sm/lcd.c **** /**
 841:Drivers/display_ILI-93xx_sm/lcd.c ****  * \brief Writes 8-Bit data
 842:Drivers/display_ILI-93xx_sm/lcd.c ****  *
 843:Drivers/display_ILI-93xx_sm/lcd.c ****  * \param data	8-Bit Data
 844:Drivers/display_ILI-93xx_sm/lcd.c ****  *
 845:Drivers/display_ILI-93xx_sm/lcd.c ****  * \return void
 846:Drivers/display_ILI-93xx_sm/lcd.c ****  */
 847:Drivers/display_ILI-93xx_sm/lcd.c **** inline void LCD_Write8(uint8_t data) {
 275              		.loc 1 847 38 is_stmt 1 view -0
 276              		.cfi_startproc
 277              		@ args = 0, pretend = 0, frame = 0
 278              		@ frame_needed = 0, uses_anonymous_args = 0
 279              		@ link register save eliminated.
 280              		.loc 1 847 38 is_stmt 0 view .LVU85
 281 0000 30B4     		push	{r4, r5}
 282              	.LCFI3:
 283              		.cfi_def_cfa_offset 8
 284              		.cfi_offset 4, -8
 285              		.cfi_offset 5, -4
 848:Drivers/display_ILI-93xx_sm/lcd.c **** 	// ------ PORT -----     --- Data ----
 849:Drivers/display_ILI-93xx_sm/lcd.c **** 	// GPIOA, GPIO_PIN_9  -> BIT 0 -> 0x01
 850:Drivers/display_ILI-93xx_sm/lcd.c **** 
 851:Drivers/display_ILI-93xx_sm/lcd.c **** 	// GPIOA, GPIO_PIN_10 -> BIT 2 -> 0x04
 852:Drivers/display_ILI-93xx_sm/lcd.c **** 	// GPIOB, GPIO_PIN_3  -> BIT 3 -> 0x08
 853:Drivers/display_ILI-93xx_sm/lcd.c **** 	// GPIOB, GPIO_PIN_5  -> BIT 4 -> 0x10
 854:Drivers/display_ILI-93xx_sm/lcd.c **** 	// GPIOB, GPIO_PIN_4  -> BIT 5 -> 0x20
 855:Drivers/display_ILI-93xx_sm/lcd.c **** 	// GPIOB, GPIO_PIN_10 -> BIT 6 -> 0x40
 856:Drivers/display_ILI-93xx_sm/lcd.c **** 	// GPIOA, GPIO_PIN_8  -> BIT 7 -> 0x80
 857:Drivers/display_ILI-93xx_sm/lcd.c **** 
 858:Drivers/display_ILI-93xx_sm/lcd.c **** #ifdef NEW_BIT1
 859:Drivers/display_ILI-93xx_sm/lcd.c **** 	// GPIOA, GPIO_PIN_7  -> BIT 1 -> 0x02
ARM GAS  /tmp/cc47Teva.s 			page 21


 860:Drivers/display_ILI-93xx_sm/lcd.c **** 	GPIOA->ODR = (GPIOA->ODR & 0xF87F) | ((data & 0x01) << 9) | ((data & 0x04) << 8) | ((data & 0x80) 
 286              		.loc 1 860 2 is_stmt 1 view .LVU86
 287              		.loc 1 860 21 is_stmt 0 view .LVU87
 288 0002 1F49     		ldr	r1, .L22
 289 0004 CA68     		ldr	r2, [r1, #12]
 290              		.loc 1 860 27 view .LVU88
 291 0006 22F4F062 		bic	r2, r2, #1920
 292 000a 1204     		lsls	r2, r2, #16
 293 000c 120C     		lsrs	r2, r2, #16
 294              		.loc 1 860 54 view .LVU89
 295 000e 4302     		lsls	r3, r0, #9
 296 0010 03F40073 		and	r3, r3, #512
 297              		.loc 1 860 37 view .LVU90
 298 0014 1A43     		orrs	r2, r2, r3
 299              		.loc 1 860 77 view .LVU91
 300 0016 0302     		lsls	r3, r0, #8
 301 0018 03F48063 		and	r3, r3, #1024
 302              		.loc 1 860 60 view .LVU92
 303 001c 1A43     		orrs	r2, r2, r3
 304              		.loc 1 860 100 view .LVU93
 305 001e 4400     		lsls	r4, r0, #1
 306 0020 04F48073 		and	r3, r4, #256
 307              		.loc 1 860 83 view .LVU94
 308 0024 1A43     		orrs	r2, r2, r3
 309              		.loc 1 860 123 view .LVU95
 310 0026 8301     		lsls	r3, r0, #6
 311 0028 03F08003 		and	r3, r3, #128
 312              		.loc 1 860 106 view .LVU96
 313 002c 1A43     		orrs	r2, r2, r3
 314              		.loc 1 860 13 view .LVU97
 315 002e CA60     		str	r2, [r1, #12]
 861:Drivers/display_ILI-93xx_sm/lcd.c **** 	GPIOB->ODR = (GPIOB->ODR & 0xFBC7) | (data & 0x08) | ((data & 0x10) << 1) | ((data & 0x20) >> 1) |
 316              		.loc 1 861 2 is_stmt 1 view .LVU98
 317              		.loc 1 861 21 is_stmt 0 view .LVU99
 318 0030 144D     		ldr	r5, .L22+4
 319 0032 EB68     		ldr	r3, [r5, #12]
 320              		.loc 1 861 27 view .LVU100
 321 0034 23F48763 		bic	r3, r3, #1080
 322 0038 1B04     		lsls	r3, r3, #16
 323 003a 1B0C     		lsrs	r3, r3, #16
 324              		.loc 1 861 45 view .LVU101
 325 003c 00F00802 		and	r2, r0, #8
 326              		.loc 1 861 37 view .LVU102
 327 0040 1343     		orrs	r3, r3, r2
 328              		.loc 1 861 70 view .LVU103
 329 0042 04F02004 		and	r4, r4, #32
 330              		.loc 1 861 53 view .LVU104
 331 0046 2343     		orrs	r3, r3, r4
 332              		.loc 1 861 93 view .LVU105
 333 0048 4210     		asrs	r2, r0, #1
 334 004a 02F01002 		and	r2, r2, #16
 335              		.loc 1 861 76 view .LVU106
 336 004e 1343     		orrs	r3, r3, r2
 337              		.loc 1 861 116 view .LVU107
 338 0050 0001     		lsls	r0, r0, #4
 339              	.LVL12:
 340              		.loc 1 861 116 view .LVU108
ARM GAS  /tmp/cc47Teva.s 			page 22


 341 0052 00F48060 		and	r0, r0, #1024
 342              		.loc 1 861 99 view .LVU109
 343 0056 0343     		orrs	r3, r3, r0
 344              		.loc 1 861 13 view .LVU110
 345 0058 EB60     		str	r3, [r5, #12]
 862:Drivers/display_ILI-93xx_sm/lcd.c **** #else
 863:Drivers/display_ILI-93xx_sm/lcd.c **** 	// GPIOC, GPIO_PIN_7  -> BIT 1 -> 0x02
 864:Drivers/display_ILI-93xx_sm/lcd.c **** 	GPIOA->ODR = (GPIOA->ODR & 0xF8FF) | ((data & 0x01) << 9) | ((data & 0x04) << 8) | ((data & 0x80) 
 865:Drivers/display_ILI-93xx_sm/lcd.c **** 	GPIOB->ODR = (GPIOB->ODR & 0xFBC7) | (data & 0x08) | ((data & 0x10) << 1) | ((data & 0x20) >> 1) |
 866:Drivers/display_ILI-93xx_sm/lcd.c **** 	GPIOC->ODR = (GPIOC->ODR & 0xFF7F) | ((data & 0x02) << 6);
 867:Drivers/display_ILI-93xx_sm/lcd.c **** #endif
 868:Drivers/display_ILI-93xx_sm/lcd.c **** 
 869:Drivers/display_ILI-93xx_sm/lcd.c **** 	LCD_WR_STROBE();
 346              		.loc 1 869 2 is_stmt 1 view .LVU111
 347              		.loc 1 869 2 view .LVU112
 348 005a 4FF40033 		mov	r3, #131072
 349 005e 0B61     		str	r3, [r1, #16]
 350              		.loc 1 869 2 view .LVU113
 351              	.LVL13:
 352              	.LBB40:
 353              	.LBI40:
 668:Drivers/display_ILI-93xx_sm/lcd.c **** 	for (; t; t--) __asm("nop");
 354              		.loc 1 668 13 view .LVU114
 355              	.LBB41:
 669:Drivers/display_ILI-93xx_sm/lcd.c **** }
 356              		.loc 1 669 2 view .LVU115
 357              	.LBE41:
 358              	.LBE40:
 359              		.loc 1 869 2 is_stmt 0 view .LVU116
 360 0060 0223     		movs	r3, #2
 361              	.LVL14:
 362              	.L16:
 363              	.LBB43:
 364              	.LBB42:
 669:Drivers/display_ILI-93xx_sm/lcd.c **** }
 365              		.loc 1 669 2 view .LVU117
 366 0062 13B1     		cbz	r3, .L21
 669:Drivers/display_ILI-93xx_sm/lcd.c **** }
 367              		.loc 1 669 17 is_stmt 1 view .LVU118
 368              		.syntax unified
 369              	@ 669 "Drivers/display_ILI-93xx_sm/lcd.c" 1
 370 0064 00BF     		nop
 371              	@ 0 "" 2
 669:Drivers/display_ILI-93xx_sm/lcd.c **** }
 372              		.loc 1 669 13 is_stmt 0 view .LVU119
 373              		.thumb
 374              		.syntax unified
 375 0066 013B     		subs	r3, r3, #1
 376              	.LVL15:
 669:Drivers/display_ILI-93xx_sm/lcd.c **** }
 377              		.loc 1 669 13 view .LVU120
 378 0068 FBE7     		b	.L16
 379              	.L21:
 380              	.LVL16:
 669:Drivers/display_ILI-93xx_sm/lcd.c **** }
 381              		.loc 1 669 13 view .LVU121
 382              	.LBE42:
ARM GAS  /tmp/cc47Teva.s 			page 23


 383              	.LBE43:
 384              		.loc 1 869 2 is_stmt 1 view .LVU122
 385 006a 0223     		movs	r3, #2
 386 006c 044A     		ldr	r2, .L22
 387 006e 1361     		str	r3, [r2, #16]
 388              		.loc 1 869 2 view .LVU123
 389              	.LVL17:
 390              	.LBB44:
 391              	.LBI44:
 668:Drivers/display_ILI-93xx_sm/lcd.c **** 	for (; t; t--) __asm("nop");
 392              		.loc 1 668 13 view .LVU124
 393 0070 01E0     		b	.L18
 394              	.LVL18:
 395              	.L19:
 396              	.LBB45:
 669:Drivers/display_ILI-93xx_sm/lcd.c **** }
 397              		.loc 1 669 17 view .LVU125
 398              		.syntax unified
 399              	@ 669 "Drivers/display_ILI-93xx_sm/lcd.c" 1
 400 0072 00BF     		nop
 401              	@ 0 "" 2
 669:Drivers/display_ILI-93xx_sm/lcd.c **** }
 402              		.loc 1 669 13 is_stmt 0 view .LVU126
 403              		.thumb
 404              		.syntax unified
 405 0074 013B     		subs	r3, r3, #1
 406              	.LVL19:
 407              	.L18:
 669:Drivers/display_ILI-93xx_sm/lcd.c **** }
 408              		.loc 1 669 2 view .LVU127
 409 0076 002B     		cmp	r3, #0
 410 0078 FBD1     		bne	.L19
 411              	.LBE45:
 412              	.LBE44:
 870:Drivers/display_ILI-93xx_sm/lcd.c **** }
 413              		.loc 1 870 1 view .LVU128
 414 007a 30BC     		pop	{r4, r5}
 415              	.LCFI4:
 416              		.cfi_restore 5
 417              		.cfi_restore 4
 418              		.cfi_def_cfa_offset 0
 419 007c 7047     		bx	lr
 420              	.L23:
 421 007e 00BF     		.align	2
 422              	.L22:
 423 0080 00080140 		.word	1073809408
 424 0084 000C0140 		.word	1073810432
 425              		.cfi_endproc
 426              	.LFE70:
 428              		.section	.text.LCD_Read8,"ax",%progbits
 429              		.align	1
 430              		.global	LCD_Read8
 431              		.syntax unified
 432              		.thumb
 433              		.thumb_func
 434              		.fpu softvfp
 436              	LCD_Read8:
ARM GAS  /tmp/cc47Teva.s 			page 24


 437              	.LFB71:
 871:Drivers/display_ILI-93xx_sm/lcd.c **** 
 872:Drivers/display_ILI-93xx_sm/lcd.c **** /**
 873:Drivers/display_ILI-93xx_sm/lcd.c ****  * \brief Reads 8-Bit data
 874:Drivers/display_ILI-93xx_sm/lcd.c ****  *
 875:Drivers/display_ILI-93xx_sm/lcd.c ****  * \param data	8-Bit Data
 876:Drivers/display_ILI-93xx_sm/lcd.c ****  *
 877:Drivers/display_ILI-93xx_sm/lcd.c ****  * \return void
 878:Drivers/display_ILI-93xx_sm/lcd.c ****  */
 879:Drivers/display_ILI-93xx_sm/lcd.c **** inline uint8_t LCD_Read8(void) {
 438              		.loc 1 879 32 is_stmt 1 view -0
 439              		.cfi_startproc
 440              		@ args = 0, pretend = 0, frame = 0
 441              		@ frame_needed = 0, uses_anonymous_args = 0
 442              		@ link register save eliminated.
 880:Drivers/display_ILI-93xx_sm/lcd.c **** 	// - Data - ----------- PORT -----------
 881:Drivers/display_ILI-93xx_sm/lcd.c **** 	// BIT 0 -> GPIOA, GPIO_PIN_9  -> 0x0200
 882:Drivers/display_ILI-93xx_sm/lcd.c **** 
 883:Drivers/display_ILI-93xx_sm/lcd.c **** 	// BIT 2 -> GPIOA, GPIO_PIN_10 -> 0x0400
 884:Drivers/display_ILI-93xx_sm/lcd.c **** 	// BIT 3 -> GPIOB, GPIO_PIN_3  -> 0x0008
 885:Drivers/display_ILI-93xx_sm/lcd.c **** 	// BIT 4 -> GPIOB, GPIO_PIN_5  -> 0x0020
 886:Drivers/display_ILI-93xx_sm/lcd.c **** 	// BIT 5 -> GPIOB, GPIO_PIN_4  -> 0x0010
 887:Drivers/display_ILI-93xx_sm/lcd.c **** 	// BIT 6 -> GPIOB, GPIO_PIN_10 -> 0x0400
 888:Drivers/display_ILI-93xx_sm/lcd.c **** 	// BIT 7 -> GPIOA, GPIO_PIN_8  -> 0x0100
 889:Drivers/display_ILI-93xx_sm/lcd.c **** 	uint8_t data;
 443              		.loc 1 889 2 view .LVU130
 890:Drivers/display_ILI-93xx_sm/lcd.c **** 	LCD_RD_STROBE();
 444              		.loc 1 890 2 view .LVU131
 445              		.loc 1 890 2 view .LVU132
 446 0000 1E4B     		ldr	r3, .L30
 447 0002 4FF48032 		mov	r2, #65536
 448 0006 1A61     		str	r2, [r3, #16]
 449              		.loc 1 890 2 view .LVU133
 450              	.LVL20:
 451              	.LBB50:
 452              	.LBI50:
 668:Drivers/display_ILI-93xx_sm/lcd.c **** 	for (; t; t--) __asm("nop");
 453              		.loc 1 668 13 view .LVU134
 454              	.LBB51:
 669:Drivers/display_ILI-93xx_sm/lcd.c **** }
 455              		.loc 1 669 2 view .LVU135
 456              	.LBE51:
 457              	.LBE50:
 458              		.loc 1 890 2 is_stmt 0 view .LVU136
 459 0008 0223     		movs	r3, #2
 460              	.LVL21:
 461              	.L25:
 462              	.LBB53:
 463              	.LBB52:
 669:Drivers/display_ILI-93xx_sm/lcd.c **** }
 464              		.loc 1 669 2 view .LVU137
 465 000a 13B1     		cbz	r3, .L29
 669:Drivers/display_ILI-93xx_sm/lcd.c **** }
 466              		.loc 1 669 17 is_stmt 1 view .LVU138
 467              		.syntax unified
 468              	@ 669 "Drivers/display_ILI-93xx_sm/lcd.c" 1
 469 000c 00BF     		nop
ARM GAS  /tmp/cc47Teva.s 			page 25


 470              	@ 0 "" 2
 669:Drivers/display_ILI-93xx_sm/lcd.c **** }
 471              		.loc 1 669 13 is_stmt 0 view .LVU139
 472              		.thumb
 473              		.syntax unified
 474 000e 013B     		subs	r3, r3, #1
 475              	.LVL22:
 669:Drivers/display_ILI-93xx_sm/lcd.c **** }
 476              		.loc 1 669 13 view .LVU140
 477 0010 FBE7     		b	.L25
 478              	.L29:
 479              	.LVL23:
 669:Drivers/display_ILI-93xx_sm/lcd.c **** }
 480              		.loc 1 669 13 view .LVU141
 481              	.LBE52:
 482              	.LBE53:
 483              		.loc 1 890 2 is_stmt 1 view .LVU142
 484 0012 03F18043 		add	r3, r3, #1073741824
 485 0016 03F58433 		add	r3, r3, #67584
 486 001a 0122     		movs	r2, #1
 487 001c 1A61     		str	r2, [r3, #16]
 488              		.loc 1 890 2 view .LVU143
 489              	.LVL24:
 490              	.LBB54:
 491              	.LBI54:
 668:Drivers/display_ILI-93xx_sm/lcd.c **** 	for (; t; t--) __asm("nop");
 492              		.loc 1 668 13 view .LVU144
 493              	.LBE54:
 494              		.loc 1 890 2 is_stmt 0 view .LVU145
 495 001e 0223     		movs	r3, #2
 496 0020 01E0     		b	.L27
 497              	.LVL25:
 498              	.L28:
 499              	.LBB56:
 500              	.LBB55:
 669:Drivers/display_ILI-93xx_sm/lcd.c **** }
 501              		.loc 1 669 17 is_stmt 1 view .LVU146
 502              		.syntax unified
 503              	@ 669 "Drivers/display_ILI-93xx_sm/lcd.c" 1
 504 0022 00BF     		nop
 505              	@ 0 "" 2
 669:Drivers/display_ILI-93xx_sm/lcd.c **** }
 506              		.loc 1 669 13 is_stmt 0 view .LVU147
 507              		.thumb
 508              		.syntax unified
 509 0024 013B     		subs	r3, r3, #1
 510              	.LVL26:
 511              	.L27:
 669:Drivers/display_ILI-93xx_sm/lcd.c **** }
 512              		.loc 1 669 2 view .LVU148
 513 0026 002B     		cmp	r3, #0
 514 0028 FBD1     		bne	.L28
 515              	.LVL27:
 669:Drivers/display_ILI-93xx_sm/lcd.c **** }
 516              		.loc 1 669 2 view .LVU149
 517              	.LBE55:
 518              	.LBE56:
ARM GAS  /tmp/cc47Teva.s 			page 26


 891:Drivers/display_ILI-93xx_sm/lcd.c **** 
 892:Drivers/display_ILI-93xx_sm/lcd.c **** #ifdef NEW_BIT1
 893:Drivers/display_ILI-93xx_sm/lcd.c **** 	// BIT 1 -> GPIOA, GPIO_PIN_7  -> 0x0080
 894:Drivers/display_ILI-93xx_sm/lcd.c **** 	data = ((GPIOA->IDR & 0x0200) >> 9) | ((GPIOA->IDR & 0x0400) >> 8) | ((GPIOA->IDR & 0x0100) >> 1) 
 519              		.loc 1 894 2 is_stmt 1 view .LVU150
 520              		.loc 1 894 16 is_stmt 0 view .LVU151
 521 002a 144A     		ldr	r2, .L30
 522 002c 9368     		ldr	r3, [r2, #8]
 523              		.loc 1 894 32 view .LVU152
 524 002e C3F34023 		ubfx	r3, r3, #9, #1
 525              		.loc 1 894 47 view .LVU153
 526 0032 9168     		ldr	r1, [r2, #8]
 527              		.loc 1 894 63 view .LVU154
 528 0034 090A     		lsrs	r1, r1, #8
 529 0036 01F00401 		and	r1, r1, #4
 530              		.loc 1 894 38 view .LVU155
 531 003a 0B43     		orrs	r3, r3, r1
 532              		.loc 1 894 78 view .LVU156
 533 003c 9168     		ldr	r1, [r2, #8]
 534              		.loc 1 894 94 view .LVU157
 535 003e 4908     		lsrs	r1, r1, #1
 536 0040 01F08001 		and	r1, r1, #128
 537              		.loc 1 894 69 view .LVU158
 538 0044 0B43     		orrs	r3, r3, r1
 539              		.loc 1 894 108 view .LVU159
 540 0046 0E49     		ldr	r1, .L30+4
 541 0048 8868     		ldr	r0, [r1, #8]
 542              		.loc 1 894 114 view .LVU160
 543 004a 00F00800 		and	r0, r0, #8
 544              		.loc 1 894 100 view .LVU161
 545 004e 0343     		orrs	r3, r3, r0
 895:Drivers/display_ILI-93xx_sm/lcd.c **** 			| ((GPIOB->IDR & 0x0020) >> 1) | ((GPIOB->IDR & 0x0010) << 1) | ((GPIOB->IDR & 0x0400) >> 4)
 546              		.loc 1 895 13 view .LVU162
 547 0050 8868     		ldr	r0, [r1, #8]
 548              		.loc 1 895 29 view .LVU163
 549 0052 4008     		lsrs	r0, r0, #1
 550 0054 00F01000 		and	r0, r0, #16
 551              		.loc 1 895 4 view .LVU164
 552 0058 0343     		orrs	r3, r3, r0
 553              		.loc 1 895 44 view .LVU165
 554 005a 8868     		ldr	r0, [r1, #8]
 555              		.loc 1 895 60 view .LVU166
 556 005c 4000     		lsls	r0, r0, #1
 557 005e 00F02000 		and	r0, r0, #32
 558              		.loc 1 895 35 view .LVU167
 559 0062 0343     		orrs	r3, r3, r0
 560              		.loc 1 895 75 view .LVU168
 561 0064 8868     		ldr	r0, [r1, #8]
 562              		.loc 1 895 91 view .LVU169
 563 0066 0009     		lsrs	r0, r0, #4
 564 0068 00F04000 		and	r0, r0, #64
 565              		.loc 1 895 66 view .LVU170
 566 006c 0343     		orrs	r3, r3, r0
 896:Drivers/display_ILI-93xx_sm/lcd.c **** 			| ((GPIOA->IDR & 0x0080) >> 6);
 567              		.loc 1 896 13 view .LVU171
 568 006e 9068     		ldr	r0, [r2, #8]
 569              		.loc 1 896 29 view .LVU172
ARM GAS  /tmp/cc47Teva.s 			page 27


 570 0070 8009     		lsrs	r0, r0, #6
 571 0072 00F00200 		and	r0, r0, #2
 572              	.LVL28:
 897:Drivers/display_ILI-93xx_sm/lcd.c **** #else
 898:Drivers/display_ILI-93xx_sm/lcd.c **** 	// BIT 1 -> GPIOC, GPIO_PIN_7  -> 0x0080
 899:Drivers/display_ILI-93xx_sm/lcd.c **** 	data = ((GPIOA->IDR & 0x0200) >> 9) | ((GPIOA->IDR & 0x0400) >> 8) | ((GPIOA->IDR & 0x0100) >> 1) 
 900:Drivers/display_ILI-93xx_sm/lcd.c **** 			| ((GPIOB->IDR & 0x0020) >> 1) | ((GPIOB->IDR & 0x0010) << 1) | ((GPIOB->IDR & 0x0400) >> 4)
 901:Drivers/display_ILI-93xx_sm/lcd.c **** 			| ((GPIOC->IDR & 0x0080) >> 6);
 902:Drivers/display_ILI-93xx_sm/lcd.c **** #endif
 903:Drivers/display_ILI-93xx_sm/lcd.c **** 
 904:Drivers/display_ILI-93xx_sm/lcd.c **** 	return data;
 573              		.loc 1 904 2 is_stmt 1 view .LVU173
 905:Drivers/display_ILI-93xx_sm/lcd.c **** }
 574              		.loc 1 905 1 is_stmt 0 view .LVU174
 575 0076 1843     		orrs	r0, r0, r3
 576              	.LVL29:
 577              		.loc 1 905 1 view .LVU175
 578 0078 7047     		bx	lr
 579              	.L31:
 580 007a 00BF     		.align	2
 581              	.L30:
 582 007c 00080140 		.word	1073809408
 583 0080 000C0140 		.word	1073810432
 584              		.cfi_endproc
 585              	.LFE71:
 587              		.section	.text.LCD_Write8Register8,"ax",%progbits
 588              		.align	1
 589              		.global	LCD_Write8Register8
 590              		.syntax unified
 591              		.thumb
 592              		.thumb_func
 593              		.fpu softvfp
 595              	LCD_Write8Register8:
 596              	.LVL30:
 597              	.LFB72:
 906:Drivers/display_ILI-93xx_sm/lcd.c **** 
 907:Drivers/display_ILI-93xx_sm/lcd.c **** /**
 908:Drivers/display_ILI-93xx_sm/lcd.c ****  * \brief Writes 8-Bit data to register (8-bit address)
 909:Drivers/display_ILI-93xx_sm/lcd.c ****  *
 910:Drivers/display_ILI-93xx_sm/lcd.c ****  * \param a		Register
 911:Drivers/display_ILI-93xx_sm/lcd.c ****  * \param d		Data
 912:Drivers/display_ILI-93xx_sm/lcd.c ****  *
 913:Drivers/display_ILI-93xx_sm/lcd.c ****  * \return void
 914:Drivers/display_ILI-93xx_sm/lcd.c ****  */
 915:Drivers/display_ILI-93xx_sm/lcd.c **** inline void LCD_Write8Register8(uint8_t a, uint8_t d) {
 598              		.loc 1 915 55 is_stmt 1 view -0
 599              		.cfi_startproc
 600              		@ args = 0, pretend = 0, frame = 0
 601              		@ frame_needed = 0, uses_anonymous_args = 0
 602              		@ link register save eliminated.
 603              		.loc 1 915 55 is_stmt 0 view .LVU177
 604 0000 70B4     		push	{r4, r5, r6}
 605              	.LCFI5:
 606              		.cfi_def_cfa_offset 12
 607              		.cfi_offset 4, -12
 608              		.cfi_offset 5, -8
 609              		.cfi_offset 6, -4
ARM GAS  /tmp/cc47Teva.s 			page 28


 916:Drivers/display_ILI-93xx_sm/lcd.c **** 	LCD_CD_COMMAND();
 610              		.loc 1 916 2 is_stmt 1 view .LVU178
 611 0002 3E4C     		ldr	r4, .L46
 612 0004 4FF48013 		mov	r3, #1048576
 613 0008 2361     		str	r3, [r4, #16]
 917:Drivers/display_ILI-93xx_sm/lcd.c **** 	LCD_Write8(a);
 614              		.loc 1 917 2 view .LVU179
 615              	.LVL31:
 616              	.LBB69:
 617              	.LBI69:
 847:Drivers/display_ILI-93xx_sm/lcd.c **** 	// ------ PORT -----     --- Data ----
 618              		.loc 1 847 13 view .LVU180
 619              	.LBB70:
 860:Drivers/display_ILI-93xx_sm/lcd.c **** 	GPIOB->ODR = (GPIOB->ODR & 0xFBC7) | (data & 0x08) | ((data & 0x10) << 1) | ((data & 0x20) >> 1) |
 620              		.loc 1 860 2 view .LVU181
 860:Drivers/display_ILI-93xx_sm/lcd.c **** 	GPIOB->ODR = (GPIOB->ODR & 0xFBC7) | (data & 0x08) | ((data & 0x10) << 1) | ((data & 0x20) >> 1) |
 621              		.loc 1 860 21 is_stmt 0 view .LVU182
 622 000a E268     		ldr	r2, [r4, #12]
 860:Drivers/display_ILI-93xx_sm/lcd.c **** 	GPIOB->ODR = (GPIOB->ODR & 0xFBC7) | (data & 0x08) | ((data & 0x10) << 1) | ((data & 0x20) >> 1) |
 623              		.loc 1 860 27 view .LVU183
 624 000c 22F4F062 		bic	r2, r2, #1920
 625 0010 1204     		lsls	r2, r2, #16
 626 0012 120C     		lsrs	r2, r2, #16
 860:Drivers/display_ILI-93xx_sm/lcd.c **** 	GPIOB->ODR = (GPIOB->ODR & 0xFBC7) | (data & 0x08) | ((data & 0x10) << 1) | ((data & 0x20) >> 1) |
 627              		.loc 1 860 54 view .LVU184
 628 0014 4302     		lsls	r3, r0, #9
 629 0016 03F40073 		and	r3, r3, #512
 860:Drivers/display_ILI-93xx_sm/lcd.c **** 	GPIOB->ODR = (GPIOB->ODR & 0xFBC7) | (data & 0x08) | ((data & 0x10) << 1) | ((data & 0x20) >> 1) |
 630              		.loc 1 860 37 view .LVU185
 631 001a 1A43     		orrs	r2, r2, r3
 860:Drivers/display_ILI-93xx_sm/lcd.c **** 	GPIOB->ODR = (GPIOB->ODR & 0xFBC7) | (data & 0x08) | ((data & 0x10) << 1) | ((data & 0x20) >> 1) |
 632              		.loc 1 860 77 view .LVU186
 633 001c 0302     		lsls	r3, r0, #8
 634 001e 03F48063 		and	r3, r3, #1024
 860:Drivers/display_ILI-93xx_sm/lcd.c **** 	GPIOB->ODR = (GPIOB->ODR & 0xFBC7) | (data & 0x08) | ((data & 0x10) << 1) | ((data & 0x20) >> 1) |
 635              		.loc 1 860 60 view .LVU187
 636 0022 1A43     		orrs	r2, r2, r3
 860:Drivers/display_ILI-93xx_sm/lcd.c **** 	GPIOB->ODR = (GPIOB->ODR & 0xFBC7) | (data & 0x08) | ((data & 0x10) << 1) | ((data & 0x20) >> 1) |
 637              		.loc 1 860 100 view .LVU188
 638 0024 4500     		lsls	r5, r0, #1
 639 0026 05F48073 		and	r3, r5, #256
 860:Drivers/display_ILI-93xx_sm/lcd.c **** 	GPIOB->ODR = (GPIOB->ODR & 0xFBC7) | (data & 0x08) | ((data & 0x10) << 1) | ((data & 0x20) >> 1) |
 640              		.loc 1 860 83 view .LVU189
 641 002a 1A43     		orrs	r2, r2, r3
 860:Drivers/display_ILI-93xx_sm/lcd.c **** 	GPIOB->ODR = (GPIOB->ODR & 0xFBC7) | (data & 0x08) | ((data & 0x10) << 1) | ((data & 0x20) >> 1) |
 642              		.loc 1 860 123 view .LVU190
 643 002c 8301     		lsls	r3, r0, #6
 644 002e 03F08003 		and	r3, r3, #128
 860:Drivers/display_ILI-93xx_sm/lcd.c **** 	GPIOB->ODR = (GPIOB->ODR & 0xFBC7) | (data & 0x08) | ((data & 0x10) << 1) | ((data & 0x20) >> 1) |
 645              		.loc 1 860 106 view .LVU191
 646 0032 1A43     		orrs	r2, r2, r3
 860:Drivers/display_ILI-93xx_sm/lcd.c **** 	GPIOB->ODR = (GPIOB->ODR & 0xFBC7) | (data & 0x08) | ((data & 0x10) << 1) | ((data & 0x20) >> 1) |
 647              		.loc 1 860 13 view .LVU192
 648 0034 E260     		str	r2, [r4, #12]
 861:Drivers/display_ILI-93xx_sm/lcd.c **** #else
 649              		.loc 1 861 2 is_stmt 1 view .LVU193
 861:Drivers/display_ILI-93xx_sm/lcd.c **** #else
ARM GAS  /tmp/cc47Teva.s 			page 29


 650              		.loc 1 861 21 is_stmt 0 view .LVU194
 651 0036 324A     		ldr	r2, .L46+4
 652 0038 D368     		ldr	r3, [r2, #12]
 861:Drivers/display_ILI-93xx_sm/lcd.c **** #else
 653              		.loc 1 861 27 view .LVU195
 654 003a 23F48763 		bic	r3, r3, #1080
 655 003e 1B04     		lsls	r3, r3, #16
 656 0040 1B0C     		lsrs	r3, r3, #16
 861:Drivers/display_ILI-93xx_sm/lcd.c **** #else
 657              		.loc 1 861 45 view .LVU196
 658 0042 00F00806 		and	r6, r0, #8
 861:Drivers/display_ILI-93xx_sm/lcd.c **** #else
 659              		.loc 1 861 37 view .LVU197
 660 0046 3343     		orrs	r3, r3, r6
 861:Drivers/display_ILI-93xx_sm/lcd.c **** #else
 661              		.loc 1 861 70 view .LVU198
 662 0048 05F02005 		and	r5, r5, #32
 861:Drivers/display_ILI-93xx_sm/lcd.c **** #else
 663              		.loc 1 861 53 view .LVU199
 664 004c 2B43     		orrs	r3, r3, r5
 861:Drivers/display_ILI-93xx_sm/lcd.c **** #else
 665              		.loc 1 861 93 view .LVU200
 666 004e 4510     		asrs	r5, r0, #1
 667 0050 05F01005 		and	r5, r5, #16
 861:Drivers/display_ILI-93xx_sm/lcd.c **** #else
 668              		.loc 1 861 76 view .LVU201
 669 0054 2B43     		orrs	r3, r3, r5
 861:Drivers/display_ILI-93xx_sm/lcd.c **** #else
 670              		.loc 1 861 116 view .LVU202
 671 0056 0001     		lsls	r0, r0, #4
 672              	.LVL32:
 861:Drivers/display_ILI-93xx_sm/lcd.c **** #else
 673              		.loc 1 861 116 view .LVU203
 674 0058 00F48060 		and	r0, r0, #1024
 861:Drivers/display_ILI-93xx_sm/lcd.c **** #else
 675              		.loc 1 861 99 view .LVU204
 676 005c 0343     		orrs	r3, r3, r0
 861:Drivers/display_ILI-93xx_sm/lcd.c **** #else
 677              		.loc 1 861 13 view .LVU205
 678 005e D360     		str	r3, [r2, #12]
 869:Drivers/display_ILI-93xx_sm/lcd.c **** }
 679              		.loc 1 869 2 is_stmt 1 view .LVU206
 869:Drivers/display_ILI-93xx_sm/lcd.c **** }
 680              		.loc 1 869 2 view .LVU207
 681 0060 4FF40033 		mov	r3, #131072
 682 0064 2361     		str	r3, [r4, #16]
 869:Drivers/display_ILI-93xx_sm/lcd.c **** }
 683              		.loc 1 869 2 view .LVU208
 684              	.LVL33:
 685              	.LBB71:
 686              	.LBI71:
 668:Drivers/display_ILI-93xx_sm/lcd.c **** 	for (; t; t--) __asm("nop");
 687              		.loc 1 668 13 view .LVU209
 688              	.LBB72:
 669:Drivers/display_ILI-93xx_sm/lcd.c **** }
 689              		.loc 1 669 2 view .LVU210
 690              	.LBE72:
ARM GAS  /tmp/cc47Teva.s 			page 30


 691              	.LBE71:
 869:Drivers/display_ILI-93xx_sm/lcd.c **** }
 692              		.loc 1 869 2 is_stmt 0 view .LVU211
 693 0066 0223     		movs	r3, #2
 694              	.LVL34:
 695              	.L33:
 696              	.LBB74:
 697              	.LBB73:
 669:Drivers/display_ILI-93xx_sm/lcd.c **** }
 698              		.loc 1 669 2 view .LVU212
 699 0068 13B1     		cbz	r3, .L42
 669:Drivers/display_ILI-93xx_sm/lcd.c **** }
 700              		.loc 1 669 17 is_stmt 1 view .LVU213
 701              		.syntax unified
 702              	@ 669 "Drivers/display_ILI-93xx_sm/lcd.c" 1
 703 006a 00BF     		nop
 704              	@ 0 "" 2
 669:Drivers/display_ILI-93xx_sm/lcd.c **** }
 705              		.loc 1 669 13 is_stmt 0 view .LVU214
 706              		.thumb
 707              		.syntax unified
 708 006c 013B     		subs	r3, r3, #1
 709              	.LVL35:
 669:Drivers/display_ILI-93xx_sm/lcd.c **** }
 710              		.loc 1 669 13 view .LVU215
 711 006e FBE7     		b	.L33
 712              	.L42:
 713              	.LVL36:
 669:Drivers/display_ILI-93xx_sm/lcd.c **** }
 714              		.loc 1 669 13 view .LVU216
 715              	.LBE73:
 716              	.LBE74:
 869:Drivers/display_ILI-93xx_sm/lcd.c **** }
 717              		.loc 1 869 2 is_stmt 1 view .LVU217
 718 0070 0223     		movs	r3, #2
 719 0072 224A     		ldr	r2, .L46
 720 0074 1361     		str	r3, [r2, #16]
 869:Drivers/display_ILI-93xx_sm/lcd.c **** }
 721              		.loc 1 869 2 view .LVU218
 722              	.LVL37:
 723              	.LBB75:
 724              	.LBI75:
 668:Drivers/display_ILI-93xx_sm/lcd.c **** 	for (; t; t--) __asm("nop");
 725              		.loc 1 668 13 view .LVU219
 726              	.L35:
 727              	.LBB76:
 669:Drivers/display_ILI-93xx_sm/lcd.c **** }
 728              		.loc 1 669 2 is_stmt 0 view .LVU220
 729 0076 13B1     		cbz	r3, .L43
 669:Drivers/display_ILI-93xx_sm/lcd.c **** }
 730              		.loc 1 669 17 is_stmt 1 view .LVU221
 731              		.syntax unified
 732              	@ 669 "Drivers/display_ILI-93xx_sm/lcd.c" 1
 733 0078 00BF     		nop
 734              	@ 0 "" 2
 669:Drivers/display_ILI-93xx_sm/lcd.c **** }
 735              		.loc 1 669 13 is_stmt 0 view .LVU222
ARM GAS  /tmp/cc47Teva.s 			page 31


 736              		.thumb
 737              		.syntax unified
 738 007a 013B     		subs	r3, r3, #1
 739              	.LVL38:
 669:Drivers/display_ILI-93xx_sm/lcd.c **** }
 740              		.loc 1 669 13 view .LVU223
 741 007c FBE7     		b	.L35
 742              	.L43:
 743              	.LVL39:
 669:Drivers/display_ILI-93xx_sm/lcd.c **** }
 744              		.loc 1 669 13 view .LVU224
 745              	.LBE76:
 746              	.LBE75:
 747              	.LBE70:
 748              	.LBE69:
 918:Drivers/display_ILI-93xx_sm/lcd.c **** 	LCD_CD_DATA();
 749              		.loc 1 918 2 is_stmt 1 view .LVU225
 750 007e 1F48     		ldr	r0, .L46
 751 0080 1023     		movs	r3, #16
 752 0082 0361     		str	r3, [r0, #16]
 919:Drivers/display_ILI-93xx_sm/lcd.c **** 	LCD_Write8(d);
 753              		.loc 1 919 2 view .LVU226
 754              	.LVL40:
 755              	.LBB77:
 756              	.LBI77:
 847:Drivers/display_ILI-93xx_sm/lcd.c **** 	// ------ PORT -----     --- Data ----
 757              		.loc 1 847 13 view .LVU227
 758              	.LBB78:
 860:Drivers/display_ILI-93xx_sm/lcd.c **** 	GPIOB->ODR = (GPIOB->ODR & 0xFBC7) | (data & 0x08) | ((data & 0x10) << 1) | ((data & 0x20) >> 1) |
 759              		.loc 1 860 2 view .LVU228
 860:Drivers/display_ILI-93xx_sm/lcd.c **** 	GPIOB->ODR = (GPIOB->ODR & 0xFBC7) | (data & 0x08) | ((data & 0x10) << 1) | ((data & 0x20) >> 1) |
 760              		.loc 1 860 21 is_stmt 0 view .LVU229
 761 0084 C268     		ldr	r2, [r0, #12]
 860:Drivers/display_ILI-93xx_sm/lcd.c **** 	GPIOB->ODR = (GPIOB->ODR & 0xFBC7) | (data & 0x08) | ((data & 0x10) << 1) | ((data & 0x20) >> 1) |
 762              		.loc 1 860 27 view .LVU230
 763 0086 22F4F062 		bic	r2, r2, #1920
 764 008a 1204     		lsls	r2, r2, #16
 765 008c 120C     		lsrs	r2, r2, #16
 860:Drivers/display_ILI-93xx_sm/lcd.c **** 	GPIOB->ODR = (GPIOB->ODR & 0xFBC7) | (data & 0x08) | ((data & 0x10) << 1) | ((data & 0x20) >> 1) |
 766              		.loc 1 860 54 view .LVU231
 767 008e 4B02     		lsls	r3, r1, #9
 768 0090 03F40073 		and	r3, r3, #512
 860:Drivers/display_ILI-93xx_sm/lcd.c **** 	GPIOB->ODR = (GPIOB->ODR & 0xFBC7) | (data & 0x08) | ((data & 0x10) << 1) | ((data & 0x20) >> 1) |
 769              		.loc 1 860 37 view .LVU232
 770 0094 1A43     		orrs	r2, r2, r3
 860:Drivers/display_ILI-93xx_sm/lcd.c **** 	GPIOB->ODR = (GPIOB->ODR & 0xFBC7) | (data & 0x08) | ((data & 0x10) << 1) | ((data & 0x20) >> 1) |
 771              		.loc 1 860 77 view .LVU233
 772 0096 0B02     		lsls	r3, r1, #8
 773 0098 03F48063 		and	r3, r3, #1024
 860:Drivers/display_ILI-93xx_sm/lcd.c **** 	GPIOB->ODR = (GPIOB->ODR & 0xFBC7) | (data & 0x08) | ((data & 0x10) << 1) | ((data & 0x20) >> 1) |
 774              		.loc 1 860 60 view .LVU234
 775 009c 1A43     		orrs	r2, r2, r3
 860:Drivers/display_ILI-93xx_sm/lcd.c **** 	GPIOB->ODR = (GPIOB->ODR & 0xFBC7) | (data & 0x08) | ((data & 0x10) << 1) | ((data & 0x20) >> 1) |
 776              		.loc 1 860 100 view .LVU235
 777 009e 4C00     		lsls	r4, r1, #1
 778 00a0 04F48073 		and	r3, r4, #256
 860:Drivers/display_ILI-93xx_sm/lcd.c **** 	GPIOB->ODR = (GPIOB->ODR & 0xFBC7) | (data & 0x08) | ((data & 0x10) << 1) | ((data & 0x20) >> 1) |
ARM GAS  /tmp/cc47Teva.s 			page 32


 779              		.loc 1 860 83 view .LVU236
 780 00a4 1A43     		orrs	r2, r2, r3
 860:Drivers/display_ILI-93xx_sm/lcd.c **** 	GPIOB->ODR = (GPIOB->ODR & 0xFBC7) | (data & 0x08) | ((data & 0x10) << 1) | ((data & 0x20) >> 1) |
 781              		.loc 1 860 123 view .LVU237
 782 00a6 8B01     		lsls	r3, r1, #6
 783 00a8 03F08003 		and	r3, r3, #128
 860:Drivers/display_ILI-93xx_sm/lcd.c **** 	GPIOB->ODR = (GPIOB->ODR & 0xFBC7) | (data & 0x08) | ((data & 0x10) << 1) | ((data & 0x20) >> 1) |
 784              		.loc 1 860 106 view .LVU238
 785 00ac 1A43     		orrs	r2, r2, r3
 860:Drivers/display_ILI-93xx_sm/lcd.c **** 	GPIOB->ODR = (GPIOB->ODR & 0xFBC7) | (data & 0x08) | ((data & 0x10) << 1) | ((data & 0x20) >> 1) |
 786              		.loc 1 860 13 view .LVU239
 787 00ae C260     		str	r2, [r0, #12]
 861:Drivers/display_ILI-93xx_sm/lcd.c **** #else
 788              		.loc 1 861 2 is_stmt 1 view .LVU240
 861:Drivers/display_ILI-93xx_sm/lcd.c **** #else
 789              		.loc 1 861 21 is_stmt 0 view .LVU241
 790 00b0 134D     		ldr	r5, .L46+4
 791 00b2 EB68     		ldr	r3, [r5, #12]
 861:Drivers/display_ILI-93xx_sm/lcd.c **** #else
 792              		.loc 1 861 27 view .LVU242
 793 00b4 23F48763 		bic	r3, r3, #1080
 794 00b8 1B04     		lsls	r3, r3, #16
 795 00ba 1B0C     		lsrs	r3, r3, #16
 861:Drivers/display_ILI-93xx_sm/lcd.c **** #else
 796              		.loc 1 861 45 view .LVU243
 797 00bc 01F00802 		and	r2, r1, #8
 861:Drivers/display_ILI-93xx_sm/lcd.c **** #else
 798              		.loc 1 861 37 view .LVU244
 799 00c0 1343     		orrs	r3, r3, r2
 861:Drivers/display_ILI-93xx_sm/lcd.c **** #else
 800              		.loc 1 861 70 view .LVU245
 801 00c2 04F02004 		and	r4, r4, #32
 861:Drivers/display_ILI-93xx_sm/lcd.c **** #else
 802              		.loc 1 861 53 view .LVU246
 803 00c6 2343     		orrs	r3, r3, r4
 861:Drivers/display_ILI-93xx_sm/lcd.c **** #else
 804              		.loc 1 861 93 view .LVU247
 805 00c8 4A10     		asrs	r2, r1, #1
 806 00ca 02F01002 		and	r2, r2, #16
 861:Drivers/display_ILI-93xx_sm/lcd.c **** #else
 807              		.loc 1 861 76 view .LVU248
 808 00ce 1343     		orrs	r3, r3, r2
 861:Drivers/display_ILI-93xx_sm/lcd.c **** #else
 809              		.loc 1 861 116 view .LVU249
 810 00d0 0901     		lsls	r1, r1, #4
 811              	.LVL41:
 861:Drivers/display_ILI-93xx_sm/lcd.c **** #else
 812              		.loc 1 861 116 view .LVU250
 813 00d2 01F48061 		and	r1, r1, #1024
 861:Drivers/display_ILI-93xx_sm/lcd.c **** #else
 814              		.loc 1 861 99 view .LVU251
 815 00d6 0B43     		orrs	r3, r3, r1
 861:Drivers/display_ILI-93xx_sm/lcd.c **** #else
 816              		.loc 1 861 13 view .LVU252
 817 00d8 EB60     		str	r3, [r5, #12]
 869:Drivers/display_ILI-93xx_sm/lcd.c **** }
 818              		.loc 1 869 2 is_stmt 1 view .LVU253
ARM GAS  /tmp/cc47Teva.s 			page 33


 869:Drivers/display_ILI-93xx_sm/lcd.c **** }
 819              		.loc 1 869 2 view .LVU254
 820 00da 4FF40033 		mov	r3, #131072
 821 00de 0361     		str	r3, [r0, #16]
 869:Drivers/display_ILI-93xx_sm/lcd.c **** }
 822              		.loc 1 869 2 view .LVU255
 823              	.LVL42:
 824              	.LBB79:
 825              	.LBI79:
 668:Drivers/display_ILI-93xx_sm/lcd.c **** 	for (; t; t--) __asm("nop");
 826              		.loc 1 668 13 view .LVU256
 827              	.LBB80:
 669:Drivers/display_ILI-93xx_sm/lcd.c **** }
 828              		.loc 1 669 2 view .LVU257
 829              	.LBE80:
 830              	.LBE79:
 869:Drivers/display_ILI-93xx_sm/lcd.c **** }
 831              		.loc 1 869 2 is_stmt 0 view .LVU258
 832 00e0 0223     		movs	r3, #2
 833              	.LVL43:
 834              	.L37:
 835              	.LBB82:
 836              	.LBB81:
 669:Drivers/display_ILI-93xx_sm/lcd.c **** }
 837              		.loc 1 669 2 view .LVU259
 838 00e2 13B1     		cbz	r3, .L44
 669:Drivers/display_ILI-93xx_sm/lcd.c **** }
 839              		.loc 1 669 17 is_stmt 1 view .LVU260
 840              		.syntax unified
 841              	@ 669 "Drivers/display_ILI-93xx_sm/lcd.c" 1
 842 00e4 00BF     		nop
 843              	@ 0 "" 2
 669:Drivers/display_ILI-93xx_sm/lcd.c **** }
 844              		.loc 1 669 13 is_stmt 0 view .LVU261
 845              		.thumb
 846              		.syntax unified
 847 00e6 013B     		subs	r3, r3, #1
 848              	.LVL44:
 669:Drivers/display_ILI-93xx_sm/lcd.c **** }
 849              		.loc 1 669 13 view .LVU262
 850 00e8 FBE7     		b	.L37
 851              	.L44:
 852              	.LVL45:
 669:Drivers/display_ILI-93xx_sm/lcd.c **** }
 853              		.loc 1 669 13 view .LVU263
 854              	.LBE81:
 855              	.LBE82:
 869:Drivers/display_ILI-93xx_sm/lcd.c **** }
 856              		.loc 1 869 2 is_stmt 1 view .LVU264
 857 00ea 0223     		movs	r3, #2
 858 00ec 034A     		ldr	r2, .L46
 859 00ee 1361     		str	r3, [r2, #16]
 869:Drivers/display_ILI-93xx_sm/lcd.c **** }
 860              		.loc 1 869 2 view .LVU265
 861              	.LVL46:
 862              	.LBB83:
 863              	.LBI83:
ARM GAS  /tmp/cc47Teva.s 			page 34


 668:Drivers/display_ILI-93xx_sm/lcd.c **** 	for (; t; t--) __asm("nop");
 864              		.loc 1 668 13 view .LVU266
 865              	.L39:
 866              	.LBB84:
 669:Drivers/display_ILI-93xx_sm/lcd.c **** }
 867              		.loc 1 669 2 is_stmt 0 view .LVU267
 868 00f0 13B1     		cbz	r3, .L45
 669:Drivers/display_ILI-93xx_sm/lcd.c **** }
 869              		.loc 1 669 17 is_stmt 1 view .LVU268
 870              		.syntax unified
 871              	@ 669 "Drivers/display_ILI-93xx_sm/lcd.c" 1
 872 00f2 00BF     		nop
 873              	@ 0 "" 2
 669:Drivers/display_ILI-93xx_sm/lcd.c **** }
 874              		.loc 1 669 13 is_stmt 0 view .LVU269
 875              		.thumb
 876              		.syntax unified
 877 00f4 013B     		subs	r3, r3, #1
 878              	.LVL47:
 669:Drivers/display_ILI-93xx_sm/lcd.c **** }
 879              		.loc 1 669 13 view .LVU270
 880 00f6 FBE7     		b	.L39
 881              	.L45:
 669:Drivers/display_ILI-93xx_sm/lcd.c **** }
 882              		.loc 1 669 13 view .LVU271
 883              	.LBE84:
 884              	.LBE83:
 885              	.LBE78:
 886              	.LBE77:
 920:Drivers/display_ILI-93xx_sm/lcd.c **** }
 887              		.loc 1 920 1 view .LVU272
 888 00f8 70BC     		pop	{r4, r5, r6}
 889              	.LCFI6:
 890              		.cfi_restore 6
 891              		.cfi_restore 5
 892              		.cfi_restore 4
 893              		.cfi_def_cfa_offset 0
 894 00fa 7047     		bx	lr
 895              	.L47:
 896              		.align	2
 897              	.L46:
 898 00fc 00080140 		.word	1073809408
 899 0100 000C0140 		.word	1073810432
 900              		.cfi_endproc
 901              	.LFE72:
 903              		.section	.text.LCD_Write16Register8,"ax",%progbits
 904              		.align	1
 905              		.global	LCD_Write16Register8
 906              		.syntax unified
 907              		.thumb
 908              		.thumb_func
 909              		.fpu softvfp
 911              	LCD_Write16Register8:
 912              	.LVL48:
 913              	.LFB73:
 921:Drivers/display_ILI-93xx_sm/lcd.c **** 
 922:Drivers/display_ILI-93xx_sm/lcd.c **** /**
ARM GAS  /tmp/cc47Teva.s 			page 35


 923:Drivers/display_ILI-93xx_sm/lcd.c ****  * \brief Writes 16-Bit data to register (8-bit address)
 924:Drivers/display_ILI-93xx_sm/lcd.c ****  *
 925:Drivers/display_ILI-93xx_sm/lcd.c ****  * \param a		Register
 926:Drivers/display_ILI-93xx_sm/lcd.c ****  * \param d		Data
 927:Drivers/display_ILI-93xx_sm/lcd.c ****  *
 928:Drivers/display_ILI-93xx_sm/lcd.c ****  * \return void
 929:Drivers/display_ILI-93xx_sm/lcd.c ****  */
 930:Drivers/display_ILI-93xx_sm/lcd.c **** inline void LCD_Write16Register8(uint8_t a, uint16_t d) {
 914              		.loc 1 930 57 is_stmt 1 view -0
 915              		.cfi_startproc
 916              		@ args = 0, pretend = 0, frame = 0
 917              		@ frame_needed = 0, uses_anonymous_args = 0
 918              		@ link register save eliminated.
 919              		.loc 1 930 57 is_stmt 0 view .LVU274
 920 0000 70B4     		push	{r4, r5, r6}
 921              	.LCFI7:
 922              		.cfi_def_cfa_offset 12
 923              		.cfi_offset 4, -12
 924              		.cfi_offset 5, -8
 925              		.cfi_offset 6, -4
 931:Drivers/display_ILI-93xx_sm/lcd.c **** 	LCD_CD_COMMAND();
 926              		.loc 1 931 2 is_stmt 1 view .LVU275
 927 0002 5D4C     		ldr	r4, .L68
 928 0004 4FF48013 		mov	r3, #1048576
 929 0008 2361     		str	r3, [r4, #16]
 932:Drivers/display_ILI-93xx_sm/lcd.c **** 	LCD_Write8(a);
 930              		.loc 1 932 2 view .LVU276
 931              	.LVL49:
 932              	.LBB103:
 933              	.LBI103:
 847:Drivers/display_ILI-93xx_sm/lcd.c **** 	// ------ PORT -----     --- Data ----
 934              		.loc 1 847 13 view .LVU277
 935              	.LBB104:
 860:Drivers/display_ILI-93xx_sm/lcd.c **** 	GPIOB->ODR = (GPIOB->ODR & 0xFBC7) | (data & 0x08) | ((data & 0x10) << 1) | ((data & 0x20) >> 1) |
 936              		.loc 1 860 2 view .LVU278
 860:Drivers/display_ILI-93xx_sm/lcd.c **** 	GPIOB->ODR = (GPIOB->ODR & 0xFBC7) | (data & 0x08) | ((data & 0x10) << 1) | ((data & 0x20) >> 1) |
 937              		.loc 1 860 21 is_stmt 0 view .LVU279
 938 000a E268     		ldr	r2, [r4, #12]
 860:Drivers/display_ILI-93xx_sm/lcd.c **** 	GPIOB->ODR = (GPIOB->ODR & 0xFBC7) | (data & 0x08) | ((data & 0x10) << 1) | ((data & 0x20) >> 1) |
 939              		.loc 1 860 27 view .LVU280
 940 000c 22F4F062 		bic	r2, r2, #1920
 941 0010 1204     		lsls	r2, r2, #16
 942 0012 120C     		lsrs	r2, r2, #16
 860:Drivers/display_ILI-93xx_sm/lcd.c **** 	GPIOB->ODR = (GPIOB->ODR & 0xFBC7) | (data & 0x08) | ((data & 0x10) << 1) | ((data & 0x20) >> 1) |
 943              		.loc 1 860 54 view .LVU281
 944 0014 4302     		lsls	r3, r0, #9
 945 0016 03F40073 		and	r3, r3, #512
 860:Drivers/display_ILI-93xx_sm/lcd.c **** 	GPIOB->ODR = (GPIOB->ODR & 0xFBC7) | (data & 0x08) | ((data & 0x10) << 1) | ((data & 0x20) >> 1) |
 946              		.loc 1 860 37 view .LVU282
 947 001a 1A43     		orrs	r2, r2, r3
 860:Drivers/display_ILI-93xx_sm/lcd.c **** 	GPIOB->ODR = (GPIOB->ODR & 0xFBC7) | (data & 0x08) | ((data & 0x10) << 1) | ((data & 0x20) >> 1) |
 948              		.loc 1 860 77 view .LVU283
 949 001c 0302     		lsls	r3, r0, #8
 950 001e 03F48063 		and	r3, r3, #1024
 860:Drivers/display_ILI-93xx_sm/lcd.c **** 	GPIOB->ODR = (GPIOB->ODR & 0xFBC7) | (data & 0x08) | ((data & 0x10) << 1) | ((data & 0x20) >> 1) |
 951              		.loc 1 860 60 view .LVU284
 952 0022 1A43     		orrs	r2, r2, r3
ARM GAS  /tmp/cc47Teva.s 			page 36


 860:Drivers/display_ILI-93xx_sm/lcd.c **** 	GPIOB->ODR = (GPIOB->ODR & 0xFBC7) | (data & 0x08) | ((data & 0x10) << 1) | ((data & 0x20) >> 1) |
 953              		.loc 1 860 100 view .LVU285
 954 0024 4500     		lsls	r5, r0, #1
 955 0026 05F48073 		and	r3, r5, #256
 860:Drivers/display_ILI-93xx_sm/lcd.c **** 	GPIOB->ODR = (GPIOB->ODR & 0xFBC7) | (data & 0x08) | ((data & 0x10) << 1) | ((data & 0x20) >> 1) |
 956              		.loc 1 860 83 view .LVU286
 957 002a 1A43     		orrs	r2, r2, r3
 860:Drivers/display_ILI-93xx_sm/lcd.c **** 	GPIOB->ODR = (GPIOB->ODR & 0xFBC7) | (data & 0x08) | ((data & 0x10) << 1) | ((data & 0x20) >> 1) |
 958              		.loc 1 860 123 view .LVU287
 959 002c 8301     		lsls	r3, r0, #6
 960 002e 03F08003 		and	r3, r3, #128
 860:Drivers/display_ILI-93xx_sm/lcd.c **** 	GPIOB->ODR = (GPIOB->ODR & 0xFBC7) | (data & 0x08) | ((data & 0x10) << 1) | ((data & 0x20) >> 1) |
 961              		.loc 1 860 106 view .LVU288
 962 0032 1A43     		orrs	r2, r2, r3
 860:Drivers/display_ILI-93xx_sm/lcd.c **** 	GPIOB->ODR = (GPIOB->ODR & 0xFBC7) | (data & 0x08) | ((data & 0x10) << 1) | ((data & 0x20) >> 1) |
 963              		.loc 1 860 13 view .LVU289
 964 0034 E260     		str	r2, [r4, #12]
 861:Drivers/display_ILI-93xx_sm/lcd.c **** #else
 965              		.loc 1 861 2 is_stmt 1 view .LVU290
 861:Drivers/display_ILI-93xx_sm/lcd.c **** #else
 966              		.loc 1 861 21 is_stmt 0 view .LVU291
 967 0036 514A     		ldr	r2, .L68+4
 968 0038 D368     		ldr	r3, [r2, #12]
 861:Drivers/display_ILI-93xx_sm/lcd.c **** #else
 969              		.loc 1 861 27 view .LVU292
 970 003a 23F48763 		bic	r3, r3, #1080
 971 003e 1B04     		lsls	r3, r3, #16
 972 0040 1B0C     		lsrs	r3, r3, #16
 861:Drivers/display_ILI-93xx_sm/lcd.c **** #else
 973              		.loc 1 861 45 view .LVU293
 974 0042 00F00806 		and	r6, r0, #8
 861:Drivers/display_ILI-93xx_sm/lcd.c **** #else
 975              		.loc 1 861 37 view .LVU294
 976 0046 3343     		orrs	r3, r3, r6
 861:Drivers/display_ILI-93xx_sm/lcd.c **** #else
 977              		.loc 1 861 70 view .LVU295
 978 0048 05F02005 		and	r5, r5, #32
 861:Drivers/display_ILI-93xx_sm/lcd.c **** #else
 979              		.loc 1 861 53 view .LVU296
 980 004c 2B43     		orrs	r3, r3, r5
 861:Drivers/display_ILI-93xx_sm/lcd.c **** #else
 981              		.loc 1 861 93 view .LVU297
 982 004e 4510     		asrs	r5, r0, #1
 983 0050 05F01005 		and	r5, r5, #16
 861:Drivers/display_ILI-93xx_sm/lcd.c **** #else
 984              		.loc 1 861 76 view .LVU298
 985 0054 2B43     		orrs	r3, r3, r5
 861:Drivers/display_ILI-93xx_sm/lcd.c **** #else
 986              		.loc 1 861 116 view .LVU299
 987 0056 0001     		lsls	r0, r0, #4
 988              	.LVL50:
 861:Drivers/display_ILI-93xx_sm/lcd.c **** #else
 989              		.loc 1 861 116 view .LVU300
 990 0058 00F48060 		and	r0, r0, #1024
 861:Drivers/display_ILI-93xx_sm/lcd.c **** #else
 991              		.loc 1 861 99 view .LVU301
 992 005c 0343     		orrs	r3, r3, r0
ARM GAS  /tmp/cc47Teva.s 			page 37


 861:Drivers/display_ILI-93xx_sm/lcd.c **** #else
 993              		.loc 1 861 13 view .LVU302
 994 005e D360     		str	r3, [r2, #12]
 869:Drivers/display_ILI-93xx_sm/lcd.c **** }
 995              		.loc 1 869 2 is_stmt 1 view .LVU303
 869:Drivers/display_ILI-93xx_sm/lcd.c **** }
 996              		.loc 1 869 2 view .LVU304
 997 0060 4FF40033 		mov	r3, #131072
 998 0064 2361     		str	r3, [r4, #16]
 869:Drivers/display_ILI-93xx_sm/lcd.c **** }
 999              		.loc 1 869 2 view .LVU305
 1000              	.LVL51:
 1001              	.LBB105:
 1002              	.LBI105:
 668:Drivers/display_ILI-93xx_sm/lcd.c **** 	for (; t; t--) __asm("nop");
 1003              		.loc 1 668 13 view .LVU306
 1004              	.LBB106:
 669:Drivers/display_ILI-93xx_sm/lcd.c **** }
 1005              		.loc 1 669 2 view .LVU307
 1006              	.LBE106:
 1007              	.LBE105:
 869:Drivers/display_ILI-93xx_sm/lcd.c **** }
 1008              		.loc 1 869 2 is_stmt 0 view .LVU308
 1009 0066 0223     		movs	r3, #2
 1010              	.LVL52:
 1011              	.L49:
 1012              	.LBB108:
 1013              	.LBB107:
 669:Drivers/display_ILI-93xx_sm/lcd.c **** }
 1014              		.loc 1 669 2 view .LVU309
 1015 0068 13B1     		cbz	r3, .L62
 669:Drivers/display_ILI-93xx_sm/lcd.c **** }
 1016              		.loc 1 669 17 is_stmt 1 view .LVU310
 1017              		.syntax unified
 1018              	@ 669 "Drivers/display_ILI-93xx_sm/lcd.c" 1
 1019 006a 00BF     		nop
 1020              	@ 0 "" 2
 669:Drivers/display_ILI-93xx_sm/lcd.c **** }
 1021              		.loc 1 669 13 is_stmt 0 view .LVU311
 1022              		.thumb
 1023              		.syntax unified
 1024 006c 013B     		subs	r3, r3, #1
 1025              	.LVL53:
 669:Drivers/display_ILI-93xx_sm/lcd.c **** }
 1026              		.loc 1 669 13 view .LVU312
 1027 006e FBE7     		b	.L49
 1028              	.L62:
 1029              	.LVL54:
 669:Drivers/display_ILI-93xx_sm/lcd.c **** }
 1030              		.loc 1 669 13 view .LVU313
 1031              	.LBE107:
 1032              	.LBE108:
 869:Drivers/display_ILI-93xx_sm/lcd.c **** }
 1033              		.loc 1 869 2 is_stmt 1 view .LVU314
 1034 0070 0223     		movs	r3, #2
 1035 0072 414A     		ldr	r2, .L68
 1036 0074 1361     		str	r3, [r2, #16]
ARM GAS  /tmp/cc47Teva.s 			page 38


 869:Drivers/display_ILI-93xx_sm/lcd.c **** }
 1037              		.loc 1 869 2 view .LVU315
 1038              	.LVL55:
 1039              	.LBB109:
 1040              	.LBI109:
 668:Drivers/display_ILI-93xx_sm/lcd.c **** 	for (; t; t--) __asm("nop");
 1041              		.loc 1 668 13 view .LVU316
 1042              	.L51:
 1043              	.LBB110:
 669:Drivers/display_ILI-93xx_sm/lcd.c **** }
 1044              		.loc 1 669 2 is_stmt 0 view .LVU317
 1045 0076 13B1     		cbz	r3, .L63
 669:Drivers/display_ILI-93xx_sm/lcd.c **** }
 1046              		.loc 1 669 17 is_stmt 1 view .LVU318
 1047              		.syntax unified
 1048              	@ 669 "Drivers/display_ILI-93xx_sm/lcd.c" 1
 1049 0078 00BF     		nop
 1050              	@ 0 "" 2
 669:Drivers/display_ILI-93xx_sm/lcd.c **** }
 1051              		.loc 1 669 13 is_stmt 0 view .LVU319
 1052              		.thumb
 1053              		.syntax unified
 1054 007a 013B     		subs	r3, r3, #1
 1055              	.LVL56:
 669:Drivers/display_ILI-93xx_sm/lcd.c **** }
 1056              		.loc 1 669 13 view .LVU320
 1057 007c FBE7     		b	.L51
 1058              	.L63:
 1059              	.LVL57:
 669:Drivers/display_ILI-93xx_sm/lcd.c **** }
 1060              		.loc 1 669 13 view .LVU321
 1061              	.LBE110:
 1062              	.LBE109:
 1063              	.LBE104:
 1064              	.LBE103:
 933:Drivers/display_ILI-93xx_sm/lcd.c **** 	LCD_CD_DATA();
 1065              		.loc 1 933 2 is_stmt 1 view .LVU322
 1066 007e 3E4C     		ldr	r4, .L68
 1067 0080 1023     		movs	r3, #16
 1068 0082 2361     		str	r3, [r4, #16]
 934:Drivers/display_ILI-93xx_sm/lcd.c **** 	LCD_Write8(d >> 8);
 1069              		.loc 1 934 2 view .LVU323
 1070 0084 0B0A     		lsrs	r3, r1, #8
 1071              	.LBB111:
 1072              	.LBI111:
 847:Drivers/display_ILI-93xx_sm/lcd.c **** 	// ------ PORT -----     --- Data ----
 1073              		.loc 1 847 13 view .LVU324
 1074              	.LBB112:
 860:Drivers/display_ILI-93xx_sm/lcd.c **** 	GPIOB->ODR = (GPIOB->ODR & 0xFBC7) | (data & 0x08) | ((data & 0x10) << 1) | ((data & 0x20) >> 1) |
 1075              		.loc 1 860 2 view .LVU325
 860:Drivers/display_ILI-93xx_sm/lcd.c **** 	GPIOB->ODR = (GPIOB->ODR & 0xFBC7) | (data & 0x08) | ((data & 0x10) << 1) | ((data & 0x20) >> 1) |
 1076              		.loc 1 860 21 is_stmt 0 view .LVU326
 1077 0086 E068     		ldr	r0, [r4, #12]
 860:Drivers/display_ILI-93xx_sm/lcd.c **** 	GPIOB->ODR = (GPIOB->ODR & 0xFBC7) | (data & 0x08) | ((data & 0x10) << 1) | ((data & 0x20) >> 1) |
 1078              		.loc 1 860 27 view .LVU327
 1079 0088 20F4F060 		bic	r0, r0, #1920
 1080 008c 0004     		lsls	r0, r0, #16
ARM GAS  /tmp/cc47Teva.s 			page 39


 1081 008e 000C     		lsrs	r0, r0, #16
 860:Drivers/display_ILI-93xx_sm/lcd.c **** 	GPIOB->ODR = (GPIOB->ODR & 0xFBC7) | (data & 0x08) | ((data & 0x10) << 1) | ((data & 0x20) >> 1) |
 1082              		.loc 1 860 54 view .LVU328
 1083 0090 5A02     		lsls	r2, r3, #9
 1084 0092 02F40072 		and	r2, r2, #512
 860:Drivers/display_ILI-93xx_sm/lcd.c **** 	GPIOB->ODR = (GPIOB->ODR & 0xFBC7) | (data & 0x08) | ((data & 0x10) << 1) | ((data & 0x20) >> 1) |
 1085              		.loc 1 860 37 view .LVU329
 1086 0096 1043     		orrs	r0, r0, r2
 860:Drivers/display_ILI-93xx_sm/lcd.c **** 	GPIOB->ODR = (GPIOB->ODR & 0xFBC7) | (data & 0x08) | ((data & 0x10) << 1) | ((data & 0x20) >> 1) |
 1087              		.loc 1 860 77 view .LVU330
 1088 0098 1A02     		lsls	r2, r3, #8
 1089 009a 02F48062 		and	r2, r2, #1024
 860:Drivers/display_ILI-93xx_sm/lcd.c **** 	GPIOB->ODR = (GPIOB->ODR & 0xFBC7) | (data & 0x08) | ((data & 0x10) << 1) | ((data & 0x20) >> 1) |
 1090              		.loc 1 860 60 view .LVU331
 1091 009e 1043     		orrs	r0, r0, r2
 860:Drivers/display_ILI-93xx_sm/lcd.c **** 	GPIOB->ODR = (GPIOB->ODR & 0xFBC7) | (data & 0x08) | ((data & 0x10) << 1) | ((data & 0x20) >> 1) |
 1092              		.loc 1 860 100 view .LVU332
 1093 00a0 5D00     		lsls	r5, r3, #1
 1094 00a2 05F48072 		and	r2, r5, #256
 860:Drivers/display_ILI-93xx_sm/lcd.c **** 	GPIOB->ODR = (GPIOB->ODR & 0xFBC7) | (data & 0x08) | ((data & 0x10) << 1) | ((data & 0x20) >> 1) |
 1095              		.loc 1 860 83 view .LVU333
 1096 00a6 1043     		orrs	r0, r0, r2
 860:Drivers/display_ILI-93xx_sm/lcd.c **** 	GPIOB->ODR = (GPIOB->ODR & 0xFBC7) | (data & 0x08) | ((data & 0x10) << 1) | ((data & 0x20) >> 1) |
 1097              		.loc 1 860 123 view .LVU334
 1098 00a8 9A01     		lsls	r2, r3, #6
 1099 00aa 02F08002 		and	r2, r2, #128
 860:Drivers/display_ILI-93xx_sm/lcd.c **** 	GPIOB->ODR = (GPIOB->ODR & 0xFBC7) | (data & 0x08) | ((data & 0x10) << 1) | ((data & 0x20) >> 1) |
 1100              		.loc 1 860 106 view .LVU335
 1101 00ae 1043     		orrs	r0, r0, r2
 860:Drivers/display_ILI-93xx_sm/lcd.c **** 	GPIOB->ODR = (GPIOB->ODR & 0xFBC7) | (data & 0x08) | ((data & 0x10) << 1) | ((data & 0x20) >> 1) |
 1102              		.loc 1 860 13 view .LVU336
 1103 00b0 E060     		str	r0, [r4, #12]
 861:Drivers/display_ILI-93xx_sm/lcd.c **** #else
 1104              		.loc 1 861 2 is_stmt 1 view .LVU337
 861:Drivers/display_ILI-93xx_sm/lcd.c **** #else
 1105              		.loc 1 861 21 is_stmt 0 view .LVU338
 1106 00b2 3248     		ldr	r0, .L68+4
 1107 00b4 C268     		ldr	r2, [r0, #12]
 861:Drivers/display_ILI-93xx_sm/lcd.c **** #else
 1108              		.loc 1 861 27 view .LVU339
 1109 00b6 22F48762 		bic	r2, r2, #1080
 1110 00ba 1204     		lsls	r2, r2, #16
 1111 00bc 120C     		lsrs	r2, r2, #16
 861:Drivers/display_ILI-93xx_sm/lcd.c **** #else
 1112              		.loc 1 861 45 view .LVU340
 1113 00be 03F00806 		and	r6, r3, #8
 861:Drivers/display_ILI-93xx_sm/lcd.c **** #else
 1114              		.loc 1 861 37 view .LVU341
 1115 00c2 3243     		orrs	r2, r2, r6
 861:Drivers/display_ILI-93xx_sm/lcd.c **** #else
 1116              		.loc 1 861 70 view .LVU342
 1117 00c4 05F02005 		and	r5, r5, #32
 861:Drivers/display_ILI-93xx_sm/lcd.c **** #else
 1118              		.loc 1 861 53 view .LVU343
 1119 00c8 2A43     		orrs	r2, r2, r5
 861:Drivers/display_ILI-93xx_sm/lcd.c **** #else
 1120              		.loc 1 861 93 view .LVU344
ARM GAS  /tmp/cc47Teva.s 			page 40


 1121 00ca 5D10     		asrs	r5, r3, #1
 1122 00cc 05F01005 		and	r5, r5, #16
 861:Drivers/display_ILI-93xx_sm/lcd.c **** #else
 1123              		.loc 1 861 76 view .LVU345
 1124 00d0 2A43     		orrs	r2, r2, r5
 861:Drivers/display_ILI-93xx_sm/lcd.c **** #else
 1125              		.loc 1 861 116 view .LVU346
 1126 00d2 1B01     		lsls	r3, r3, #4
 1127 00d4 03F48063 		and	r3, r3, #1024
 861:Drivers/display_ILI-93xx_sm/lcd.c **** #else
 1128              		.loc 1 861 99 view .LVU347
 1129 00d8 1A43     		orrs	r2, r2, r3
 861:Drivers/display_ILI-93xx_sm/lcd.c **** #else
 1130              		.loc 1 861 13 view .LVU348
 1131 00da C260     		str	r2, [r0, #12]
 869:Drivers/display_ILI-93xx_sm/lcd.c **** }
 1132              		.loc 1 869 2 is_stmt 1 view .LVU349
 869:Drivers/display_ILI-93xx_sm/lcd.c **** }
 1133              		.loc 1 869 2 view .LVU350
 1134 00dc 4FF40033 		mov	r3, #131072
 1135 00e0 2361     		str	r3, [r4, #16]
 869:Drivers/display_ILI-93xx_sm/lcd.c **** }
 1136              		.loc 1 869 2 view .LVU351
 1137              	.LVL58:
 1138              	.LBB113:
 1139              	.LBI113:
 668:Drivers/display_ILI-93xx_sm/lcd.c **** 	for (; t; t--) __asm("nop");
 1140              		.loc 1 668 13 view .LVU352
 1141              	.LBB114:
 669:Drivers/display_ILI-93xx_sm/lcd.c **** }
 1142              		.loc 1 669 2 view .LVU353
 1143              	.LBE114:
 1144              	.LBE113:
 869:Drivers/display_ILI-93xx_sm/lcd.c **** }
 1145              		.loc 1 869 2 is_stmt 0 view .LVU354
 1146 00e2 0223     		movs	r3, #2
 1147              	.LVL59:
 1148              	.L53:
 1149              	.LBB116:
 1150              	.LBB115:
 669:Drivers/display_ILI-93xx_sm/lcd.c **** }
 1151              		.loc 1 669 2 view .LVU355
 1152 00e4 13B1     		cbz	r3, .L64
 669:Drivers/display_ILI-93xx_sm/lcd.c **** }
 1153              		.loc 1 669 17 is_stmt 1 view .LVU356
 1154              		.syntax unified
 1155              	@ 669 "Drivers/display_ILI-93xx_sm/lcd.c" 1
 1156 00e6 00BF     		nop
 1157              	@ 0 "" 2
 669:Drivers/display_ILI-93xx_sm/lcd.c **** }
 1158              		.loc 1 669 13 is_stmt 0 view .LVU357
 1159              		.thumb
 1160              		.syntax unified
 1161 00e8 013B     		subs	r3, r3, #1
 1162              	.LVL60:
 669:Drivers/display_ILI-93xx_sm/lcd.c **** }
 1163              		.loc 1 669 13 view .LVU358
ARM GAS  /tmp/cc47Teva.s 			page 41


 1164 00ea FBE7     		b	.L53
 1165              	.L64:
 1166              	.LVL61:
 669:Drivers/display_ILI-93xx_sm/lcd.c **** }
 1167              		.loc 1 669 13 view .LVU359
 1168              	.LBE115:
 1169              	.LBE116:
 869:Drivers/display_ILI-93xx_sm/lcd.c **** }
 1170              		.loc 1 869 2 is_stmt 1 view .LVU360
 1171 00ec 0223     		movs	r3, #2
 1172 00ee 224A     		ldr	r2, .L68
 1173 00f0 1361     		str	r3, [r2, #16]
 869:Drivers/display_ILI-93xx_sm/lcd.c **** }
 1174              		.loc 1 869 2 view .LVU361
 1175              	.LVL62:
 1176              	.LBB117:
 1177              	.LBI117:
 668:Drivers/display_ILI-93xx_sm/lcd.c **** 	for (; t; t--) __asm("nop");
 1178              		.loc 1 668 13 view .LVU362
 1179              	.L55:
 1180              	.LBB118:
 669:Drivers/display_ILI-93xx_sm/lcd.c **** }
 1181              		.loc 1 669 2 is_stmt 0 view .LVU363
 1182 00f2 13B1     		cbz	r3, .L65
 669:Drivers/display_ILI-93xx_sm/lcd.c **** }
 1183              		.loc 1 669 17 is_stmt 1 view .LVU364
 1184              		.syntax unified
 1185              	@ 669 "Drivers/display_ILI-93xx_sm/lcd.c" 1
 1186 00f4 00BF     		nop
 1187              	@ 0 "" 2
 669:Drivers/display_ILI-93xx_sm/lcd.c **** }
 1188              		.loc 1 669 13 is_stmt 0 view .LVU365
 1189              		.thumb
 1190              		.syntax unified
 1191 00f6 013B     		subs	r3, r3, #1
 1192              	.LVL63:
 669:Drivers/display_ILI-93xx_sm/lcd.c **** }
 1193              		.loc 1 669 13 view .LVU366
 1194 00f8 FBE7     		b	.L55
 1195              	.L65:
 1196              	.LVL64:
 669:Drivers/display_ILI-93xx_sm/lcd.c **** }
 1197              		.loc 1 669 13 view .LVU367
 1198              	.LBE118:
 1199              	.LBE117:
 1200              	.LBE112:
 1201              	.LBE111:
 935:Drivers/display_ILI-93xx_sm/lcd.c **** 	LCD_Write8(d);
 1202              		.loc 1 935 2 is_stmt 1 view .LVU368
 1203 00fa C9B2     		uxtb	r1, r1
 1204              	.LVL65:
 1205              	.LBB119:
 1206              	.LBI119:
 847:Drivers/display_ILI-93xx_sm/lcd.c **** 	// ------ PORT -----     --- Data ----
 1207              		.loc 1 847 13 view .LVU369
 1208              	.LBB120:
 860:Drivers/display_ILI-93xx_sm/lcd.c **** 	GPIOB->ODR = (GPIOB->ODR & 0xFBC7) | (data & 0x08) | ((data & 0x10) << 1) | ((data & 0x20) >> 1) |
ARM GAS  /tmp/cc47Teva.s 			page 42


 1209              		.loc 1 860 2 view .LVU370
 860:Drivers/display_ILI-93xx_sm/lcd.c **** 	GPIOB->ODR = (GPIOB->ODR & 0xFBC7) | (data & 0x08) | ((data & 0x10) << 1) | ((data & 0x20) >> 1) |
 1210              		.loc 1 860 21 is_stmt 0 view .LVU371
 1211 00fc 1E48     		ldr	r0, .L68
 1212 00fe C268     		ldr	r2, [r0, #12]
 860:Drivers/display_ILI-93xx_sm/lcd.c **** 	GPIOB->ODR = (GPIOB->ODR & 0xFBC7) | (data & 0x08) | ((data & 0x10) << 1) | ((data & 0x20) >> 1) |
 1213              		.loc 1 860 27 view .LVU372
 1214 0100 22F4F062 		bic	r2, r2, #1920
 1215 0104 1204     		lsls	r2, r2, #16
 1216 0106 120C     		lsrs	r2, r2, #16
 860:Drivers/display_ILI-93xx_sm/lcd.c **** 	GPIOB->ODR = (GPIOB->ODR & 0xFBC7) | (data & 0x08) | ((data & 0x10) << 1) | ((data & 0x20) >> 1) |
 1217              		.loc 1 860 54 view .LVU373
 1218 0108 4B02     		lsls	r3, r1, #9
 1219 010a 03F40073 		and	r3, r3, #512
 860:Drivers/display_ILI-93xx_sm/lcd.c **** 	GPIOB->ODR = (GPIOB->ODR & 0xFBC7) | (data & 0x08) | ((data & 0x10) << 1) | ((data & 0x20) >> 1) |
 1220              		.loc 1 860 37 view .LVU374
 1221 010e 1A43     		orrs	r2, r2, r3
 860:Drivers/display_ILI-93xx_sm/lcd.c **** 	GPIOB->ODR = (GPIOB->ODR & 0xFBC7) | (data & 0x08) | ((data & 0x10) << 1) | ((data & 0x20) >> 1) |
 1222              		.loc 1 860 77 view .LVU375
 1223 0110 0B02     		lsls	r3, r1, #8
 1224 0112 03F48063 		and	r3, r3, #1024
 860:Drivers/display_ILI-93xx_sm/lcd.c **** 	GPIOB->ODR = (GPIOB->ODR & 0xFBC7) | (data & 0x08) | ((data & 0x10) << 1) | ((data & 0x20) >> 1) |
 1225              		.loc 1 860 60 view .LVU376
 1226 0116 1A43     		orrs	r2, r2, r3
 860:Drivers/display_ILI-93xx_sm/lcd.c **** 	GPIOB->ODR = (GPIOB->ODR & 0xFBC7) | (data & 0x08) | ((data & 0x10) << 1) | ((data & 0x20) >> 1) |
 1227              		.loc 1 860 100 view .LVU377
 1228 0118 4C00     		lsls	r4, r1, #1
 1229 011a 04F48073 		and	r3, r4, #256
 860:Drivers/display_ILI-93xx_sm/lcd.c **** 	GPIOB->ODR = (GPIOB->ODR & 0xFBC7) | (data & 0x08) | ((data & 0x10) << 1) | ((data & 0x20) >> 1) |
 1230              		.loc 1 860 83 view .LVU378
 1231 011e 1A43     		orrs	r2, r2, r3
 860:Drivers/display_ILI-93xx_sm/lcd.c **** 	GPIOB->ODR = (GPIOB->ODR & 0xFBC7) | (data & 0x08) | ((data & 0x10) << 1) | ((data & 0x20) >> 1) |
 1232              		.loc 1 860 123 view .LVU379
 1233 0120 8B01     		lsls	r3, r1, #6
 1234 0122 03F08003 		and	r3, r3, #128
 860:Drivers/display_ILI-93xx_sm/lcd.c **** 	GPIOB->ODR = (GPIOB->ODR & 0xFBC7) | (data & 0x08) | ((data & 0x10) << 1) | ((data & 0x20) >> 1) |
 1235              		.loc 1 860 106 view .LVU380
 1236 0126 1A43     		orrs	r2, r2, r3
 860:Drivers/display_ILI-93xx_sm/lcd.c **** 	GPIOB->ODR = (GPIOB->ODR & 0xFBC7) | (data & 0x08) | ((data & 0x10) << 1) | ((data & 0x20) >> 1) |
 1237              		.loc 1 860 13 view .LVU381
 1238 0128 C260     		str	r2, [r0, #12]
 861:Drivers/display_ILI-93xx_sm/lcd.c **** #else
 1239              		.loc 1 861 2 is_stmt 1 view .LVU382
 861:Drivers/display_ILI-93xx_sm/lcd.c **** #else
 1240              		.loc 1 861 21 is_stmt 0 view .LVU383
 1241 012a 144D     		ldr	r5, .L68+4
 1242 012c EB68     		ldr	r3, [r5, #12]
 861:Drivers/display_ILI-93xx_sm/lcd.c **** #else
 1243              		.loc 1 861 27 view .LVU384
 1244 012e 23F48763 		bic	r3, r3, #1080
 1245 0132 1B04     		lsls	r3, r3, #16
 1246 0134 1B0C     		lsrs	r3, r3, #16
 861:Drivers/display_ILI-93xx_sm/lcd.c **** #else
 1247              		.loc 1 861 45 view .LVU385
 1248 0136 01F00802 		and	r2, r1, #8
 861:Drivers/display_ILI-93xx_sm/lcd.c **** #else
 1249              		.loc 1 861 37 view .LVU386
ARM GAS  /tmp/cc47Teva.s 			page 43


 1250 013a 1343     		orrs	r3, r3, r2
 861:Drivers/display_ILI-93xx_sm/lcd.c **** #else
 1251              		.loc 1 861 70 view .LVU387
 1252 013c 04F02004 		and	r4, r4, #32
 861:Drivers/display_ILI-93xx_sm/lcd.c **** #else
 1253              		.loc 1 861 53 view .LVU388
 1254 0140 2343     		orrs	r3, r3, r4
 861:Drivers/display_ILI-93xx_sm/lcd.c **** #else
 1255              		.loc 1 861 93 view .LVU389
 1256 0142 4A10     		asrs	r2, r1, #1
 1257 0144 02F01002 		and	r2, r2, #16
 861:Drivers/display_ILI-93xx_sm/lcd.c **** #else
 1258              		.loc 1 861 76 view .LVU390
 1259 0148 1343     		orrs	r3, r3, r2
 861:Drivers/display_ILI-93xx_sm/lcd.c **** #else
 1260              		.loc 1 861 116 view .LVU391
 1261 014a 0901     		lsls	r1, r1, #4
 1262              	.LVL66:
 861:Drivers/display_ILI-93xx_sm/lcd.c **** #else
 1263              		.loc 1 861 116 view .LVU392
 1264 014c 01F48061 		and	r1, r1, #1024
 861:Drivers/display_ILI-93xx_sm/lcd.c **** #else
 1265              		.loc 1 861 99 view .LVU393
 1266 0150 0B43     		orrs	r3, r3, r1
 861:Drivers/display_ILI-93xx_sm/lcd.c **** #else
 1267              		.loc 1 861 13 view .LVU394
 1268 0152 EB60     		str	r3, [r5, #12]
 869:Drivers/display_ILI-93xx_sm/lcd.c **** }
 1269              		.loc 1 869 2 is_stmt 1 view .LVU395
 869:Drivers/display_ILI-93xx_sm/lcd.c **** }
 1270              		.loc 1 869 2 view .LVU396
 1271 0154 4FF40033 		mov	r3, #131072
 1272 0158 0361     		str	r3, [r0, #16]
 869:Drivers/display_ILI-93xx_sm/lcd.c **** }
 1273              		.loc 1 869 2 view .LVU397
 1274              	.LVL67:
 1275              	.LBB121:
 1276              	.LBI121:
 668:Drivers/display_ILI-93xx_sm/lcd.c **** 	for (; t; t--) __asm("nop");
 1277              		.loc 1 668 13 view .LVU398
 1278              	.LBB122:
 669:Drivers/display_ILI-93xx_sm/lcd.c **** }
 1279              		.loc 1 669 2 view .LVU399
 1280              	.LBE122:
 1281              	.LBE121:
 869:Drivers/display_ILI-93xx_sm/lcd.c **** }
 1282              		.loc 1 869 2 is_stmt 0 view .LVU400
 1283 015a 0223     		movs	r3, #2
 1284              	.LVL68:
 1285              	.L57:
 1286              	.LBB124:
 1287              	.LBB123:
 669:Drivers/display_ILI-93xx_sm/lcd.c **** }
 1288              		.loc 1 669 2 view .LVU401
 1289 015c 13B1     		cbz	r3, .L66
 669:Drivers/display_ILI-93xx_sm/lcd.c **** }
 1290              		.loc 1 669 17 is_stmt 1 view .LVU402
ARM GAS  /tmp/cc47Teva.s 			page 44


 1291              		.syntax unified
 1292              	@ 669 "Drivers/display_ILI-93xx_sm/lcd.c" 1
 1293 015e 00BF     		nop
 1294              	@ 0 "" 2
 669:Drivers/display_ILI-93xx_sm/lcd.c **** }
 1295              		.loc 1 669 13 is_stmt 0 view .LVU403
 1296              		.thumb
 1297              		.syntax unified
 1298 0160 013B     		subs	r3, r3, #1
 1299              	.LVL69:
 669:Drivers/display_ILI-93xx_sm/lcd.c **** }
 1300              		.loc 1 669 13 view .LVU404
 1301 0162 FBE7     		b	.L57
 1302              	.L66:
 1303              	.LVL70:
 669:Drivers/display_ILI-93xx_sm/lcd.c **** }
 1304              		.loc 1 669 13 view .LVU405
 1305              	.LBE123:
 1306              	.LBE124:
 869:Drivers/display_ILI-93xx_sm/lcd.c **** }
 1307              		.loc 1 869 2 is_stmt 1 view .LVU406
 1308 0164 0223     		movs	r3, #2
 1309 0166 044A     		ldr	r2, .L68
 1310 0168 1361     		str	r3, [r2, #16]
 869:Drivers/display_ILI-93xx_sm/lcd.c **** }
 1311              		.loc 1 869 2 view .LVU407
 1312              	.LVL71:
 1313              	.LBB125:
 1314              	.LBI125:
 668:Drivers/display_ILI-93xx_sm/lcd.c **** 	for (; t; t--) __asm("nop");
 1315              		.loc 1 668 13 view .LVU408
 1316              	.L59:
 1317              	.LBB126:
 669:Drivers/display_ILI-93xx_sm/lcd.c **** }
 1318              		.loc 1 669 2 is_stmt 0 view .LVU409
 1319 016a 13B1     		cbz	r3, .L67
 669:Drivers/display_ILI-93xx_sm/lcd.c **** }
 1320              		.loc 1 669 17 is_stmt 1 view .LVU410
 1321              		.syntax unified
 1322              	@ 669 "Drivers/display_ILI-93xx_sm/lcd.c" 1
 1323 016c 00BF     		nop
 1324              	@ 0 "" 2
 669:Drivers/display_ILI-93xx_sm/lcd.c **** }
 1325              		.loc 1 669 13 is_stmt 0 view .LVU411
 1326              		.thumb
 1327              		.syntax unified
 1328 016e 013B     		subs	r3, r3, #1
 1329              	.LVL72:
 669:Drivers/display_ILI-93xx_sm/lcd.c **** }
 1330              		.loc 1 669 13 view .LVU412
 1331 0170 FBE7     		b	.L59
 1332              	.L67:
 669:Drivers/display_ILI-93xx_sm/lcd.c **** }
 1333              		.loc 1 669 13 view .LVU413
 1334              	.LBE126:
 1335              	.LBE125:
 1336              	.LBE120:
ARM GAS  /tmp/cc47Teva.s 			page 45


 1337              	.LBE119:
 936:Drivers/display_ILI-93xx_sm/lcd.c **** }
 1338              		.loc 1 936 1 view .LVU414
 1339 0172 70BC     		pop	{r4, r5, r6}
 1340              	.LCFI8:
 1341              		.cfi_restore 6
 1342              		.cfi_restore 5
 1343              		.cfi_restore 4
 1344              		.cfi_def_cfa_offset 0
 1345 0174 7047     		bx	lr
 1346              	.L69:
 1347 0176 00BF     		.align	2
 1348              	.L68:
 1349 0178 00080140 		.word	1073809408
 1350 017c 000C0140 		.word	1073810432
 1351              		.cfi_endproc
 1352              	.LFE73:
 1354              		.section	.text.LCD_Write24Register8,"ax",%progbits
 1355              		.align	1
 1356              		.global	LCD_Write24Register8
 1357              		.syntax unified
 1358              		.thumb
 1359              		.thumb_func
 1360              		.fpu softvfp
 1362              	LCD_Write24Register8:
 1363              	.LVL73:
 1364              	.LFB74:
 937:Drivers/display_ILI-93xx_sm/lcd.c **** 
 938:Drivers/display_ILI-93xx_sm/lcd.c **** /**
 939:Drivers/display_ILI-93xx_sm/lcd.c ****  * \brief Writes 24-Bit data to register (8-bit address)
 940:Drivers/display_ILI-93xx_sm/lcd.c ****  *
 941:Drivers/display_ILI-93xx_sm/lcd.c ****  * \param a		Register
 942:Drivers/display_ILI-93xx_sm/lcd.c ****  * \param d		Data
 943:Drivers/display_ILI-93xx_sm/lcd.c ****  *
 944:Drivers/display_ILI-93xx_sm/lcd.c ****  * \return void
 945:Drivers/display_ILI-93xx_sm/lcd.c ****  */
 946:Drivers/display_ILI-93xx_sm/lcd.c **** inline void LCD_Write24Register8(uint8_t a, uint32_t d) {
 1365              		.loc 1 946 57 is_stmt 1 view -0
 1366              		.cfi_startproc
 1367              		@ args = 0, pretend = 0, frame = 0
 1368              		@ frame_needed = 0, uses_anonymous_args = 0
 1369              		@ link register save eliminated.
 1370              		.loc 1 946 57 is_stmt 0 view .LVU416
 1371 0000 70B4     		push	{r4, r5, r6}
 1372              	.LCFI9:
 1373              		.cfi_def_cfa_offset 12
 1374              		.cfi_offset 4, -12
 1375              		.cfi_offset 5, -8
 1376              		.cfi_offset 6, -4
 947:Drivers/display_ILI-93xx_sm/lcd.c **** 	LCD_CD_COMMAND();
 1377              		.loc 1 947 2 is_stmt 1 view .LVU417
 1378 0002 7C4C     		ldr	r4, .L95
 1379 0004 4FF48013 		mov	r3, #1048576
 1380 0008 2361     		str	r3, [r4, #16]
 948:Drivers/display_ILI-93xx_sm/lcd.c **** 	LCD_Write8(a);
 1381              		.loc 1 948 2 view .LVU418
 1382              	.LVL74:
ARM GAS  /tmp/cc47Teva.s 			page 46


 1383              	.LBB151:
 1384              	.LBI151:
 847:Drivers/display_ILI-93xx_sm/lcd.c **** 	// ------ PORT -----     --- Data ----
 1385              		.loc 1 847 13 view .LVU419
 1386              	.LBB152:
 860:Drivers/display_ILI-93xx_sm/lcd.c **** 	GPIOB->ODR = (GPIOB->ODR & 0xFBC7) | (data & 0x08) | ((data & 0x10) << 1) | ((data & 0x20) >> 1) |
 1387              		.loc 1 860 2 view .LVU420
 860:Drivers/display_ILI-93xx_sm/lcd.c **** 	GPIOB->ODR = (GPIOB->ODR & 0xFBC7) | (data & 0x08) | ((data & 0x10) << 1) | ((data & 0x20) >> 1) |
 1388              		.loc 1 860 21 is_stmt 0 view .LVU421
 1389 000a E268     		ldr	r2, [r4, #12]
 860:Drivers/display_ILI-93xx_sm/lcd.c **** 	GPIOB->ODR = (GPIOB->ODR & 0xFBC7) | (data & 0x08) | ((data & 0x10) << 1) | ((data & 0x20) >> 1) |
 1390              		.loc 1 860 27 view .LVU422
 1391 000c 22F4F062 		bic	r2, r2, #1920
 1392 0010 1204     		lsls	r2, r2, #16
 1393 0012 120C     		lsrs	r2, r2, #16
 860:Drivers/display_ILI-93xx_sm/lcd.c **** 	GPIOB->ODR = (GPIOB->ODR & 0xFBC7) | (data & 0x08) | ((data & 0x10) << 1) | ((data & 0x20) >> 1) |
 1394              		.loc 1 860 54 view .LVU423
 1395 0014 4302     		lsls	r3, r0, #9
 1396 0016 03F40073 		and	r3, r3, #512
 860:Drivers/display_ILI-93xx_sm/lcd.c **** 	GPIOB->ODR = (GPIOB->ODR & 0xFBC7) | (data & 0x08) | ((data & 0x10) << 1) | ((data & 0x20) >> 1) |
 1397              		.loc 1 860 37 view .LVU424
 1398 001a 1A43     		orrs	r2, r2, r3
 860:Drivers/display_ILI-93xx_sm/lcd.c **** 	GPIOB->ODR = (GPIOB->ODR & 0xFBC7) | (data & 0x08) | ((data & 0x10) << 1) | ((data & 0x20) >> 1) |
 1399              		.loc 1 860 77 view .LVU425
 1400 001c 0302     		lsls	r3, r0, #8
 1401 001e 03F48063 		and	r3, r3, #1024
 860:Drivers/display_ILI-93xx_sm/lcd.c **** 	GPIOB->ODR = (GPIOB->ODR & 0xFBC7) | (data & 0x08) | ((data & 0x10) << 1) | ((data & 0x20) >> 1) |
 1402              		.loc 1 860 60 view .LVU426
 1403 0022 1A43     		orrs	r2, r2, r3
 860:Drivers/display_ILI-93xx_sm/lcd.c **** 	GPIOB->ODR = (GPIOB->ODR & 0xFBC7) | (data & 0x08) | ((data & 0x10) << 1) | ((data & 0x20) >> 1) |
 1404              		.loc 1 860 100 view .LVU427
 1405 0024 4500     		lsls	r5, r0, #1
 1406 0026 05F48073 		and	r3, r5, #256
 860:Drivers/display_ILI-93xx_sm/lcd.c **** 	GPIOB->ODR = (GPIOB->ODR & 0xFBC7) | (data & 0x08) | ((data & 0x10) << 1) | ((data & 0x20) >> 1) |
 1407              		.loc 1 860 83 view .LVU428
 1408 002a 1A43     		orrs	r2, r2, r3
 860:Drivers/display_ILI-93xx_sm/lcd.c **** 	GPIOB->ODR = (GPIOB->ODR & 0xFBC7) | (data & 0x08) | ((data & 0x10) << 1) | ((data & 0x20) >> 1) |
 1409              		.loc 1 860 123 view .LVU429
 1410 002c 8301     		lsls	r3, r0, #6
 1411 002e 03F08003 		and	r3, r3, #128
 860:Drivers/display_ILI-93xx_sm/lcd.c **** 	GPIOB->ODR = (GPIOB->ODR & 0xFBC7) | (data & 0x08) | ((data & 0x10) << 1) | ((data & 0x20) >> 1) |
 1412              		.loc 1 860 106 view .LVU430
 1413 0032 1A43     		orrs	r2, r2, r3
 860:Drivers/display_ILI-93xx_sm/lcd.c **** 	GPIOB->ODR = (GPIOB->ODR & 0xFBC7) | (data & 0x08) | ((data & 0x10) << 1) | ((data & 0x20) >> 1) |
 1414              		.loc 1 860 13 view .LVU431
 1415 0034 E260     		str	r2, [r4, #12]
 861:Drivers/display_ILI-93xx_sm/lcd.c **** #else
 1416              		.loc 1 861 2 is_stmt 1 view .LVU432
 861:Drivers/display_ILI-93xx_sm/lcd.c **** #else
 1417              		.loc 1 861 21 is_stmt 0 view .LVU433
 1418 0036 704A     		ldr	r2, .L95+4
 1419 0038 D368     		ldr	r3, [r2, #12]
 861:Drivers/display_ILI-93xx_sm/lcd.c **** #else
 1420              		.loc 1 861 27 view .LVU434
 1421 003a 23F48763 		bic	r3, r3, #1080
 1422 003e 1B04     		lsls	r3, r3, #16
 1423 0040 1B0C     		lsrs	r3, r3, #16
ARM GAS  /tmp/cc47Teva.s 			page 47


 861:Drivers/display_ILI-93xx_sm/lcd.c **** #else
 1424              		.loc 1 861 45 view .LVU435
 1425 0042 00F00806 		and	r6, r0, #8
 861:Drivers/display_ILI-93xx_sm/lcd.c **** #else
 1426              		.loc 1 861 37 view .LVU436
 1427 0046 3343     		orrs	r3, r3, r6
 861:Drivers/display_ILI-93xx_sm/lcd.c **** #else
 1428              		.loc 1 861 70 view .LVU437
 1429 0048 05F02005 		and	r5, r5, #32
 861:Drivers/display_ILI-93xx_sm/lcd.c **** #else
 1430              		.loc 1 861 53 view .LVU438
 1431 004c 2B43     		orrs	r3, r3, r5
 861:Drivers/display_ILI-93xx_sm/lcd.c **** #else
 1432              		.loc 1 861 93 view .LVU439
 1433 004e 4510     		asrs	r5, r0, #1
 1434 0050 05F01005 		and	r5, r5, #16
 861:Drivers/display_ILI-93xx_sm/lcd.c **** #else
 1435              		.loc 1 861 76 view .LVU440
 1436 0054 2B43     		orrs	r3, r3, r5
 861:Drivers/display_ILI-93xx_sm/lcd.c **** #else
 1437              		.loc 1 861 116 view .LVU441
 1438 0056 0001     		lsls	r0, r0, #4
 1439              	.LVL75:
 861:Drivers/display_ILI-93xx_sm/lcd.c **** #else
 1440              		.loc 1 861 116 view .LVU442
 1441 0058 00F48060 		and	r0, r0, #1024
 861:Drivers/display_ILI-93xx_sm/lcd.c **** #else
 1442              		.loc 1 861 99 view .LVU443
 1443 005c 0343     		orrs	r3, r3, r0
 861:Drivers/display_ILI-93xx_sm/lcd.c **** #else
 1444              		.loc 1 861 13 view .LVU444
 1445 005e D360     		str	r3, [r2, #12]
 869:Drivers/display_ILI-93xx_sm/lcd.c **** }
 1446              		.loc 1 869 2 is_stmt 1 view .LVU445
 869:Drivers/display_ILI-93xx_sm/lcd.c **** }
 1447              		.loc 1 869 2 view .LVU446
 1448 0060 4FF40033 		mov	r3, #131072
 1449 0064 2361     		str	r3, [r4, #16]
 869:Drivers/display_ILI-93xx_sm/lcd.c **** }
 1450              		.loc 1 869 2 view .LVU447
 1451              	.LVL76:
 1452              	.LBB153:
 1453              	.LBI153:
 668:Drivers/display_ILI-93xx_sm/lcd.c **** 	for (; t; t--) __asm("nop");
 1454              		.loc 1 668 13 view .LVU448
 1455              	.LBB154:
 669:Drivers/display_ILI-93xx_sm/lcd.c **** }
 1456              		.loc 1 669 2 view .LVU449
 1457              	.LBE154:
 1458              	.LBE153:
 869:Drivers/display_ILI-93xx_sm/lcd.c **** }
 1459              		.loc 1 869 2 is_stmt 0 view .LVU450
 1460 0066 0223     		movs	r3, #2
 1461              	.LVL77:
 1462              	.L71:
 1463              	.LBB156:
 1464              	.LBB155:
ARM GAS  /tmp/cc47Teva.s 			page 48


 669:Drivers/display_ILI-93xx_sm/lcd.c **** }
 1465              		.loc 1 669 2 view .LVU451
 1466 0068 13B1     		cbz	r3, .L88
 669:Drivers/display_ILI-93xx_sm/lcd.c **** }
 1467              		.loc 1 669 17 is_stmt 1 view .LVU452
 1468              		.syntax unified
 1469              	@ 669 "Drivers/display_ILI-93xx_sm/lcd.c" 1
 1470 006a 00BF     		nop
 1471              	@ 0 "" 2
 669:Drivers/display_ILI-93xx_sm/lcd.c **** }
 1472              		.loc 1 669 13 is_stmt 0 view .LVU453
 1473              		.thumb
 1474              		.syntax unified
 1475 006c 013B     		subs	r3, r3, #1
 1476              	.LVL78:
 669:Drivers/display_ILI-93xx_sm/lcd.c **** }
 1477              		.loc 1 669 13 view .LVU454
 1478 006e FBE7     		b	.L71
 1479              	.L88:
 1480              	.LVL79:
 669:Drivers/display_ILI-93xx_sm/lcd.c **** }
 1481              		.loc 1 669 13 view .LVU455
 1482              	.LBE155:
 1483              	.LBE156:
 869:Drivers/display_ILI-93xx_sm/lcd.c **** }
 1484              		.loc 1 869 2 is_stmt 1 view .LVU456
 1485 0070 0223     		movs	r3, #2
 1486 0072 604A     		ldr	r2, .L95
 1487 0074 1361     		str	r3, [r2, #16]
 869:Drivers/display_ILI-93xx_sm/lcd.c **** }
 1488              		.loc 1 869 2 view .LVU457
 1489              	.LVL80:
 1490              	.LBB157:
 1491              	.LBI157:
 668:Drivers/display_ILI-93xx_sm/lcd.c **** 	for (; t; t--) __asm("nop");
 1492              		.loc 1 668 13 view .LVU458
 1493              	.L73:
 1494              	.LBB158:
 669:Drivers/display_ILI-93xx_sm/lcd.c **** }
 1495              		.loc 1 669 2 is_stmt 0 view .LVU459
 1496 0076 13B1     		cbz	r3, .L89
 669:Drivers/display_ILI-93xx_sm/lcd.c **** }
 1497              		.loc 1 669 17 is_stmt 1 view .LVU460
 1498              		.syntax unified
 1499              	@ 669 "Drivers/display_ILI-93xx_sm/lcd.c" 1
 1500 0078 00BF     		nop
 1501              	@ 0 "" 2
 669:Drivers/display_ILI-93xx_sm/lcd.c **** }
 1502              		.loc 1 669 13 is_stmt 0 view .LVU461
 1503              		.thumb
 1504              		.syntax unified
 1505 007a 013B     		subs	r3, r3, #1
 1506              	.LVL81:
 669:Drivers/display_ILI-93xx_sm/lcd.c **** }
 1507              		.loc 1 669 13 view .LVU462
 1508 007c FBE7     		b	.L73
 1509              	.L89:
ARM GAS  /tmp/cc47Teva.s 			page 49


 1510              	.LVL82:
 669:Drivers/display_ILI-93xx_sm/lcd.c **** }
 1511              		.loc 1 669 13 view .LVU463
 1512              	.LBE158:
 1513              	.LBE157:
 1514              	.LBE152:
 1515              	.LBE151:
 949:Drivers/display_ILI-93xx_sm/lcd.c **** 	LCD_CD_DATA();
 1516              		.loc 1 949 2 is_stmt 1 view .LVU464
 1517 007e 5D4C     		ldr	r4, .L95
 1518 0080 1023     		movs	r3, #16
 1519 0082 2361     		str	r3, [r4, #16]
 950:Drivers/display_ILI-93xx_sm/lcd.c **** 	LCD_Write8(d >> 16);
 1520              		.loc 1 950 2 view .LVU465
 1521 0084 C1F30743 		ubfx	r3, r1, #16, #8
 1522              	.LBB159:
 1523              	.LBI159:
 847:Drivers/display_ILI-93xx_sm/lcd.c **** 	// ------ PORT -----     --- Data ----
 1524              		.loc 1 847 13 view .LVU466
 1525              	.LBB160:
 860:Drivers/display_ILI-93xx_sm/lcd.c **** 	GPIOB->ODR = (GPIOB->ODR & 0xFBC7) | (data & 0x08) | ((data & 0x10) << 1) | ((data & 0x20) >> 1) |
 1526              		.loc 1 860 2 view .LVU467
 860:Drivers/display_ILI-93xx_sm/lcd.c **** 	GPIOB->ODR = (GPIOB->ODR & 0xFBC7) | (data & 0x08) | ((data & 0x10) << 1) | ((data & 0x20) >> 1) |
 1527              		.loc 1 860 21 is_stmt 0 view .LVU468
 1528 0088 E068     		ldr	r0, [r4, #12]
 860:Drivers/display_ILI-93xx_sm/lcd.c **** 	GPIOB->ODR = (GPIOB->ODR & 0xFBC7) | (data & 0x08) | ((data & 0x10) << 1) | ((data & 0x20) >> 1) |
 1529              		.loc 1 860 27 view .LVU469
 1530 008a 20F4F060 		bic	r0, r0, #1920
 1531 008e 0004     		lsls	r0, r0, #16
 1532 0090 000C     		lsrs	r0, r0, #16
 860:Drivers/display_ILI-93xx_sm/lcd.c **** 	GPIOB->ODR = (GPIOB->ODR & 0xFBC7) | (data & 0x08) | ((data & 0x10) << 1) | ((data & 0x20) >> 1) |
 1533              		.loc 1 860 54 view .LVU470
 1534 0092 5A02     		lsls	r2, r3, #9
 1535 0094 02F40072 		and	r2, r2, #512
 860:Drivers/display_ILI-93xx_sm/lcd.c **** 	GPIOB->ODR = (GPIOB->ODR & 0xFBC7) | (data & 0x08) | ((data & 0x10) << 1) | ((data & 0x20) >> 1) |
 1536              		.loc 1 860 37 view .LVU471
 1537 0098 1043     		orrs	r0, r0, r2
 860:Drivers/display_ILI-93xx_sm/lcd.c **** 	GPIOB->ODR = (GPIOB->ODR & 0xFBC7) | (data & 0x08) | ((data & 0x10) << 1) | ((data & 0x20) >> 1) |
 1538              		.loc 1 860 77 view .LVU472
 1539 009a 1A02     		lsls	r2, r3, #8
 1540 009c 02F48062 		and	r2, r2, #1024
 860:Drivers/display_ILI-93xx_sm/lcd.c **** 	GPIOB->ODR = (GPIOB->ODR & 0xFBC7) | (data & 0x08) | ((data & 0x10) << 1) | ((data & 0x20) >> 1) |
 1541              		.loc 1 860 60 view .LVU473
 1542 00a0 1043     		orrs	r0, r0, r2
 860:Drivers/display_ILI-93xx_sm/lcd.c **** 	GPIOB->ODR = (GPIOB->ODR & 0xFBC7) | (data & 0x08) | ((data & 0x10) << 1) | ((data & 0x20) >> 1) |
 1543              		.loc 1 860 100 view .LVU474
 1544 00a2 5D00     		lsls	r5, r3, #1
 1545 00a4 05F48072 		and	r2, r5, #256
 860:Drivers/display_ILI-93xx_sm/lcd.c **** 	GPIOB->ODR = (GPIOB->ODR & 0xFBC7) | (data & 0x08) | ((data & 0x10) << 1) | ((data & 0x20) >> 1) |
 1546              		.loc 1 860 83 view .LVU475
 1547 00a8 1043     		orrs	r0, r0, r2
 860:Drivers/display_ILI-93xx_sm/lcd.c **** 	GPIOB->ODR = (GPIOB->ODR & 0xFBC7) | (data & 0x08) | ((data & 0x10) << 1) | ((data & 0x20) >> 1) |
 1548              		.loc 1 860 123 view .LVU476
 1549 00aa 9A01     		lsls	r2, r3, #6
 1550 00ac 02F08002 		and	r2, r2, #128
 860:Drivers/display_ILI-93xx_sm/lcd.c **** 	GPIOB->ODR = (GPIOB->ODR & 0xFBC7) | (data & 0x08) | ((data & 0x10) << 1) | ((data & 0x20) >> 1) |
 1551              		.loc 1 860 106 view .LVU477
ARM GAS  /tmp/cc47Teva.s 			page 50


 1552 00b0 1043     		orrs	r0, r0, r2
 860:Drivers/display_ILI-93xx_sm/lcd.c **** 	GPIOB->ODR = (GPIOB->ODR & 0xFBC7) | (data & 0x08) | ((data & 0x10) << 1) | ((data & 0x20) >> 1) |
 1553              		.loc 1 860 13 view .LVU478
 1554 00b2 E060     		str	r0, [r4, #12]
 861:Drivers/display_ILI-93xx_sm/lcd.c **** #else
 1555              		.loc 1 861 2 is_stmt 1 view .LVU479
 861:Drivers/display_ILI-93xx_sm/lcd.c **** #else
 1556              		.loc 1 861 21 is_stmt 0 view .LVU480
 1557 00b4 5048     		ldr	r0, .L95+4
 1558 00b6 C268     		ldr	r2, [r0, #12]
 861:Drivers/display_ILI-93xx_sm/lcd.c **** #else
 1559              		.loc 1 861 27 view .LVU481
 1560 00b8 22F48762 		bic	r2, r2, #1080
 1561 00bc 1204     		lsls	r2, r2, #16
 1562 00be 120C     		lsrs	r2, r2, #16
 861:Drivers/display_ILI-93xx_sm/lcd.c **** #else
 1563              		.loc 1 861 45 view .LVU482
 1564 00c0 03F00806 		and	r6, r3, #8
 861:Drivers/display_ILI-93xx_sm/lcd.c **** #else
 1565              		.loc 1 861 37 view .LVU483
 1566 00c4 3243     		orrs	r2, r2, r6
 861:Drivers/display_ILI-93xx_sm/lcd.c **** #else
 1567              		.loc 1 861 70 view .LVU484
 1568 00c6 05F02005 		and	r5, r5, #32
 861:Drivers/display_ILI-93xx_sm/lcd.c **** #else
 1569              		.loc 1 861 53 view .LVU485
 1570 00ca 2A43     		orrs	r2, r2, r5
 861:Drivers/display_ILI-93xx_sm/lcd.c **** #else
 1571              		.loc 1 861 93 view .LVU486
 1572 00cc 5D10     		asrs	r5, r3, #1
 1573 00ce 05F01005 		and	r5, r5, #16
 861:Drivers/display_ILI-93xx_sm/lcd.c **** #else
 1574              		.loc 1 861 76 view .LVU487
 1575 00d2 2A43     		orrs	r2, r2, r5
 861:Drivers/display_ILI-93xx_sm/lcd.c **** #else
 1576              		.loc 1 861 116 view .LVU488
 1577 00d4 1B01     		lsls	r3, r3, #4
 1578 00d6 03F48063 		and	r3, r3, #1024
 861:Drivers/display_ILI-93xx_sm/lcd.c **** #else
 1579              		.loc 1 861 99 view .LVU489
 1580 00da 1343     		orrs	r3, r3, r2
 861:Drivers/display_ILI-93xx_sm/lcd.c **** #else
 1581              		.loc 1 861 13 view .LVU490
 1582 00dc C360     		str	r3, [r0, #12]
 869:Drivers/display_ILI-93xx_sm/lcd.c **** }
 1583              		.loc 1 869 2 is_stmt 1 view .LVU491
 869:Drivers/display_ILI-93xx_sm/lcd.c **** }
 1584              		.loc 1 869 2 view .LVU492
 1585 00de 4FF40033 		mov	r3, #131072
 1586 00e2 2361     		str	r3, [r4, #16]
 869:Drivers/display_ILI-93xx_sm/lcd.c **** }
 1587              		.loc 1 869 2 view .LVU493
 1588              	.LVL83:
 1589              	.LBB161:
 1590              	.LBI161:
 668:Drivers/display_ILI-93xx_sm/lcd.c **** 	for (; t; t--) __asm("nop");
 1591              		.loc 1 668 13 view .LVU494
ARM GAS  /tmp/cc47Teva.s 			page 51


 1592              	.LBB162:
 669:Drivers/display_ILI-93xx_sm/lcd.c **** }
 1593              		.loc 1 669 2 view .LVU495
 1594              	.LBE162:
 1595              	.LBE161:
 869:Drivers/display_ILI-93xx_sm/lcd.c **** }
 1596              		.loc 1 869 2 is_stmt 0 view .LVU496
 1597 00e4 0223     		movs	r3, #2
 1598              	.LVL84:
 1599              	.L75:
 1600              	.LBB164:
 1601              	.LBB163:
 669:Drivers/display_ILI-93xx_sm/lcd.c **** }
 1602              		.loc 1 669 2 view .LVU497
 1603 00e6 13B1     		cbz	r3, .L90
 669:Drivers/display_ILI-93xx_sm/lcd.c **** }
 1604              		.loc 1 669 17 is_stmt 1 view .LVU498
 1605              		.syntax unified
 1606              	@ 669 "Drivers/display_ILI-93xx_sm/lcd.c" 1
 1607 00e8 00BF     		nop
 1608              	@ 0 "" 2
 669:Drivers/display_ILI-93xx_sm/lcd.c **** }
 1609              		.loc 1 669 13 is_stmt 0 view .LVU499
 1610              		.thumb
 1611              		.syntax unified
 1612 00ea 013B     		subs	r3, r3, #1
 1613              	.LVL85:
 669:Drivers/display_ILI-93xx_sm/lcd.c **** }
 1614              		.loc 1 669 13 view .LVU500
 1615 00ec FBE7     		b	.L75
 1616              	.L90:
 1617              	.LVL86:
 669:Drivers/display_ILI-93xx_sm/lcd.c **** }
 1618              		.loc 1 669 13 view .LVU501
 1619              	.LBE163:
 1620              	.LBE164:
 869:Drivers/display_ILI-93xx_sm/lcd.c **** }
 1621              		.loc 1 869 2 is_stmt 1 view .LVU502
 1622 00ee 0223     		movs	r3, #2
 1623 00f0 404A     		ldr	r2, .L95
 1624 00f2 1361     		str	r3, [r2, #16]
 869:Drivers/display_ILI-93xx_sm/lcd.c **** }
 1625              		.loc 1 869 2 view .LVU503
 1626              	.LVL87:
 1627              	.LBB165:
 1628              	.LBI165:
 668:Drivers/display_ILI-93xx_sm/lcd.c **** 	for (; t; t--) __asm("nop");
 1629              		.loc 1 668 13 view .LVU504
 1630              	.L77:
 1631              	.LBB166:
 669:Drivers/display_ILI-93xx_sm/lcd.c **** }
 1632              		.loc 1 669 2 is_stmt 0 view .LVU505
 1633 00f4 13B1     		cbz	r3, .L91
 669:Drivers/display_ILI-93xx_sm/lcd.c **** }
 1634              		.loc 1 669 17 is_stmt 1 view .LVU506
 1635              		.syntax unified
 1636              	@ 669 "Drivers/display_ILI-93xx_sm/lcd.c" 1
ARM GAS  /tmp/cc47Teva.s 			page 52


 1637 00f6 00BF     		nop
 1638              	@ 0 "" 2
 669:Drivers/display_ILI-93xx_sm/lcd.c **** }
 1639              		.loc 1 669 13 is_stmt 0 view .LVU507
 1640              		.thumb
 1641              		.syntax unified
 1642 00f8 013B     		subs	r3, r3, #1
 1643              	.LVL88:
 669:Drivers/display_ILI-93xx_sm/lcd.c **** }
 1644              		.loc 1 669 13 view .LVU508
 1645 00fa FBE7     		b	.L77
 1646              	.L91:
 1647              	.LVL89:
 669:Drivers/display_ILI-93xx_sm/lcd.c **** }
 1648              		.loc 1 669 13 view .LVU509
 1649              	.LBE166:
 1650              	.LBE165:
 1651              	.LBE160:
 1652              	.LBE159:
 951:Drivers/display_ILI-93xx_sm/lcd.c **** 	LCD_Write8(d >> 8);
 1653              		.loc 1 951 2 is_stmt 1 view .LVU510
 1654 00fc C1F30723 		ubfx	r3, r1, #8, #8
 1655              	.LBB167:
 1656              	.LBI167:
 847:Drivers/display_ILI-93xx_sm/lcd.c **** 	// ------ PORT -----     --- Data ----
 1657              		.loc 1 847 13 view .LVU511
 1658              	.LBB168:
 860:Drivers/display_ILI-93xx_sm/lcd.c **** 	GPIOB->ODR = (GPIOB->ODR & 0xFBC7) | (data & 0x08) | ((data & 0x10) << 1) | ((data & 0x20) >> 1) |
 1659              		.loc 1 860 2 view .LVU512
 860:Drivers/display_ILI-93xx_sm/lcd.c **** 	GPIOB->ODR = (GPIOB->ODR & 0xFBC7) | (data & 0x08) | ((data & 0x10) << 1) | ((data & 0x20) >> 1) |
 1660              		.loc 1 860 21 is_stmt 0 view .LVU513
 1661 0100 3C4C     		ldr	r4, .L95
 1662 0102 E068     		ldr	r0, [r4, #12]
 860:Drivers/display_ILI-93xx_sm/lcd.c **** 	GPIOB->ODR = (GPIOB->ODR & 0xFBC7) | (data & 0x08) | ((data & 0x10) << 1) | ((data & 0x20) >> 1) |
 1663              		.loc 1 860 27 view .LVU514
 1664 0104 20F4F060 		bic	r0, r0, #1920
 1665 0108 0004     		lsls	r0, r0, #16
 1666 010a 000C     		lsrs	r0, r0, #16
 860:Drivers/display_ILI-93xx_sm/lcd.c **** 	GPIOB->ODR = (GPIOB->ODR & 0xFBC7) | (data & 0x08) | ((data & 0x10) << 1) | ((data & 0x20) >> 1) |
 1667              		.loc 1 860 54 view .LVU515
 1668 010c 5A02     		lsls	r2, r3, #9
 1669 010e 02F40072 		and	r2, r2, #512
 860:Drivers/display_ILI-93xx_sm/lcd.c **** 	GPIOB->ODR = (GPIOB->ODR & 0xFBC7) | (data & 0x08) | ((data & 0x10) << 1) | ((data & 0x20) >> 1) |
 1670              		.loc 1 860 37 view .LVU516
 1671 0112 1043     		orrs	r0, r0, r2
 860:Drivers/display_ILI-93xx_sm/lcd.c **** 	GPIOB->ODR = (GPIOB->ODR & 0xFBC7) | (data & 0x08) | ((data & 0x10) << 1) | ((data & 0x20) >> 1) |
 1672              		.loc 1 860 77 view .LVU517
 1673 0114 1A02     		lsls	r2, r3, #8
 1674 0116 02F48062 		and	r2, r2, #1024
 860:Drivers/display_ILI-93xx_sm/lcd.c **** 	GPIOB->ODR = (GPIOB->ODR & 0xFBC7) | (data & 0x08) | ((data & 0x10) << 1) | ((data & 0x20) >> 1) |
 1675              		.loc 1 860 60 view .LVU518
 1676 011a 1043     		orrs	r0, r0, r2
 860:Drivers/display_ILI-93xx_sm/lcd.c **** 	GPIOB->ODR = (GPIOB->ODR & 0xFBC7) | (data & 0x08) | ((data & 0x10) << 1) | ((data & 0x20) >> 1) |
 1677              		.loc 1 860 100 view .LVU519
 1678 011c 5D00     		lsls	r5, r3, #1
 1679 011e 05F48072 		and	r2, r5, #256
 860:Drivers/display_ILI-93xx_sm/lcd.c **** 	GPIOB->ODR = (GPIOB->ODR & 0xFBC7) | (data & 0x08) | ((data & 0x10) << 1) | ((data & 0x20) >> 1) |
ARM GAS  /tmp/cc47Teva.s 			page 53


 1680              		.loc 1 860 83 view .LVU520
 1681 0122 1043     		orrs	r0, r0, r2
 860:Drivers/display_ILI-93xx_sm/lcd.c **** 	GPIOB->ODR = (GPIOB->ODR & 0xFBC7) | (data & 0x08) | ((data & 0x10) << 1) | ((data & 0x20) >> 1) |
 1682              		.loc 1 860 123 view .LVU521
 1683 0124 9A01     		lsls	r2, r3, #6
 1684 0126 02F08002 		and	r2, r2, #128
 860:Drivers/display_ILI-93xx_sm/lcd.c **** 	GPIOB->ODR = (GPIOB->ODR & 0xFBC7) | (data & 0x08) | ((data & 0x10) << 1) | ((data & 0x20) >> 1) |
 1685              		.loc 1 860 106 view .LVU522
 1686 012a 1043     		orrs	r0, r0, r2
 860:Drivers/display_ILI-93xx_sm/lcd.c **** 	GPIOB->ODR = (GPIOB->ODR & 0xFBC7) | (data & 0x08) | ((data & 0x10) << 1) | ((data & 0x20) >> 1) |
 1687              		.loc 1 860 13 view .LVU523
 1688 012c E060     		str	r0, [r4, #12]
 861:Drivers/display_ILI-93xx_sm/lcd.c **** #else
 1689              		.loc 1 861 2 is_stmt 1 view .LVU524
 861:Drivers/display_ILI-93xx_sm/lcd.c **** #else
 1690              		.loc 1 861 21 is_stmt 0 view .LVU525
 1691 012e 3248     		ldr	r0, .L95+4
 1692 0130 C268     		ldr	r2, [r0, #12]
 861:Drivers/display_ILI-93xx_sm/lcd.c **** #else
 1693              		.loc 1 861 27 view .LVU526
 1694 0132 22F48762 		bic	r2, r2, #1080
 1695 0136 1204     		lsls	r2, r2, #16
 1696 0138 120C     		lsrs	r2, r2, #16
 861:Drivers/display_ILI-93xx_sm/lcd.c **** #else
 1697              		.loc 1 861 45 view .LVU527
 1698 013a 03F00806 		and	r6, r3, #8
 861:Drivers/display_ILI-93xx_sm/lcd.c **** #else
 1699              		.loc 1 861 37 view .LVU528
 1700 013e 3243     		orrs	r2, r2, r6
 861:Drivers/display_ILI-93xx_sm/lcd.c **** #else
 1701              		.loc 1 861 70 view .LVU529
 1702 0140 05F02005 		and	r5, r5, #32
 861:Drivers/display_ILI-93xx_sm/lcd.c **** #else
 1703              		.loc 1 861 53 view .LVU530
 1704 0144 2A43     		orrs	r2, r2, r5
 861:Drivers/display_ILI-93xx_sm/lcd.c **** #else
 1705              		.loc 1 861 93 view .LVU531
 1706 0146 5D10     		asrs	r5, r3, #1
 1707 0148 05F01005 		and	r5, r5, #16
 861:Drivers/display_ILI-93xx_sm/lcd.c **** #else
 1708              		.loc 1 861 76 view .LVU532
 1709 014c 2A43     		orrs	r2, r2, r5
 861:Drivers/display_ILI-93xx_sm/lcd.c **** #else
 1710              		.loc 1 861 116 view .LVU533
 1711 014e 1B01     		lsls	r3, r3, #4
 1712 0150 03F48063 		and	r3, r3, #1024
 861:Drivers/display_ILI-93xx_sm/lcd.c **** #else
 1713              		.loc 1 861 99 view .LVU534
 1714 0154 1343     		orrs	r3, r3, r2
 861:Drivers/display_ILI-93xx_sm/lcd.c **** #else
 1715              		.loc 1 861 13 view .LVU535
 1716 0156 C360     		str	r3, [r0, #12]
 869:Drivers/display_ILI-93xx_sm/lcd.c **** }
 1717              		.loc 1 869 2 is_stmt 1 view .LVU536
 869:Drivers/display_ILI-93xx_sm/lcd.c **** }
 1718              		.loc 1 869 2 view .LVU537
 1719 0158 4FF40033 		mov	r3, #131072
ARM GAS  /tmp/cc47Teva.s 			page 54


 1720 015c 2361     		str	r3, [r4, #16]
 869:Drivers/display_ILI-93xx_sm/lcd.c **** }
 1721              		.loc 1 869 2 view .LVU538
 1722              	.LVL90:
 1723              	.LBB169:
 1724              	.LBI169:
 668:Drivers/display_ILI-93xx_sm/lcd.c **** 	for (; t; t--) __asm("nop");
 1725              		.loc 1 668 13 view .LVU539
 1726              	.LBB170:
 669:Drivers/display_ILI-93xx_sm/lcd.c **** }
 1727              		.loc 1 669 2 view .LVU540
 1728              	.LBE170:
 1729              	.LBE169:
 869:Drivers/display_ILI-93xx_sm/lcd.c **** }
 1730              		.loc 1 869 2 is_stmt 0 view .LVU541
 1731 015e 0223     		movs	r3, #2
 1732              	.LVL91:
 1733              	.L79:
 1734              	.LBB172:
 1735              	.LBB171:
 669:Drivers/display_ILI-93xx_sm/lcd.c **** }
 1736              		.loc 1 669 2 view .LVU542
 1737 0160 13B1     		cbz	r3, .L92
 669:Drivers/display_ILI-93xx_sm/lcd.c **** }
 1738              		.loc 1 669 17 is_stmt 1 view .LVU543
 1739              		.syntax unified
 1740              	@ 669 "Drivers/display_ILI-93xx_sm/lcd.c" 1
 1741 0162 00BF     		nop
 1742              	@ 0 "" 2
 669:Drivers/display_ILI-93xx_sm/lcd.c **** }
 1743              		.loc 1 669 13 is_stmt 0 view .LVU544
 1744              		.thumb
 1745              		.syntax unified
 1746 0164 013B     		subs	r3, r3, #1
 1747              	.LVL92:
 669:Drivers/display_ILI-93xx_sm/lcd.c **** }
 1748              		.loc 1 669 13 view .LVU545
 1749 0166 FBE7     		b	.L79
 1750              	.L92:
 1751              	.LVL93:
 669:Drivers/display_ILI-93xx_sm/lcd.c **** }
 1752              		.loc 1 669 13 view .LVU546
 1753              	.LBE171:
 1754              	.LBE172:
 869:Drivers/display_ILI-93xx_sm/lcd.c **** }
 1755              		.loc 1 869 2 is_stmt 1 view .LVU547
 1756 0168 0223     		movs	r3, #2
 1757 016a 224A     		ldr	r2, .L95
 1758 016c 1361     		str	r3, [r2, #16]
 869:Drivers/display_ILI-93xx_sm/lcd.c **** }
 1759              		.loc 1 869 2 view .LVU548
 1760              	.LVL94:
 1761              	.LBB173:
 1762              	.LBI173:
 668:Drivers/display_ILI-93xx_sm/lcd.c **** 	for (; t; t--) __asm("nop");
 1763              		.loc 1 668 13 view .LVU549
 1764              	.L81:
ARM GAS  /tmp/cc47Teva.s 			page 55


 1765              	.LBB174:
 669:Drivers/display_ILI-93xx_sm/lcd.c **** }
 1766              		.loc 1 669 2 is_stmt 0 view .LVU550
 1767 016e 13B1     		cbz	r3, .L93
 669:Drivers/display_ILI-93xx_sm/lcd.c **** }
 1768              		.loc 1 669 17 is_stmt 1 view .LVU551
 1769              		.syntax unified
 1770              	@ 669 "Drivers/display_ILI-93xx_sm/lcd.c" 1
 1771 0170 00BF     		nop
 1772              	@ 0 "" 2
 669:Drivers/display_ILI-93xx_sm/lcd.c **** }
 1773              		.loc 1 669 13 is_stmt 0 view .LVU552
 1774              		.thumb
 1775              		.syntax unified
 1776 0172 013B     		subs	r3, r3, #1
 1777              	.LVL95:
 669:Drivers/display_ILI-93xx_sm/lcd.c **** }
 1778              		.loc 1 669 13 view .LVU553
 1779 0174 FBE7     		b	.L81
 1780              	.L93:
 1781              	.LVL96:
 669:Drivers/display_ILI-93xx_sm/lcd.c **** }
 1782              		.loc 1 669 13 view .LVU554
 1783              	.LBE174:
 1784              	.LBE173:
 1785              	.LBE168:
 1786              	.LBE167:
 952:Drivers/display_ILI-93xx_sm/lcd.c **** 	LCD_Write8(d);
 1787              		.loc 1 952 2 is_stmt 1 view .LVU555
 1788 0176 C9B2     		uxtb	r1, r1
 1789              	.LVL97:
 1790              	.LBB175:
 1791              	.LBI175:
 847:Drivers/display_ILI-93xx_sm/lcd.c **** 	// ------ PORT -----     --- Data ----
 1792              		.loc 1 847 13 view .LVU556
 1793              	.LBB176:
 860:Drivers/display_ILI-93xx_sm/lcd.c **** 	GPIOB->ODR = (GPIOB->ODR & 0xFBC7) | (data & 0x08) | ((data & 0x10) << 1) | ((data & 0x20) >> 1) |
 1794              		.loc 1 860 2 view .LVU557
 860:Drivers/display_ILI-93xx_sm/lcd.c **** 	GPIOB->ODR = (GPIOB->ODR & 0xFBC7) | (data & 0x08) | ((data & 0x10) << 1) | ((data & 0x20) >> 1) |
 1795              		.loc 1 860 21 is_stmt 0 view .LVU558
 1796 0178 1E48     		ldr	r0, .L95
 1797 017a C268     		ldr	r2, [r0, #12]
 860:Drivers/display_ILI-93xx_sm/lcd.c **** 	GPIOB->ODR = (GPIOB->ODR & 0xFBC7) | (data & 0x08) | ((data & 0x10) << 1) | ((data & 0x20) >> 1) |
 1798              		.loc 1 860 27 view .LVU559
 1799 017c 22F4F062 		bic	r2, r2, #1920
 1800 0180 1204     		lsls	r2, r2, #16
 1801 0182 120C     		lsrs	r2, r2, #16
 860:Drivers/display_ILI-93xx_sm/lcd.c **** 	GPIOB->ODR = (GPIOB->ODR & 0xFBC7) | (data & 0x08) | ((data & 0x10) << 1) | ((data & 0x20) >> 1) |
 1802              		.loc 1 860 54 view .LVU560
 1803 0184 4B02     		lsls	r3, r1, #9
 1804 0186 03F40073 		and	r3, r3, #512
 860:Drivers/display_ILI-93xx_sm/lcd.c **** 	GPIOB->ODR = (GPIOB->ODR & 0xFBC7) | (data & 0x08) | ((data & 0x10) << 1) | ((data & 0x20) >> 1) |
 1805              		.loc 1 860 37 view .LVU561
 1806 018a 1A43     		orrs	r2, r2, r3
 860:Drivers/display_ILI-93xx_sm/lcd.c **** 	GPIOB->ODR = (GPIOB->ODR & 0xFBC7) | (data & 0x08) | ((data & 0x10) << 1) | ((data & 0x20) >> 1) |
 1807              		.loc 1 860 77 view .LVU562
 1808 018c 0B02     		lsls	r3, r1, #8
ARM GAS  /tmp/cc47Teva.s 			page 56


 1809 018e 03F48063 		and	r3, r3, #1024
 860:Drivers/display_ILI-93xx_sm/lcd.c **** 	GPIOB->ODR = (GPIOB->ODR & 0xFBC7) | (data & 0x08) | ((data & 0x10) << 1) | ((data & 0x20) >> 1) |
 1810              		.loc 1 860 60 view .LVU563
 1811 0192 1A43     		orrs	r2, r2, r3
 860:Drivers/display_ILI-93xx_sm/lcd.c **** 	GPIOB->ODR = (GPIOB->ODR & 0xFBC7) | (data & 0x08) | ((data & 0x10) << 1) | ((data & 0x20) >> 1) |
 1812              		.loc 1 860 100 view .LVU564
 1813 0194 4C00     		lsls	r4, r1, #1
 1814 0196 04F48073 		and	r3, r4, #256
 860:Drivers/display_ILI-93xx_sm/lcd.c **** 	GPIOB->ODR = (GPIOB->ODR & 0xFBC7) | (data & 0x08) | ((data & 0x10) << 1) | ((data & 0x20) >> 1) |
 1815              		.loc 1 860 83 view .LVU565
 1816 019a 1A43     		orrs	r2, r2, r3
 860:Drivers/display_ILI-93xx_sm/lcd.c **** 	GPIOB->ODR = (GPIOB->ODR & 0xFBC7) | (data & 0x08) | ((data & 0x10) << 1) | ((data & 0x20) >> 1) |
 1817              		.loc 1 860 123 view .LVU566
 1818 019c 8B01     		lsls	r3, r1, #6
 1819 019e 03F08003 		and	r3, r3, #128
 860:Drivers/display_ILI-93xx_sm/lcd.c **** 	GPIOB->ODR = (GPIOB->ODR & 0xFBC7) | (data & 0x08) | ((data & 0x10) << 1) | ((data & 0x20) >> 1) |
 1820              		.loc 1 860 106 view .LVU567
 1821 01a2 1A43     		orrs	r2, r2, r3
 860:Drivers/display_ILI-93xx_sm/lcd.c **** 	GPIOB->ODR = (GPIOB->ODR & 0xFBC7) | (data & 0x08) | ((data & 0x10) << 1) | ((data & 0x20) >> 1) |
 1822              		.loc 1 860 13 view .LVU568
 1823 01a4 C260     		str	r2, [r0, #12]
 861:Drivers/display_ILI-93xx_sm/lcd.c **** #else
 1824              		.loc 1 861 2 is_stmt 1 view .LVU569
 861:Drivers/display_ILI-93xx_sm/lcd.c **** #else
 1825              		.loc 1 861 21 is_stmt 0 view .LVU570
 1826 01a6 144D     		ldr	r5, .L95+4
 1827 01a8 EB68     		ldr	r3, [r5, #12]
 861:Drivers/display_ILI-93xx_sm/lcd.c **** #else
 1828              		.loc 1 861 27 view .LVU571
 1829 01aa 23F48763 		bic	r3, r3, #1080
 1830 01ae 1B04     		lsls	r3, r3, #16
 1831 01b0 1B0C     		lsrs	r3, r3, #16
 861:Drivers/display_ILI-93xx_sm/lcd.c **** #else
 1832              		.loc 1 861 45 view .LVU572
 1833 01b2 01F00802 		and	r2, r1, #8
 861:Drivers/display_ILI-93xx_sm/lcd.c **** #else
 1834              		.loc 1 861 37 view .LVU573
 1835 01b6 1343     		orrs	r3, r3, r2
 861:Drivers/display_ILI-93xx_sm/lcd.c **** #else
 1836              		.loc 1 861 70 view .LVU574
 1837 01b8 04F02004 		and	r4, r4, #32
 861:Drivers/display_ILI-93xx_sm/lcd.c **** #else
 1838              		.loc 1 861 53 view .LVU575
 1839 01bc 2343     		orrs	r3, r3, r4
 861:Drivers/display_ILI-93xx_sm/lcd.c **** #else
 1840              		.loc 1 861 93 view .LVU576
 1841 01be 4A10     		asrs	r2, r1, #1
 1842 01c0 02F01002 		and	r2, r2, #16
 861:Drivers/display_ILI-93xx_sm/lcd.c **** #else
 1843              		.loc 1 861 76 view .LVU577
 1844 01c4 1343     		orrs	r3, r3, r2
 861:Drivers/display_ILI-93xx_sm/lcd.c **** #else
 1845              		.loc 1 861 116 view .LVU578
 1846 01c6 0901     		lsls	r1, r1, #4
 1847              	.LVL98:
 861:Drivers/display_ILI-93xx_sm/lcd.c **** #else
 1848              		.loc 1 861 116 view .LVU579
ARM GAS  /tmp/cc47Teva.s 			page 57


 1849 01c8 01F48061 		and	r1, r1, #1024
 861:Drivers/display_ILI-93xx_sm/lcd.c **** #else
 1850              		.loc 1 861 99 view .LVU580
 1851 01cc 1943     		orrs	r1, r1, r3
 861:Drivers/display_ILI-93xx_sm/lcd.c **** #else
 1852              		.loc 1 861 13 view .LVU581
 1853 01ce E960     		str	r1, [r5, #12]
 869:Drivers/display_ILI-93xx_sm/lcd.c **** }
 1854              		.loc 1 869 2 is_stmt 1 view .LVU582
 869:Drivers/display_ILI-93xx_sm/lcd.c **** }
 1855              		.loc 1 869 2 view .LVU583
 1856 01d0 4FF40033 		mov	r3, #131072
 1857 01d4 0361     		str	r3, [r0, #16]
 869:Drivers/display_ILI-93xx_sm/lcd.c **** }
 1858              		.loc 1 869 2 view .LVU584
 1859              	.LVL99:
 1860              	.LBB177:
 1861              	.LBI177:
 668:Drivers/display_ILI-93xx_sm/lcd.c **** 	for (; t; t--) __asm("nop");
 1862              		.loc 1 668 13 view .LVU585
 1863              	.LBB178:
 669:Drivers/display_ILI-93xx_sm/lcd.c **** }
 1864              		.loc 1 669 2 view .LVU586
 1865              	.LBE178:
 1866              	.LBE177:
 869:Drivers/display_ILI-93xx_sm/lcd.c **** }
 1867              		.loc 1 869 2 is_stmt 0 view .LVU587
 1868 01d6 0223     		movs	r3, #2
 1869              	.LVL100:
 1870              	.L83:
 1871              	.LBB180:
 1872              	.LBB179:
 669:Drivers/display_ILI-93xx_sm/lcd.c **** }
 1873              		.loc 1 669 2 view .LVU588
 1874 01d8 13B1     		cbz	r3, .L94
 669:Drivers/display_ILI-93xx_sm/lcd.c **** }
 1875              		.loc 1 669 17 is_stmt 1 view .LVU589
 1876              		.syntax unified
 1877              	@ 669 "Drivers/display_ILI-93xx_sm/lcd.c" 1
 1878 01da 00BF     		nop
 1879              	@ 0 "" 2
 669:Drivers/display_ILI-93xx_sm/lcd.c **** }
 1880              		.loc 1 669 13 is_stmt 0 view .LVU590
 1881              		.thumb
 1882              		.syntax unified
 1883 01dc 013B     		subs	r3, r3, #1
 1884              	.LVL101:
 669:Drivers/display_ILI-93xx_sm/lcd.c **** }
 1885              		.loc 1 669 13 view .LVU591
 1886 01de FBE7     		b	.L83
 1887              	.L94:
 1888              	.LVL102:
 669:Drivers/display_ILI-93xx_sm/lcd.c **** }
 1889              		.loc 1 669 13 view .LVU592
 1890              	.LBE179:
 1891              	.LBE180:
 869:Drivers/display_ILI-93xx_sm/lcd.c **** }
ARM GAS  /tmp/cc47Teva.s 			page 58


 1892              		.loc 1 869 2 is_stmt 1 view .LVU593
 1893 01e0 0223     		movs	r3, #2
 1894 01e2 044A     		ldr	r2, .L95
 1895 01e4 1361     		str	r3, [r2, #16]
 869:Drivers/display_ILI-93xx_sm/lcd.c **** }
 1896              		.loc 1 869 2 view .LVU594
 1897              	.LVL103:
 1898              	.LBB181:
 1899              	.LBI181:
 668:Drivers/display_ILI-93xx_sm/lcd.c **** 	for (; t; t--) __asm("nop");
 1900              		.loc 1 668 13 view .LVU595
 1901 01e6 01E0     		b	.L85
 1902              	.LVL104:
 1903              	.L86:
 1904              	.LBB182:
 669:Drivers/display_ILI-93xx_sm/lcd.c **** }
 1905              		.loc 1 669 17 view .LVU596
 1906              		.syntax unified
 1907              	@ 669 "Drivers/display_ILI-93xx_sm/lcd.c" 1
 1908 01e8 00BF     		nop
 1909              	@ 0 "" 2
 669:Drivers/display_ILI-93xx_sm/lcd.c **** }
 1910              		.loc 1 669 13 is_stmt 0 view .LVU597
 1911              		.thumb
 1912              		.syntax unified
 1913 01ea 013B     		subs	r3, r3, #1
 1914              	.LVL105:
 1915              	.L85:
 669:Drivers/display_ILI-93xx_sm/lcd.c **** }
 1916              		.loc 1 669 2 view .LVU598
 1917 01ec 002B     		cmp	r3, #0
 1918 01ee FBD1     		bne	.L86
 1919              	.LBE182:
 1920              	.LBE181:
 1921              	.LBE176:
 1922              	.LBE175:
 953:Drivers/display_ILI-93xx_sm/lcd.c **** }
 1923              		.loc 1 953 1 view .LVU599
 1924 01f0 70BC     		pop	{r4, r5, r6}
 1925              	.LCFI10:
 1926              		.cfi_restore 6
 1927              		.cfi_restore 5
 1928              		.cfi_restore 4
 1929              		.cfi_def_cfa_offset 0
 1930 01f2 7047     		bx	lr
 1931              	.L96:
 1932              		.align	2
 1933              	.L95:
 1934 01f4 00080140 		.word	1073809408
 1935 01f8 000C0140 		.word	1073810432
 1936              		.cfi_endproc
 1937              	.LFE74:
 1939              		.section	.text.LCD_Write32Register8,"ax",%progbits
 1940              		.align	1
 1941              		.global	LCD_Write32Register8
 1942              		.syntax unified
 1943              		.thumb
ARM GAS  /tmp/cc47Teva.s 			page 59


 1944              		.thumb_func
 1945              		.fpu softvfp
 1947              	LCD_Write32Register8:
 1948              	.LVL106:
 1949              	.LFB75:
 954:Drivers/display_ILI-93xx_sm/lcd.c **** 
 955:Drivers/display_ILI-93xx_sm/lcd.c **** /**
 956:Drivers/display_ILI-93xx_sm/lcd.c ****  * \brief Writes 32-Bit data to register (8-bit address)
 957:Drivers/display_ILI-93xx_sm/lcd.c ****  *
 958:Drivers/display_ILI-93xx_sm/lcd.c ****  * \param a		Register
 959:Drivers/display_ILI-93xx_sm/lcd.c ****  * \param d		Data
 960:Drivers/display_ILI-93xx_sm/lcd.c ****  *
 961:Drivers/display_ILI-93xx_sm/lcd.c ****  * \return void
 962:Drivers/display_ILI-93xx_sm/lcd.c ****  */
 963:Drivers/display_ILI-93xx_sm/lcd.c **** inline void LCD_Write32Register8(uint8_t a, uint32_t d) {
 1950              		.loc 1 963 57 is_stmt 1 view -0
 1951              		.cfi_startproc
 1952              		@ args = 0, pretend = 0, frame = 0
 1953              		@ frame_needed = 0, uses_anonymous_args = 0
 1954              		@ link register save eliminated.
 1955              		.loc 1 963 57 is_stmt 0 view .LVU601
 1956 0000 70B4     		push	{r4, r5, r6}
 1957              	.LCFI11:
 1958              		.cfi_def_cfa_offset 12
 1959              		.cfi_offset 4, -12
 1960              		.cfi_offset 5, -8
 1961              		.cfi_offset 6, -4
 964:Drivers/display_ILI-93xx_sm/lcd.c **** 	LCD_CD_COMMAND();
 1962              		.loc 1 964 2 is_stmt 1 view .LVU602
 1963 0002 9A4C     		ldr	r4, .L128
 1964 0004 4FF48013 		mov	r3, #1048576
 1965 0008 2361     		str	r3, [r4, #16]
 965:Drivers/display_ILI-93xx_sm/lcd.c **** 	LCD_Write8(a);
 1966              		.loc 1 965 2 view .LVU603
 1967              	.LVL107:
 1968              	.LBB213:
 1969              	.LBI213:
 847:Drivers/display_ILI-93xx_sm/lcd.c **** 	// ------ PORT -----     --- Data ----
 1970              		.loc 1 847 13 view .LVU604
 1971              	.LBB214:
 860:Drivers/display_ILI-93xx_sm/lcd.c **** 	GPIOB->ODR = (GPIOB->ODR & 0xFBC7) | (data & 0x08) | ((data & 0x10) << 1) | ((data & 0x20) >> 1) |
 1972              		.loc 1 860 2 view .LVU605
 860:Drivers/display_ILI-93xx_sm/lcd.c **** 	GPIOB->ODR = (GPIOB->ODR & 0xFBC7) | (data & 0x08) | ((data & 0x10) << 1) | ((data & 0x20) >> 1) |
 1973              		.loc 1 860 21 is_stmt 0 view .LVU606
 1974 000a E268     		ldr	r2, [r4, #12]
 860:Drivers/display_ILI-93xx_sm/lcd.c **** 	GPIOB->ODR = (GPIOB->ODR & 0xFBC7) | (data & 0x08) | ((data & 0x10) << 1) | ((data & 0x20) >> 1) |
 1975              		.loc 1 860 27 view .LVU607
 1976 000c 22F4F062 		bic	r2, r2, #1920
 1977 0010 1204     		lsls	r2, r2, #16
 1978 0012 120C     		lsrs	r2, r2, #16
 860:Drivers/display_ILI-93xx_sm/lcd.c **** 	GPIOB->ODR = (GPIOB->ODR & 0xFBC7) | (data & 0x08) | ((data & 0x10) << 1) | ((data & 0x20) >> 1) |
 1979              		.loc 1 860 54 view .LVU608
 1980 0014 4302     		lsls	r3, r0, #9
 1981 0016 03F40073 		and	r3, r3, #512
 860:Drivers/display_ILI-93xx_sm/lcd.c **** 	GPIOB->ODR = (GPIOB->ODR & 0xFBC7) | (data & 0x08) | ((data & 0x10) << 1) | ((data & 0x20) >> 1) |
 1982              		.loc 1 860 37 view .LVU609
 1983 001a 1A43     		orrs	r2, r2, r3
ARM GAS  /tmp/cc47Teva.s 			page 60


 860:Drivers/display_ILI-93xx_sm/lcd.c **** 	GPIOB->ODR = (GPIOB->ODR & 0xFBC7) | (data & 0x08) | ((data & 0x10) << 1) | ((data & 0x20) >> 1) |
 1984              		.loc 1 860 77 view .LVU610
 1985 001c 0302     		lsls	r3, r0, #8
 1986 001e 03F48063 		and	r3, r3, #1024
 860:Drivers/display_ILI-93xx_sm/lcd.c **** 	GPIOB->ODR = (GPIOB->ODR & 0xFBC7) | (data & 0x08) | ((data & 0x10) << 1) | ((data & 0x20) >> 1) |
 1987              		.loc 1 860 60 view .LVU611
 1988 0022 1A43     		orrs	r2, r2, r3
 860:Drivers/display_ILI-93xx_sm/lcd.c **** 	GPIOB->ODR = (GPIOB->ODR & 0xFBC7) | (data & 0x08) | ((data & 0x10) << 1) | ((data & 0x20) >> 1) |
 1989              		.loc 1 860 100 view .LVU612
 1990 0024 4500     		lsls	r5, r0, #1
 1991 0026 05F48073 		and	r3, r5, #256
 860:Drivers/display_ILI-93xx_sm/lcd.c **** 	GPIOB->ODR = (GPIOB->ODR & 0xFBC7) | (data & 0x08) | ((data & 0x10) << 1) | ((data & 0x20) >> 1) |
 1992              		.loc 1 860 83 view .LVU613
 1993 002a 1A43     		orrs	r2, r2, r3
 860:Drivers/display_ILI-93xx_sm/lcd.c **** 	GPIOB->ODR = (GPIOB->ODR & 0xFBC7) | (data & 0x08) | ((data & 0x10) << 1) | ((data & 0x20) >> 1) |
 1994              		.loc 1 860 123 view .LVU614
 1995 002c 8301     		lsls	r3, r0, #6
 1996 002e 03F08003 		and	r3, r3, #128
 860:Drivers/display_ILI-93xx_sm/lcd.c **** 	GPIOB->ODR = (GPIOB->ODR & 0xFBC7) | (data & 0x08) | ((data & 0x10) << 1) | ((data & 0x20) >> 1) |
 1997              		.loc 1 860 106 view .LVU615
 1998 0032 1A43     		orrs	r2, r2, r3
 860:Drivers/display_ILI-93xx_sm/lcd.c **** 	GPIOB->ODR = (GPIOB->ODR & 0xFBC7) | (data & 0x08) | ((data & 0x10) << 1) | ((data & 0x20) >> 1) |
 1999              		.loc 1 860 13 view .LVU616
 2000 0034 E260     		str	r2, [r4, #12]
 861:Drivers/display_ILI-93xx_sm/lcd.c **** #else
 2001              		.loc 1 861 2 is_stmt 1 view .LVU617
 861:Drivers/display_ILI-93xx_sm/lcd.c **** #else
 2002              		.loc 1 861 21 is_stmt 0 view .LVU618
 2003 0036 8E4A     		ldr	r2, .L128+4
 2004 0038 D368     		ldr	r3, [r2, #12]
 861:Drivers/display_ILI-93xx_sm/lcd.c **** #else
 2005              		.loc 1 861 27 view .LVU619
 2006 003a 23F48763 		bic	r3, r3, #1080
 2007 003e 1B04     		lsls	r3, r3, #16
 2008 0040 1B0C     		lsrs	r3, r3, #16
 861:Drivers/display_ILI-93xx_sm/lcd.c **** #else
 2009              		.loc 1 861 45 view .LVU620
 2010 0042 00F00806 		and	r6, r0, #8
 861:Drivers/display_ILI-93xx_sm/lcd.c **** #else
 2011              		.loc 1 861 37 view .LVU621
 2012 0046 3343     		orrs	r3, r3, r6
 861:Drivers/display_ILI-93xx_sm/lcd.c **** #else
 2013              		.loc 1 861 70 view .LVU622
 2014 0048 05F02005 		and	r5, r5, #32
 861:Drivers/display_ILI-93xx_sm/lcd.c **** #else
 2015              		.loc 1 861 53 view .LVU623
 2016 004c 2B43     		orrs	r3, r3, r5
 861:Drivers/display_ILI-93xx_sm/lcd.c **** #else
 2017              		.loc 1 861 93 view .LVU624
 2018 004e 4510     		asrs	r5, r0, #1
 2019 0050 05F01005 		and	r5, r5, #16
 861:Drivers/display_ILI-93xx_sm/lcd.c **** #else
 2020              		.loc 1 861 76 view .LVU625
 2021 0054 2B43     		orrs	r3, r3, r5
 861:Drivers/display_ILI-93xx_sm/lcd.c **** #else
 2022              		.loc 1 861 116 view .LVU626
 2023 0056 0001     		lsls	r0, r0, #4
ARM GAS  /tmp/cc47Teva.s 			page 61


 2024              	.LVL108:
 861:Drivers/display_ILI-93xx_sm/lcd.c **** #else
 2025              		.loc 1 861 116 view .LVU627
 2026 0058 00F48060 		and	r0, r0, #1024
 861:Drivers/display_ILI-93xx_sm/lcd.c **** #else
 2027              		.loc 1 861 99 view .LVU628
 2028 005c 0343     		orrs	r3, r3, r0
 861:Drivers/display_ILI-93xx_sm/lcd.c **** #else
 2029              		.loc 1 861 13 view .LVU629
 2030 005e D360     		str	r3, [r2, #12]
 869:Drivers/display_ILI-93xx_sm/lcd.c **** }
 2031              		.loc 1 869 2 is_stmt 1 view .LVU630
 869:Drivers/display_ILI-93xx_sm/lcd.c **** }
 2032              		.loc 1 869 2 view .LVU631
 2033 0060 4FF40033 		mov	r3, #131072
 2034 0064 2361     		str	r3, [r4, #16]
 869:Drivers/display_ILI-93xx_sm/lcd.c **** }
 2035              		.loc 1 869 2 view .LVU632
 2036              	.LVL109:
 2037              	.LBB215:
 2038              	.LBI215:
 668:Drivers/display_ILI-93xx_sm/lcd.c **** 	for (; t; t--) __asm("nop");
 2039              		.loc 1 668 13 view .LVU633
 2040              	.LBB216:
 669:Drivers/display_ILI-93xx_sm/lcd.c **** }
 2041              		.loc 1 669 2 view .LVU634
 2042              	.LBE216:
 2043              	.LBE215:
 869:Drivers/display_ILI-93xx_sm/lcd.c **** }
 2044              		.loc 1 869 2 is_stmt 0 view .LVU635
 2045 0066 0223     		movs	r3, #2
 2046              	.LVL110:
 2047              	.L98:
 2048              	.LBB218:
 2049              	.LBB217:
 669:Drivers/display_ILI-93xx_sm/lcd.c **** }
 2050              		.loc 1 669 2 view .LVU636
 2051 0068 13B1     		cbz	r3, .L119
 669:Drivers/display_ILI-93xx_sm/lcd.c **** }
 2052              		.loc 1 669 17 is_stmt 1 view .LVU637
 2053              		.syntax unified
 2054              	@ 669 "Drivers/display_ILI-93xx_sm/lcd.c" 1
 2055 006a 00BF     		nop
 2056              	@ 0 "" 2
 669:Drivers/display_ILI-93xx_sm/lcd.c **** }
 2057              		.loc 1 669 13 is_stmt 0 view .LVU638
 2058              		.thumb
 2059              		.syntax unified
 2060 006c 013B     		subs	r3, r3, #1
 2061              	.LVL111:
 669:Drivers/display_ILI-93xx_sm/lcd.c **** }
 2062              		.loc 1 669 13 view .LVU639
 2063 006e FBE7     		b	.L98
 2064              	.L119:
 2065              	.LVL112:
 669:Drivers/display_ILI-93xx_sm/lcd.c **** }
 2066              		.loc 1 669 13 view .LVU640
ARM GAS  /tmp/cc47Teva.s 			page 62


 2067              	.LBE217:
 2068              	.LBE218:
 869:Drivers/display_ILI-93xx_sm/lcd.c **** }
 2069              		.loc 1 869 2 is_stmt 1 view .LVU641
 2070 0070 0223     		movs	r3, #2
 2071 0072 7E4A     		ldr	r2, .L128
 2072 0074 1361     		str	r3, [r2, #16]
 869:Drivers/display_ILI-93xx_sm/lcd.c **** }
 2073              		.loc 1 869 2 view .LVU642
 2074              	.LVL113:
 2075              	.LBB219:
 2076              	.LBI219:
 668:Drivers/display_ILI-93xx_sm/lcd.c **** 	for (; t; t--) __asm("nop");
 2077              		.loc 1 668 13 view .LVU643
 2078              	.L100:
 2079              	.LBB220:
 669:Drivers/display_ILI-93xx_sm/lcd.c **** }
 2080              		.loc 1 669 2 is_stmt 0 view .LVU644
 2081 0076 13B1     		cbz	r3, .L120
 669:Drivers/display_ILI-93xx_sm/lcd.c **** }
 2082              		.loc 1 669 17 is_stmt 1 view .LVU645
 2083              		.syntax unified
 2084              	@ 669 "Drivers/display_ILI-93xx_sm/lcd.c" 1
 2085 0078 00BF     		nop
 2086              	@ 0 "" 2
 669:Drivers/display_ILI-93xx_sm/lcd.c **** }
 2087              		.loc 1 669 13 is_stmt 0 view .LVU646
 2088              		.thumb
 2089              		.syntax unified
 2090 007a 013B     		subs	r3, r3, #1
 2091              	.LVL114:
 669:Drivers/display_ILI-93xx_sm/lcd.c **** }
 2092              		.loc 1 669 13 view .LVU647
 2093 007c FBE7     		b	.L100
 2094              	.L120:
 2095              	.LVL115:
 669:Drivers/display_ILI-93xx_sm/lcd.c **** }
 2096              		.loc 1 669 13 view .LVU648
 2097              	.LBE220:
 2098              	.LBE219:
 2099              	.LBE214:
 2100              	.LBE213:
 966:Drivers/display_ILI-93xx_sm/lcd.c **** 	LCD_CD_DATA();
 2101              		.loc 1 966 2 is_stmt 1 view .LVU649
 2102 007e 7B4C     		ldr	r4, .L128
 2103 0080 1023     		movs	r3, #16
 2104 0082 2361     		str	r3, [r4, #16]
 967:Drivers/display_ILI-93xx_sm/lcd.c **** 	LCD_Write8(d >> 24);
 2105              		.loc 1 967 2 view .LVU650
 2106 0084 0B0E     		lsrs	r3, r1, #24
 2107              	.LBB221:
 2108              	.LBI221:
 847:Drivers/display_ILI-93xx_sm/lcd.c **** 	// ------ PORT -----     --- Data ----
 2109              		.loc 1 847 13 view .LVU651
 2110              	.LBB222:
 860:Drivers/display_ILI-93xx_sm/lcd.c **** 	GPIOB->ODR = (GPIOB->ODR & 0xFBC7) | (data & 0x08) | ((data & 0x10) << 1) | ((data & 0x20) >> 1) |
 2111              		.loc 1 860 2 view .LVU652
ARM GAS  /tmp/cc47Teva.s 			page 63


 860:Drivers/display_ILI-93xx_sm/lcd.c **** 	GPIOB->ODR = (GPIOB->ODR & 0xFBC7) | (data & 0x08) | ((data & 0x10) << 1) | ((data & 0x20) >> 1) |
 2112              		.loc 1 860 21 is_stmt 0 view .LVU653
 2113 0086 E068     		ldr	r0, [r4, #12]
 860:Drivers/display_ILI-93xx_sm/lcd.c **** 	GPIOB->ODR = (GPIOB->ODR & 0xFBC7) | (data & 0x08) | ((data & 0x10) << 1) | ((data & 0x20) >> 1) |
 2114              		.loc 1 860 27 view .LVU654
 2115 0088 20F4F060 		bic	r0, r0, #1920
 2116 008c 0004     		lsls	r0, r0, #16
 2117 008e 000C     		lsrs	r0, r0, #16
 860:Drivers/display_ILI-93xx_sm/lcd.c **** 	GPIOB->ODR = (GPIOB->ODR & 0xFBC7) | (data & 0x08) | ((data & 0x10) << 1) | ((data & 0x20) >> 1) |
 2118              		.loc 1 860 54 view .LVU655
 2119 0090 5A02     		lsls	r2, r3, #9
 2120 0092 02F40072 		and	r2, r2, #512
 860:Drivers/display_ILI-93xx_sm/lcd.c **** 	GPIOB->ODR = (GPIOB->ODR & 0xFBC7) | (data & 0x08) | ((data & 0x10) << 1) | ((data & 0x20) >> 1) |
 2121              		.loc 1 860 37 view .LVU656
 2122 0096 1043     		orrs	r0, r0, r2
 860:Drivers/display_ILI-93xx_sm/lcd.c **** 	GPIOB->ODR = (GPIOB->ODR & 0xFBC7) | (data & 0x08) | ((data & 0x10) << 1) | ((data & 0x20) >> 1) |
 2123              		.loc 1 860 77 view .LVU657
 2124 0098 1A02     		lsls	r2, r3, #8
 2125 009a 02F48062 		and	r2, r2, #1024
 860:Drivers/display_ILI-93xx_sm/lcd.c **** 	GPIOB->ODR = (GPIOB->ODR & 0xFBC7) | (data & 0x08) | ((data & 0x10) << 1) | ((data & 0x20) >> 1) |
 2126              		.loc 1 860 60 view .LVU658
 2127 009e 1043     		orrs	r0, r0, r2
 860:Drivers/display_ILI-93xx_sm/lcd.c **** 	GPIOB->ODR = (GPIOB->ODR & 0xFBC7) | (data & 0x08) | ((data & 0x10) << 1) | ((data & 0x20) >> 1) |
 2128              		.loc 1 860 100 view .LVU659
 2129 00a0 5D00     		lsls	r5, r3, #1
 2130 00a2 05F48072 		and	r2, r5, #256
 860:Drivers/display_ILI-93xx_sm/lcd.c **** 	GPIOB->ODR = (GPIOB->ODR & 0xFBC7) | (data & 0x08) | ((data & 0x10) << 1) | ((data & 0x20) >> 1) |
 2131              		.loc 1 860 83 view .LVU660
 2132 00a6 1043     		orrs	r0, r0, r2
 860:Drivers/display_ILI-93xx_sm/lcd.c **** 	GPIOB->ODR = (GPIOB->ODR & 0xFBC7) | (data & 0x08) | ((data & 0x10) << 1) | ((data & 0x20) >> 1) |
 2133              		.loc 1 860 123 view .LVU661
 2134 00a8 9A01     		lsls	r2, r3, #6
 2135 00aa 02F08002 		and	r2, r2, #128
 860:Drivers/display_ILI-93xx_sm/lcd.c **** 	GPIOB->ODR = (GPIOB->ODR & 0xFBC7) | (data & 0x08) | ((data & 0x10) << 1) | ((data & 0x20) >> 1) |
 2136              		.loc 1 860 106 view .LVU662
 2137 00ae 1043     		orrs	r0, r0, r2
 860:Drivers/display_ILI-93xx_sm/lcd.c **** 	GPIOB->ODR = (GPIOB->ODR & 0xFBC7) | (data & 0x08) | ((data & 0x10) << 1) | ((data & 0x20) >> 1) |
 2138              		.loc 1 860 13 view .LVU663
 2139 00b0 E060     		str	r0, [r4, #12]
 861:Drivers/display_ILI-93xx_sm/lcd.c **** #else
 2140              		.loc 1 861 2 is_stmt 1 view .LVU664
 861:Drivers/display_ILI-93xx_sm/lcd.c **** #else
 2141              		.loc 1 861 21 is_stmt 0 view .LVU665
 2142 00b2 6F48     		ldr	r0, .L128+4
 2143 00b4 C268     		ldr	r2, [r0, #12]
 861:Drivers/display_ILI-93xx_sm/lcd.c **** #else
 2144              		.loc 1 861 27 view .LVU666
 2145 00b6 22F48762 		bic	r2, r2, #1080
 2146 00ba 1204     		lsls	r2, r2, #16
 2147 00bc 120C     		lsrs	r2, r2, #16
 861:Drivers/display_ILI-93xx_sm/lcd.c **** #else
 2148              		.loc 1 861 45 view .LVU667
 2149 00be 03F00806 		and	r6, r3, #8
 861:Drivers/display_ILI-93xx_sm/lcd.c **** #else
 2150              		.loc 1 861 37 view .LVU668
 2151 00c2 3243     		orrs	r2, r2, r6
 861:Drivers/display_ILI-93xx_sm/lcd.c **** #else
ARM GAS  /tmp/cc47Teva.s 			page 64


 2152              		.loc 1 861 70 view .LVU669
 2153 00c4 05F02005 		and	r5, r5, #32
 861:Drivers/display_ILI-93xx_sm/lcd.c **** #else
 2154              		.loc 1 861 53 view .LVU670
 2155 00c8 2A43     		orrs	r2, r2, r5
 861:Drivers/display_ILI-93xx_sm/lcd.c **** #else
 2156              		.loc 1 861 93 view .LVU671
 2157 00ca 5D10     		asrs	r5, r3, #1
 2158 00cc 05F01005 		and	r5, r5, #16
 861:Drivers/display_ILI-93xx_sm/lcd.c **** #else
 2159              		.loc 1 861 76 view .LVU672
 2160 00d0 2A43     		orrs	r2, r2, r5
 861:Drivers/display_ILI-93xx_sm/lcd.c **** #else
 2161              		.loc 1 861 116 view .LVU673
 2162 00d2 1B01     		lsls	r3, r3, #4
 2163 00d4 03F48063 		and	r3, r3, #1024
 861:Drivers/display_ILI-93xx_sm/lcd.c **** #else
 2164              		.loc 1 861 99 view .LVU674
 2165 00d8 1343     		orrs	r3, r3, r2
 861:Drivers/display_ILI-93xx_sm/lcd.c **** #else
 2166              		.loc 1 861 13 view .LVU675
 2167 00da C360     		str	r3, [r0, #12]
 869:Drivers/display_ILI-93xx_sm/lcd.c **** }
 2168              		.loc 1 869 2 is_stmt 1 view .LVU676
 869:Drivers/display_ILI-93xx_sm/lcd.c **** }
 2169              		.loc 1 869 2 view .LVU677
 2170 00dc 4FF40033 		mov	r3, #131072
 2171 00e0 2361     		str	r3, [r4, #16]
 869:Drivers/display_ILI-93xx_sm/lcd.c **** }
 2172              		.loc 1 869 2 view .LVU678
 2173              	.LVL116:
 2174              	.LBB223:
 2175              	.LBI223:
 668:Drivers/display_ILI-93xx_sm/lcd.c **** 	for (; t; t--) __asm("nop");
 2176              		.loc 1 668 13 view .LVU679
 2177              	.LBB224:
 669:Drivers/display_ILI-93xx_sm/lcd.c **** }
 2178              		.loc 1 669 2 view .LVU680
 2179              	.LBE224:
 2180              	.LBE223:
 869:Drivers/display_ILI-93xx_sm/lcd.c **** }
 2181              		.loc 1 869 2 is_stmt 0 view .LVU681
 2182 00e2 0223     		movs	r3, #2
 2183              	.LVL117:
 2184              	.L102:
 2185              	.LBB226:
 2186              	.LBB225:
 669:Drivers/display_ILI-93xx_sm/lcd.c **** }
 2187              		.loc 1 669 2 view .LVU682
 2188 00e4 13B1     		cbz	r3, .L121
 669:Drivers/display_ILI-93xx_sm/lcd.c **** }
 2189              		.loc 1 669 17 is_stmt 1 view .LVU683
 2190              		.syntax unified
 2191              	@ 669 "Drivers/display_ILI-93xx_sm/lcd.c" 1
 2192 00e6 00BF     		nop
 2193              	@ 0 "" 2
 669:Drivers/display_ILI-93xx_sm/lcd.c **** }
ARM GAS  /tmp/cc47Teva.s 			page 65


 2194              		.loc 1 669 13 is_stmt 0 view .LVU684
 2195              		.thumb
 2196              		.syntax unified
 2197 00e8 013B     		subs	r3, r3, #1
 2198              	.LVL118:
 669:Drivers/display_ILI-93xx_sm/lcd.c **** }
 2199              		.loc 1 669 13 view .LVU685
 2200 00ea FBE7     		b	.L102
 2201              	.L121:
 2202              	.LVL119:
 669:Drivers/display_ILI-93xx_sm/lcd.c **** }
 2203              		.loc 1 669 13 view .LVU686
 2204              	.LBE225:
 2205              	.LBE226:
 869:Drivers/display_ILI-93xx_sm/lcd.c **** }
 2206              		.loc 1 869 2 is_stmt 1 view .LVU687
 2207 00ec 0223     		movs	r3, #2
 2208 00ee 5F4A     		ldr	r2, .L128
 2209 00f0 1361     		str	r3, [r2, #16]
 869:Drivers/display_ILI-93xx_sm/lcd.c **** }
 2210              		.loc 1 869 2 view .LVU688
 2211              	.LVL120:
 2212              	.LBB227:
 2213              	.LBI227:
 668:Drivers/display_ILI-93xx_sm/lcd.c **** 	for (; t; t--) __asm("nop");
 2214              		.loc 1 668 13 view .LVU689
 2215              	.L104:
 2216              	.LBB228:
 669:Drivers/display_ILI-93xx_sm/lcd.c **** }
 2217              		.loc 1 669 2 is_stmt 0 view .LVU690
 2218 00f2 13B1     		cbz	r3, .L122
 669:Drivers/display_ILI-93xx_sm/lcd.c **** }
 2219              		.loc 1 669 17 is_stmt 1 view .LVU691
 2220              		.syntax unified
 2221              	@ 669 "Drivers/display_ILI-93xx_sm/lcd.c" 1
 2222 00f4 00BF     		nop
 2223              	@ 0 "" 2
 669:Drivers/display_ILI-93xx_sm/lcd.c **** }
 2224              		.loc 1 669 13 is_stmt 0 view .LVU692
 2225              		.thumb
 2226              		.syntax unified
 2227 00f6 013B     		subs	r3, r3, #1
 2228              	.LVL121:
 669:Drivers/display_ILI-93xx_sm/lcd.c **** }
 2229              		.loc 1 669 13 view .LVU693
 2230 00f8 FBE7     		b	.L104
 2231              	.L122:
 2232              	.LVL122:
 669:Drivers/display_ILI-93xx_sm/lcd.c **** }
 2233              		.loc 1 669 13 view .LVU694
 2234              	.LBE228:
 2235              	.LBE227:
 2236              	.LBE222:
 2237              	.LBE221:
 968:Drivers/display_ILI-93xx_sm/lcd.c **** 	LCD_Write8(d >> 16);
 2238              		.loc 1 968 2 is_stmt 1 view .LVU695
 2239 00fa C1F30743 		ubfx	r3, r1, #16, #8
ARM GAS  /tmp/cc47Teva.s 			page 66


 2240              	.LBB229:
 2241              	.LBI229:
 847:Drivers/display_ILI-93xx_sm/lcd.c **** 	// ------ PORT -----     --- Data ----
 2242              		.loc 1 847 13 view .LVU696
 2243              	.LBB230:
 860:Drivers/display_ILI-93xx_sm/lcd.c **** 	GPIOB->ODR = (GPIOB->ODR & 0xFBC7) | (data & 0x08) | ((data & 0x10) << 1) | ((data & 0x20) >> 1) |
 2244              		.loc 1 860 2 view .LVU697
 860:Drivers/display_ILI-93xx_sm/lcd.c **** 	GPIOB->ODR = (GPIOB->ODR & 0xFBC7) | (data & 0x08) | ((data & 0x10) << 1) | ((data & 0x20) >> 1) |
 2245              		.loc 1 860 21 is_stmt 0 view .LVU698
 2246 00fe 5B4C     		ldr	r4, .L128
 2247 0100 E068     		ldr	r0, [r4, #12]
 860:Drivers/display_ILI-93xx_sm/lcd.c **** 	GPIOB->ODR = (GPIOB->ODR & 0xFBC7) | (data & 0x08) | ((data & 0x10) << 1) | ((data & 0x20) >> 1) |
 2248              		.loc 1 860 27 view .LVU699
 2249 0102 20F4F060 		bic	r0, r0, #1920
 2250 0106 0004     		lsls	r0, r0, #16
 2251 0108 000C     		lsrs	r0, r0, #16
 860:Drivers/display_ILI-93xx_sm/lcd.c **** 	GPIOB->ODR = (GPIOB->ODR & 0xFBC7) | (data & 0x08) | ((data & 0x10) << 1) | ((data & 0x20) >> 1) |
 2252              		.loc 1 860 54 view .LVU700
 2253 010a 5A02     		lsls	r2, r3, #9
 2254 010c 02F40072 		and	r2, r2, #512
 860:Drivers/display_ILI-93xx_sm/lcd.c **** 	GPIOB->ODR = (GPIOB->ODR & 0xFBC7) | (data & 0x08) | ((data & 0x10) << 1) | ((data & 0x20) >> 1) |
 2255              		.loc 1 860 37 view .LVU701
 2256 0110 1043     		orrs	r0, r0, r2
 860:Drivers/display_ILI-93xx_sm/lcd.c **** 	GPIOB->ODR = (GPIOB->ODR & 0xFBC7) | (data & 0x08) | ((data & 0x10) << 1) | ((data & 0x20) >> 1) |
 2257              		.loc 1 860 77 view .LVU702
 2258 0112 1A02     		lsls	r2, r3, #8
 2259 0114 02F48062 		and	r2, r2, #1024
 860:Drivers/display_ILI-93xx_sm/lcd.c **** 	GPIOB->ODR = (GPIOB->ODR & 0xFBC7) | (data & 0x08) | ((data & 0x10) << 1) | ((data & 0x20) >> 1) |
 2260              		.loc 1 860 60 view .LVU703
 2261 0118 1043     		orrs	r0, r0, r2
 860:Drivers/display_ILI-93xx_sm/lcd.c **** 	GPIOB->ODR = (GPIOB->ODR & 0xFBC7) | (data & 0x08) | ((data & 0x10) << 1) | ((data & 0x20) >> 1) |
 2262              		.loc 1 860 100 view .LVU704
 2263 011a 5D00     		lsls	r5, r3, #1
 2264 011c 05F48072 		and	r2, r5, #256
 860:Drivers/display_ILI-93xx_sm/lcd.c **** 	GPIOB->ODR = (GPIOB->ODR & 0xFBC7) | (data & 0x08) | ((data & 0x10) << 1) | ((data & 0x20) >> 1) |
 2265              		.loc 1 860 83 view .LVU705
 2266 0120 1043     		orrs	r0, r0, r2
 860:Drivers/display_ILI-93xx_sm/lcd.c **** 	GPIOB->ODR = (GPIOB->ODR & 0xFBC7) | (data & 0x08) | ((data & 0x10) << 1) | ((data & 0x20) >> 1) |
 2267              		.loc 1 860 123 view .LVU706
 2268 0122 9A01     		lsls	r2, r3, #6
 2269 0124 02F08002 		and	r2, r2, #128
 860:Drivers/display_ILI-93xx_sm/lcd.c **** 	GPIOB->ODR = (GPIOB->ODR & 0xFBC7) | (data & 0x08) | ((data & 0x10) << 1) | ((data & 0x20) >> 1) |
 2270              		.loc 1 860 106 view .LVU707
 2271 0128 1043     		orrs	r0, r0, r2
 860:Drivers/display_ILI-93xx_sm/lcd.c **** 	GPIOB->ODR = (GPIOB->ODR & 0xFBC7) | (data & 0x08) | ((data & 0x10) << 1) | ((data & 0x20) >> 1) |
 2272              		.loc 1 860 13 view .LVU708
 2273 012a E060     		str	r0, [r4, #12]
 861:Drivers/display_ILI-93xx_sm/lcd.c **** #else
 2274              		.loc 1 861 2 is_stmt 1 view .LVU709
 861:Drivers/display_ILI-93xx_sm/lcd.c **** #else
 2275              		.loc 1 861 21 is_stmt 0 view .LVU710
 2276 012c 5048     		ldr	r0, .L128+4
 2277 012e C268     		ldr	r2, [r0, #12]
 861:Drivers/display_ILI-93xx_sm/lcd.c **** #else
 2278              		.loc 1 861 27 view .LVU711
 2279 0130 22F48762 		bic	r2, r2, #1080
 2280 0134 1204     		lsls	r2, r2, #16
ARM GAS  /tmp/cc47Teva.s 			page 67


 2281 0136 120C     		lsrs	r2, r2, #16
 861:Drivers/display_ILI-93xx_sm/lcd.c **** #else
 2282              		.loc 1 861 45 view .LVU712
 2283 0138 03F00806 		and	r6, r3, #8
 861:Drivers/display_ILI-93xx_sm/lcd.c **** #else
 2284              		.loc 1 861 37 view .LVU713
 2285 013c 3243     		orrs	r2, r2, r6
 861:Drivers/display_ILI-93xx_sm/lcd.c **** #else
 2286              		.loc 1 861 70 view .LVU714
 2287 013e 05F02005 		and	r5, r5, #32
 861:Drivers/display_ILI-93xx_sm/lcd.c **** #else
 2288              		.loc 1 861 53 view .LVU715
 2289 0142 2A43     		orrs	r2, r2, r5
 861:Drivers/display_ILI-93xx_sm/lcd.c **** #else
 2290              		.loc 1 861 93 view .LVU716
 2291 0144 5D10     		asrs	r5, r3, #1
 2292 0146 05F01005 		and	r5, r5, #16
 861:Drivers/display_ILI-93xx_sm/lcd.c **** #else
 2293              		.loc 1 861 76 view .LVU717
 2294 014a 2A43     		orrs	r2, r2, r5
 861:Drivers/display_ILI-93xx_sm/lcd.c **** #else
 2295              		.loc 1 861 116 view .LVU718
 2296 014c 1B01     		lsls	r3, r3, #4
 2297 014e 03F48063 		and	r3, r3, #1024
 861:Drivers/display_ILI-93xx_sm/lcd.c **** #else
 2298              		.loc 1 861 99 view .LVU719
 2299 0152 1343     		orrs	r3, r3, r2
 861:Drivers/display_ILI-93xx_sm/lcd.c **** #else
 2300              		.loc 1 861 13 view .LVU720
 2301 0154 C360     		str	r3, [r0, #12]
 869:Drivers/display_ILI-93xx_sm/lcd.c **** }
 2302              		.loc 1 869 2 is_stmt 1 view .LVU721
 869:Drivers/display_ILI-93xx_sm/lcd.c **** }
 2303              		.loc 1 869 2 view .LVU722
 2304 0156 4FF40033 		mov	r3, #131072
 2305 015a 2361     		str	r3, [r4, #16]
 869:Drivers/display_ILI-93xx_sm/lcd.c **** }
 2306              		.loc 1 869 2 view .LVU723
 2307              	.LVL123:
 2308              	.LBB231:
 2309              	.LBI231:
 668:Drivers/display_ILI-93xx_sm/lcd.c **** 	for (; t; t--) __asm("nop");
 2310              		.loc 1 668 13 view .LVU724
 2311              	.LBB232:
 669:Drivers/display_ILI-93xx_sm/lcd.c **** }
 2312              		.loc 1 669 2 view .LVU725
 2313              	.LBE232:
 2314              	.LBE231:
 869:Drivers/display_ILI-93xx_sm/lcd.c **** }
 2315              		.loc 1 869 2 is_stmt 0 view .LVU726
 2316 015c 0223     		movs	r3, #2
 2317              	.LVL124:
 2318              	.L106:
 2319              	.LBB234:
 2320              	.LBB233:
 669:Drivers/display_ILI-93xx_sm/lcd.c **** }
 2321              		.loc 1 669 2 view .LVU727
ARM GAS  /tmp/cc47Teva.s 			page 68


 2322 015e 13B1     		cbz	r3, .L123
 669:Drivers/display_ILI-93xx_sm/lcd.c **** }
 2323              		.loc 1 669 17 is_stmt 1 view .LVU728
 2324              		.syntax unified
 2325              	@ 669 "Drivers/display_ILI-93xx_sm/lcd.c" 1
 2326 0160 00BF     		nop
 2327              	@ 0 "" 2
 669:Drivers/display_ILI-93xx_sm/lcd.c **** }
 2328              		.loc 1 669 13 is_stmt 0 view .LVU729
 2329              		.thumb
 2330              		.syntax unified
 2331 0162 013B     		subs	r3, r3, #1
 2332              	.LVL125:
 669:Drivers/display_ILI-93xx_sm/lcd.c **** }
 2333              		.loc 1 669 13 view .LVU730
 2334 0164 FBE7     		b	.L106
 2335              	.L123:
 2336              	.LVL126:
 669:Drivers/display_ILI-93xx_sm/lcd.c **** }
 2337              		.loc 1 669 13 view .LVU731
 2338              	.LBE233:
 2339              	.LBE234:
 869:Drivers/display_ILI-93xx_sm/lcd.c **** }
 2340              		.loc 1 869 2 is_stmt 1 view .LVU732
 2341 0166 0223     		movs	r3, #2
 2342 0168 404A     		ldr	r2, .L128
 2343 016a 1361     		str	r3, [r2, #16]
 869:Drivers/display_ILI-93xx_sm/lcd.c **** }
 2344              		.loc 1 869 2 view .LVU733
 2345              	.LVL127:
 2346              	.LBB235:
 2347              	.LBI235:
 668:Drivers/display_ILI-93xx_sm/lcd.c **** 	for (; t; t--) __asm("nop");
 2348              		.loc 1 668 13 view .LVU734
 2349              	.L108:
 2350              	.LBB236:
 669:Drivers/display_ILI-93xx_sm/lcd.c **** }
 2351              		.loc 1 669 2 is_stmt 0 view .LVU735
 2352 016c 13B1     		cbz	r3, .L124
 669:Drivers/display_ILI-93xx_sm/lcd.c **** }
 2353              		.loc 1 669 17 is_stmt 1 view .LVU736
 2354              		.syntax unified
 2355              	@ 669 "Drivers/display_ILI-93xx_sm/lcd.c" 1
 2356 016e 00BF     		nop
 2357              	@ 0 "" 2
 669:Drivers/display_ILI-93xx_sm/lcd.c **** }
 2358              		.loc 1 669 13 is_stmt 0 view .LVU737
 2359              		.thumb
 2360              		.syntax unified
 2361 0170 013B     		subs	r3, r3, #1
 2362              	.LVL128:
 669:Drivers/display_ILI-93xx_sm/lcd.c **** }
 2363              		.loc 1 669 13 view .LVU738
 2364 0172 FBE7     		b	.L108
 2365              	.L124:
 2366              	.LVL129:
 669:Drivers/display_ILI-93xx_sm/lcd.c **** }
ARM GAS  /tmp/cc47Teva.s 			page 69


 2367              		.loc 1 669 13 view .LVU739
 2368              	.LBE236:
 2369              	.LBE235:
 2370              	.LBE230:
 2371              	.LBE229:
 969:Drivers/display_ILI-93xx_sm/lcd.c **** 	LCD_Write8(d >> 8);
 2372              		.loc 1 969 2 is_stmt 1 view .LVU740
 2373 0174 C1F30723 		ubfx	r3, r1, #8, #8
 2374              	.LBB237:
 2375              	.LBI237:
 847:Drivers/display_ILI-93xx_sm/lcd.c **** 	// ------ PORT -----     --- Data ----
 2376              		.loc 1 847 13 view .LVU741
 2377              	.LBB238:
 860:Drivers/display_ILI-93xx_sm/lcd.c **** 	GPIOB->ODR = (GPIOB->ODR & 0xFBC7) | (data & 0x08) | ((data & 0x10) << 1) | ((data & 0x20) >> 1) |
 2378              		.loc 1 860 2 view .LVU742
 860:Drivers/display_ILI-93xx_sm/lcd.c **** 	GPIOB->ODR = (GPIOB->ODR & 0xFBC7) | (data & 0x08) | ((data & 0x10) << 1) | ((data & 0x20) >> 1) |
 2379              		.loc 1 860 21 is_stmt 0 view .LVU743
 2380 0178 3C4C     		ldr	r4, .L128
 2381 017a E068     		ldr	r0, [r4, #12]
 860:Drivers/display_ILI-93xx_sm/lcd.c **** 	GPIOB->ODR = (GPIOB->ODR & 0xFBC7) | (data & 0x08) | ((data & 0x10) << 1) | ((data & 0x20) >> 1) |
 2382              		.loc 1 860 27 view .LVU744
 2383 017c 20F4F060 		bic	r0, r0, #1920
 2384 0180 0004     		lsls	r0, r0, #16
 2385 0182 000C     		lsrs	r0, r0, #16
 860:Drivers/display_ILI-93xx_sm/lcd.c **** 	GPIOB->ODR = (GPIOB->ODR & 0xFBC7) | (data & 0x08) | ((data & 0x10) << 1) | ((data & 0x20) >> 1) |
 2386              		.loc 1 860 54 view .LVU745
 2387 0184 5A02     		lsls	r2, r3, #9
 2388 0186 02F40072 		and	r2, r2, #512
 860:Drivers/display_ILI-93xx_sm/lcd.c **** 	GPIOB->ODR = (GPIOB->ODR & 0xFBC7) | (data & 0x08) | ((data & 0x10) << 1) | ((data & 0x20) >> 1) |
 2389              		.loc 1 860 37 view .LVU746
 2390 018a 1043     		orrs	r0, r0, r2
 860:Drivers/display_ILI-93xx_sm/lcd.c **** 	GPIOB->ODR = (GPIOB->ODR & 0xFBC7) | (data & 0x08) | ((data & 0x10) << 1) | ((data & 0x20) >> 1) |
 2391              		.loc 1 860 77 view .LVU747
 2392 018c 1A02     		lsls	r2, r3, #8
 2393 018e 02F48062 		and	r2, r2, #1024
 860:Drivers/display_ILI-93xx_sm/lcd.c **** 	GPIOB->ODR = (GPIOB->ODR & 0xFBC7) | (data & 0x08) | ((data & 0x10) << 1) | ((data & 0x20) >> 1) |
 2394              		.loc 1 860 60 view .LVU748
 2395 0192 1043     		orrs	r0, r0, r2
 860:Drivers/display_ILI-93xx_sm/lcd.c **** 	GPIOB->ODR = (GPIOB->ODR & 0xFBC7) | (data & 0x08) | ((data & 0x10) << 1) | ((data & 0x20) >> 1) |
 2396              		.loc 1 860 100 view .LVU749
 2397 0194 5D00     		lsls	r5, r3, #1
 2398 0196 05F48072 		and	r2, r5, #256
 860:Drivers/display_ILI-93xx_sm/lcd.c **** 	GPIOB->ODR = (GPIOB->ODR & 0xFBC7) | (data & 0x08) | ((data & 0x10) << 1) | ((data & 0x20) >> 1) |
 2399              		.loc 1 860 83 view .LVU750
 2400 019a 1043     		orrs	r0, r0, r2
 860:Drivers/display_ILI-93xx_sm/lcd.c **** 	GPIOB->ODR = (GPIOB->ODR & 0xFBC7) | (data & 0x08) | ((data & 0x10) << 1) | ((data & 0x20) >> 1) |
 2401              		.loc 1 860 123 view .LVU751
 2402 019c 9A01     		lsls	r2, r3, #6
 2403 019e 02F08002 		and	r2, r2, #128
 860:Drivers/display_ILI-93xx_sm/lcd.c **** 	GPIOB->ODR = (GPIOB->ODR & 0xFBC7) | (data & 0x08) | ((data & 0x10) << 1) | ((data & 0x20) >> 1) |
 2404              		.loc 1 860 106 view .LVU752
 2405 01a2 1043     		orrs	r0, r0, r2
 860:Drivers/display_ILI-93xx_sm/lcd.c **** 	GPIOB->ODR = (GPIOB->ODR & 0xFBC7) | (data & 0x08) | ((data & 0x10) << 1) | ((data & 0x20) >> 1) |
 2406              		.loc 1 860 13 view .LVU753
 2407 01a4 E060     		str	r0, [r4, #12]
 861:Drivers/display_ILI-93xx_sm/lcd.c **** #else
 2408              		.loc 1 861 2 is_stmt 1 view .LVU754
ARM GAS  /tmp/cc47Teva.s 			page 70


 861:Drivers/display_ILI-93xx_sm/lcd.c **** #else
 2409              		.loc 1 861 21 is_stmt 0 view .LVU755
 2410 01a6 3248     		ldr	r0, .L128+4
 2411 01a8 C268     		ldr	r2, [r0, #12]
 861:Drivers/display_ILI-93xx_sm/lcd.c **** #else
 2412              		.loc 1 861 27 view .LVU756
 2413 01aa 22F48762 		bic	r2, r2, #1080
 2414 01ae 1204     		lsls	r2, r2, #16
 2415 01b0 120C     		lsrs	r2, r2, #16
 861:Drivers/display_ILI-93xx_sm/lcd.c **** #else
 2416              		.loc 1 861 45 view .LVU757
 2417 01b2 03F00806 		and	r6, r3, #8
 861:Drivers/display_ILI-93xx_sm/lcd.c **** #else
 2418              		.loc 1 861 37 view .LVU758
 2419 01b6 3243     		orrs	r2, r2, r6
 861:Drivers/display_ILI-93xx_sm/lcd.c **** #else
 2420              		.loc 1 861 70 view .LVU759
 2421 01b8 05F02005 		and	r5, r5, #32
 861:Drivers/display_ILI-93xx_sm/lcd.c **** #else
 2422              		.loc 1 861 53 view .LVU760
 2423 01bc 2A43     		orrs	r2, r2, r5
 861:Drivers/display_ILI-93xx_sm/lcd.c **** #else
 2424              		.loc 1 861 93 view .LVU761
 2425 01be 5D10     		asrs	r5, r3, #1
 2426 01c0 05F01005 		and	r5, r5, #16
 861:Drivers/display_ILI-93xx_sm/lcd.c **** #else
 2427              		.loc 1 861 76 view .LVU762
 2428 01c4 2A43     		orrs	r2, r2, r5
 861:Drivers/display_ILI-93xx_sm/lcd.c **** #else
 2429              		.loc 1 861 116 view .LVU763
 2430 01c6 1B01     		lsls	r3, r3, #4
 2431 01c8 03F48063 		and	r3, r3, #1024
 861:Drivers/display_ILI-93xx_sm/lcd.c **** #else
 2432              		.loc 1 861 99 view .LVU764
 2433 01cc 1343     		orrs	r3, r3, r2
 861:Drivers/display_ILI-93xx_sm/lcd.c **** #else
 2434              		.loc 1 861 13 view .LVU765
 2435 01ce C360     		str	r3, [r0, #12]
 869:Drivers/display_ILI-93xx_sm/lcd.c **** }
 2436              		.loc 1 869 2 is_stmt 1 view .LVU766
 869:Drivers/display_ILI-93xx_sm/lcd.c **** }
 2437              		.loc 1 869 2 view .LVU767
 2438 01d0 4FF40033 		mov	r3, #131072
 2439 01d4 2361     		str	r3, [r4, #16]
 869:Drivers/display_ILI-93xx_sm/lcd.c **** }
 2440              		.loc 1 869 2 view .LVU768
 2441              	.LVL130:
 2442              	.LBB239:
 2443              	.LBI239:
 668:Drivers/display_ILI-93xx_sm/lcd.c **** 	for (; t; t--) __asm("nop");
 2444              		.loc 1 668 13 view .LVU769
 2445              	.LBB240:
 669:Drivers/display_ILI-93xx_sm/lcd.c **** }
 2446              		.loc 1 669 2 view .LVU770
 2447              	.LBE240:
 2448              	.LBE239:
 869:Drivers/display_ILI-93xx_sm/lcd.c **** }
ARM GAS  /tmp/cc47Teva.s 			page 71


 2449              		.loc 1 869 2 is_stmt 0 view .LVU771
 2450 01d6 0223     		movs	r3, #2
 2451              	.LVL131:
 2452              	.L110:
 2453              	.LBB242:
 2454              	.LBB241:
 669:Drivers/display_ILI-93xx_sm/lcd.c **** }
 2455              		.loc 1 669 2 view .LVU772
 2456 01d8 13B1     		cbz	r3, .L125
 669:Drivers/display_ILI-93xx_sm/lcd.c **** }
 2457              		.loc 1 669 17 is_stmt 1 view .LVU773
 2458              		.syntax unified
 2459              	@ 669 "Drivers/display_ILI-93xx_sm/lcd.c" 1
 2460 01da 00BF     		nop
 2461              	@ 0 "" 2
 669:Drivers/display_ILI-93xx_sm/lcd.c **** }
 2462              		.loc 1 669 13 is_stmt 0 view .LVU774
 2463              		.thumb
 2464              		.syntax unified
 2465 01dc 013B     		subs	r3, r3, #1
 2466              	.LVL132:
 669:Drivers/display_ILI-93xx_sm/lcd.c **** }
 2467              		.loc 1 669 13 view .LVU775
 2468 01de FBE7     		b	.L110
 2469              	.L125:
 2470              	.LVL133:
 669:Drivers/display_ILI-93xx_sm/lcd.c **** }
 2471              		.loc 1 669 13 view .LVU776
 2472              	.LBE241:
 2473              	.LBE242:
 869:Drivers/display_ILI-93xx_sm/lcd.c **** }
 2474              		.loc 1 869 2 is_stmt 1 view .LVU777
 2475 01e0 0223     		movs	r3, #2
 2476 01e2 224A     		ldr	r2, .L128
 2477 01e4 1361     		str	r3, [r2, #16]
 869:Drivers/display_ILI-93xx_sm/lcd.c **** }
 2478              		.loc 1 869 2 view .LVU778
 2479              	.LVL134:
 2480              	.LBB243:
 2481              	.LBI243:
 668:Drivers/display_ILI-93xx_sm/lcd.c **** 	for (; t; t--) __asm("nop");
 2482              		.loc 1 668 13 view .LVU779
 2483 01e6 01E0     		b	.L112
 2484              	.LVL135:
 2485              	.L113:
 2486              	.LBB244:
 669:Drivers/display_ILI-93xx_sm/lcd.c **** }
 2487              		.loc 1 669 17 view .LVU780
 2488              		.syntax unified
 2489              	@ 669 "Drivers/display_ILI-93xx_sm/lcd.c" 1
 2490 01e8 00BF     		nop
 2491              	@ 0 "" 2
 669:Drivers/display_ILI-93xx_sm/lcd.c **** }
 2492              		.loc 1 669 13 is_stmt 0 view .LVU781
 2493              		.thumb
 2494              		.syntax unified
 2495 01ea 013B     		subs	r3, r3, #1
ARM GAS  /tmp/cc47Teva.s 			page 72


 2496              	.LVL136:
 2497              	.L112:
 669:Drivers/display_ILI-93xx_sm/lcd.c **** }
 2498              		.loc 1 669 2 view .LVU782
 2499 01ec 002B     		cmp	r3, #0
 2500 01ee FBD1     		bne	.L113
 2501              	.LVL137:
 669:Drivers/display_ILI-93xx_sm/lcd.c **** }
 2502              		.loc 1 669 2 view .LVU783
 2503              	.LBE244:
 2504              	.LBE243:
 2505              	.LBE238:
 2506              	.LBE237:
 970:Drivers/display_ILI-93xx_sm/lcd.c **** 	LCD_Write8(d);
 2507              		.loc 1 970 2 is_stmt 1 view .LVU784
 2508 01f0 C9B2     		uxtb	r1, r1
 2509              	.LVL138:
 2510              	.LBB245:
 2511              	.LBI245:
 847:Drivers/display_ILI-93xx_sm/lcd.c **** 	// ------ PORT -----     --- Data ----
 2512              		.loc 1 847 13 view .LVU785
 2513              	.LBB246:
 860:Drivers/display_ILI-93xx_sm/lcd.c **** 	GPIOB->ODR = (GPIOB->ODR & 0xFBC7) | (data & 0x08) | ((data & 0x10) << 1) | ((data & 0x20) >> 1) |
 2514              		.loc 1 860 2 view .LVU786
 860:Drivers/display_ILI-93xx_sm/lcd.c **** 	GPIOB->ODR = (GPIOB->ODR & 0xFBC7) | (data & 0x08) | ((data & 0x10) << 1) | ((data & 0x20) >> 1) |
 2515              		.loc 1 860 21 is_stmt 0 view .LVU787
 2516 01f2 1E48     		ldr	r0, .L128
 2517 01f4 C268     		ldr	r2, [r0, #12]
 860:Drivers/display_ILI-93xx_sm/lcd.c **** 	GPIOB->ODR = (GPIOB->ODR & 0xFBC7) | (data & 0x08) | ((data & 0x10) << 1) | ((data & 0x20) >> 1) |
 2518              		.loc 1 860 27 view .LVU788
 2519 01f6 22F4F062 		bic	r2, r2, #1920
 2520 01fa 1204     		lsls	r2, r2, #16
 2521 01fc 120C     		lsrs	r2, r2, #16
 860:Drivers/display_ILI-93xx_sm/lcd.c **** 	GPIOB->ODR = (GPIOB->ODR & 0xFBC7) | (data & 0x08) | ((data & 0x10) << 1) | ((data & 0x20) >> 1) |
 2522              		.loc 1 860 54 view .LVU789
 2523 01fe 4B02     		lsls	r3, r1, #9
 2524 0200 03F40073 		and	r3, r3, #512
 860:Drivers/display_ILI-93xx_sm/lcd.c **** 	GPIOB->ODR = (GPIOB->ODR & 0xFBC7) | (data & 0x08) | ((data & 0x10) << 1) | ((data & 0x20) >> 1) |
 2525              		.loc 1 860 37 view .LVU790
 2526 0204 1A43     		orrs	r2, r2, r3
 860:Drivers/display_ILI-93xx_sm/lcd.c **** 	GPIOB->ODR = (GPIOB->ODR & 0xFBC7) | (data & 0x08) | ((data & 0x10) << 1) | ((data & 0x20) >> 1) |
 2527              		.loc 1 860 77 view .LVU791
 2528 0206 0B02     		lsls	r3, r1, #8
 2529 0208 03F48063 		and	r3, r3, #1024
 860:Drivers/display_ILI-93xx_sm/lcd.c **** 	GPIOB->ODR = (GPIOB->ODR & 0xFBC7) | (data & 0x08) | ((data & 0x10) << 1) | ((data & 0x20) >> 1) |
 2530              		.loc 1 860 60 view .LVU792
 2531 020c 1A43     		orrs	r2, r2, r3
 860:Drivers/display_ILI-93xx_sm/lcd.c **** 	GPIOB->ODR = (GPIOB->ODR & 0xFBC7) | (data & 0x08) | ((data & 0x10) << 1) | ((data & 0x20) >> 1) |
 2532              		.loc 1 860 100 view .LVU793
 2533 020e 4C00     		lsls	r4, r1, #1
 2534 0210 04F48073 		and	r3, r4, #256
 860:Drivers/display_ILI-93xx_sm/lcd.c **** 	GPIOB->ODR = (GPIOB->ODR & 0xFBC7) | (data & 0x08) | ((data & 0x10) << 1) | ((data & 0x20) >> 1) |
 2535              		.loc 1 860 83 view .LVU794
 2536 0214 1A43     		orrs	r2, r2, r3
 860:Drivers/display_ILI-93xx_sm/lcd.c **** 	GPIOB->ODR = (GPIOB->ODR & 0xFBC7) | (data & 0x08) | ((data & 0x10) << 1) | ((data & 0x20) >> 1) |
 2537              		.loc 1 860 123 view .LVU795
 2538 0216 8B01     		lsls	r3, r1, #6
ARM GAS  /tmp/cc47Teva.s 			page 73


 2539 0218 03F08003 		and	r3, r3, #128
 860:Drivers/display_ILI-93xx_sm/lcd.c **** 	GPIOB->ODR = (GPIOB->ODR & 0xFBC7) | (data & 0x08) | ((data & 0x10) << 1) | ((data & 0x20) >> 1) |
 2540              		.loc 1 860 106 view .LVU796
 2541 021c 1A43     		orrs	r2, r2, r3
 860:Drivers/display_ILI-93xx_sm/lcd.c **** 	GPIOB->ODR = (GPIOB->ODR & 0xFBC7) | (data & 0x08) | ((data & 0x10) << 1) | ((data & 0x20) >> 1) |
 2542              		.loc 1 860 13 view .LVU797
 2543 021e C260     		str	r2, [r0, #12]
 861:Drivers/display_ILI-93xx_sm/lcd.c **** #else
 2544              		.loc 1 861 2 is_stmt 1 view .LVU798
 861:Drivers/display_ILI-93xx_sm/lcd.c **** #else
 2545              		.loc 1 861 21 is_stmt 0 view .LVU799
 2546 0220 134D     		ldr	r5, .L128+4
 2547 0222 EB68     		ldr	r3, [r5, #12]
 861:Drivers/display_ILI-93xx_sm/lcd.c **** #else
 2548              		.loc 1 861 27 view .LVU800
 2549 0224 23F48763 		bic	r3, r3, #1080
 2550 0228 1B04     		lsls	r3, r3, #16
 2551 022a 1B0C     		lsrs	r3, r3, #16
 861:Drivers/display_ILI-93xx_sm/lcd.c **** #else
 2552              		.loc 1 861 45 view .LVU801
 2553 022c 01F00802 		and	r2, r1, #8
 861:Drivers/display_ILI-93xx_sm/lcd.c **** #else
 2554              		.loc 1 861 37 view .LVU802
 2555 0230 1343     		orrs	r3, r3, r2
 861:Drivers/display_ILI-93xx_sm/lcd.c **** #else
 2556              		.loc 1 861 70 view .LVU803
 2557 0232 04F02004 		and	r4, r4, #32
 861:Drivers/display_ILI-93xx_sm/lcd.c **** #else
 2558              		.loc 1 861 53 view .LVU804
 2559 0236 2343     		orrs	r3, r3, r4
 861:Drivers/display_ILI-93xx_sm/lcd.c **** #else
 2560              		.loc 1 861 93 view .LVU805
 2561 0238 4A10     		asrs	r2, r1, #1
 2562 023a 02F01002 		and	r2, r2, #16
 861:Drivers/display_ILI-93xx_sm/lcd.c **** #else
 2563              		.loc 1 861 76 view .LVU806
 2564 023e 1343     		orrs	r3, r3, r2
 861:Drivers/display_ILI-93xx_sm/lcd.c **** #else
 2565              		.loc 1 861 116 view .LVU807
 2566 0240 0901     		lsls	r1, r1, #4
 2567              	.LVL139:
 861:Drivers/display_ILI-93xx_sm/lcd.c **** #else
 2568              		.loc 1 861 116 view .LVU808
 2569 0242 01F48061 		and	r1, r1, #1024
 861:Drivers/display_ILI-93xx_sm/lcd.c **** #else
 2570              		.loc 1 861 99 view .LVU809
 2571 0246 1943     		orrs	r1, r1, r3
 861:Drivers/display_ILI-93xx_sm/lcd.c **** #else
 2572              		.loc 1 861 13 view .LVU810
 2573 0248 E960     		str	r1, [r5, #12]
 869:Drivers/display_ILI-93xx_sm/lcd.c **** }
 2574              		.loc 1 869 2 is_stmt 1 view .LVU811
 869:Drivers/display_ILI-93xx_sm/lcd.c **** }
 2575              		.loc 1 869 2 view .LVU812
 2576 024a 4FF40033 		mov	r3, #131072
 2577 024e 0361     		str	r3, [r0, #16]
 869:Drivers/display_ILI-93xx_sm/lcd.c **** }
ARM GAS  /tmp/cc47Teva.s 			page 74


 2578              		.loc 1 869 2 view .LVU813
 2579              	.LVL140:
 2580              	.LBB247:
 2581              	.LBI247:
 668:Drivers/display_ILI-93xx_sm/lcd.c **** 	for (; t; t--) __asm("nop");
 2582              		.loc 1 668 13 view .LVU814
 2583              	.LBB248:
 669:Drivers/display_ILI-93xx_sm/lcd.c **** }
 2584              		.loc 1 669 2 view .LVU815
 2585              	.LBE248:
 2586              	.LBE247:
 869:Drivers/display_ILI-93xx_sm/lcd.c **** }
 2587              		.loc 1 869 2 is_stmt 0 view .LVU816
 2588 0250 0223     		movs	r3, #2
 2589              	.LVL141:
 2590              	.L114:
 2591              	.LBB250:
 2592              	.LBB249:
 669:Drivers/display_ILI-93xx_sm/lcd.c **** }
 2593              		.loc 1 669 2 view .LVU817
 2594 0252 13B1     		cbz	r3, .L126
 669:Drivers/display_ILI-93xx_sm/lcd.c **** }
 2595              		.loc 1 669 17 is_stmt 1 view .LVU818
 2596              		.syntax unified
 2597              	@ 669 "Drivers/display_ILI-93xx_sm/lcd.c" 1
 2598 0254 00BF     		nop
 2599              	@ 0 "" 2
 669:Drivers/display_ILI-93xx_sm/lcd.c **** }
 2600              		.loc 1 669 13 is_stmt 0 view .LVU819
 2601              		.thumb
 2602              		.syntax unified
 2603 0256 013B     		subs	r3, r3, #1
 2604              	.LVL142:
 669:Drivers/display_ILI-93xx_sm/lcd.c **** }
 2605              		.loc 1 669 13 view .LVU820
 2606 0258 FBE7     		b	.L114
 2607              	.L126:
 2608              	.LVL143:
 669:Drivers/display_ILI-93xx_sm/lcd.c **** }
 2609              		.loc 1 669 13 view .LVU821
 2610              	.LBE249:
 2611              	.LBE250:
 869:Drivers/display_ILI-93xx_sm/lcd.c **** }
 2612              		.loc 1 869 2 is_stmt 1 view .LVU822
 2613 025a 0223     		movs	r3, #2
 2614 025c 034A     		ldr	r2, .L128
 2615 025e 1361     		str	r3, [r2, #16]
 869:Drivers/display_ILI-93xx_sm/lcd.c **** }
 2616              		.loc 1 869 2 view .LVU823
 2617              	.LVL144:
 2618              	.LBB251:
 2619              	.LBI251:
 668:Drivers/display_ILI-93xx_sm/lcd.c **** 	for (; t; t--) __asm("nop");
 2620              		.loc 1 668 13 view .LVU824
 2621              	.L116:
 2622              	.LBB252:
 669:Drivers/display_ILI-93xx_sm/lcd.c **** }
ARM GAS  /tmp/cc47Teva.s 			page 75


 2623              		.loc 1 669 2 is_stmt 0 view .LVU825
 2624 0260 13B1     		cbz	r3, .L127
 669:Drivers/display_ILI-93xx_sm/lcd.c **** }
 2625              		.loc 1 669 17 is_stmt 1 view .LVU826
 2626              		.syntax unified
 2627              	@ 669 "Drivers/display_ILI-93xx_sm/lcd.c" 1
 2628 0262 00BF     		nop
 2629              	@ 0 "" 2
 669:Drivers/display_ILI-93xx_sm/lcd.c **** }
 2630              		.loc 1 669 13 is_stmt 0 view .LVU827
 2631              		.thumb
 2632              		.syntax unified
 2633 0264 013B     		subs	r3, r3, #1
 2634              	.LVL145:
 669:Drivers/display_ILI-93xx_sm/lcd.c **** }
 2635              		.loc 1 669 13 view .LVU828
 2636 0266 FBE7     		b	.L116
 2637              	.L127:
 669:Drivers/display_ILI-93xx_sm/lcd.c **** }
 2638              		.loc 1 669 13 view .LVU829
 2639              	.LBE252:
 2640              	.LBE251:
 2641              	.LBE246:
 2642              	.LBE245:
 971:Drivers/display_ILI-93xx_sm/lcd.c **** }
 2643              		.loc 1 971 1 view .LVU830
 2644 0268 70BC     		pop	{r4, r5, r6}
 2645              	.LCFI12:
 2646              		.cfi_restore 6
 2647              		.cfi_restore 5
 2648              		.cfi_restore 4
 2649              		.cfi_def_cfa_offset 0
 2650 026a 7047     		bx	lr
 2651              	.L129:
 2652              		.align	2
 2653              	.L128:
 2654 026c 00080140 		.word	1073809408
 2655 0270 000C0140 		.word	1073810432
 2656              		.cfi_endproc
 2657              	.LFE75:
 2659              		.section	.text.LCD_Write16Register16,"ax",%progbits
 2660              		.align	1
 2661              		.global	LCD_Write16Register16
 2662              		.syntax unified
 2663              		.thumb
 2664              		.thumb_func
 2665              		.fpu softvfp
 2667              	LCD_Write16Register16:
 2668              	.LVL146:
 2669              	.LFB76:
 972:Drivers/display_ILI-93xx_sm/lcd.c **** 
 973:Drivers/display_ILI-93xx_sm/lcd.c **** /**
 974:Drivers/display_ILI-93xx_sm/lcd.c ****  * \brief Writes 16-Bit data to register (16-bit address)
 975:Drivers/display_ILI-93xx_sm/lcd.c ****  *
 976:Drivers/display_ILI-93xx_sm/lcd.c ****  * \param a		Register
 977:Drivers/display_ILI-93xx_sm/lcd.c ****  * \param d		Data
 978:Drivers/display_ILI-93xx_sm/lcd.c ****  *
ARM GAS  /tmp/cc47Teva.s 			page 76


 979:Drivers/display_ILI-93xx_sm/lcd.c ****  * \return void
 980:Drivers/display_ILI-93xx_sm/lcd.c ****  */
 981:Drivers/display_ILI-93xx_sm/lcd.c **** inline void LCD_Write16Register16(uint16_t a, uint16_t d) {
 2670              		.loc 1 981 59 is_stmt 1 view -0
 2671              		.cfi_startproc
 2672              		@ args = 0, pretend = 0, frame = 0
 2673              		@ frame_needed = 0, uses_anonymous_args = 0
 2674              		@ link register save eliminated.
 2675              		.loc 1 981 59 is_stmt 0 view .LVU832
 2676 0000 F0B4     		push	{r4, r5, r6, r7}
 2677              	.LCFI13:
 2678              		.cfi_def_cfa_offset 16
 2679              		.cfi_offset 4, -16
 2680              		.cfi_offset 5, -12
 2681              		.cfi_offset 6, -8
 2682              		.cfi_offset 7, -4
 982:Drivers/display_ILI-93xx_sm/lcd.c **** 	LCD_CD_COMMAND();
 2683              		.loc 1 982 2 is_stmt 1 view .LVU833
 2684 0002 7C4D     		ldr	r5, .L155
 2685 0004 4FF48013 		mov	r3, #1048576
 2686 0008 2B61     		str	r3, [r5, #16]
 983:Drivers/display_ILI-93xx_sm/lcd.c **** 	LCD_Write8(a >> 8);
 2687              		.loc 1 983 2 view .LVU834
 2688 000a 020A     		lsrs	r2, r0, #8
 2689              	.LVL147:
 2690              	.LBB277:
 2691              	.LBI277:
 847:Drivers/display_ILI-93xx_sm/lcd.c **** 	// ------ PORT -----     --- Data ----
 2692              		.loc 1 847 13 view .LVU835
 2693              	.LBB278:
 860:Drivers/display_ILI-93xx_sm/lcd.c **** 	GPIOB->ODR = (GPIOB->ODR & 0xFBC7) | (data & 0x08) | ((data & 0x10) << 1) | ((data & 0x20) >> 1) |
 2694              		.loc 1 860 2 view .LVU836
 860:Drivers/display_ILI-93xx_sm/lcd.c **** 	GPIOB->ODR = (GPIOB->ODR & 0xFBC7) | (data & 0x08) | ((data & 0x10) << 1) | ((data & 0x20) >> 1) |
 2695              		.loc 1 860 21 is_stmt 0 view .LVU837
 2696 000c EC68     		ldr	r4, [r5, #12]
 860:Drivers/display_ILI-93xx_sm/lcd.c **** 	GPIOB->ODR = (GPIOB->ODR & 0xFBC7) | (data & 0x08) | ((data & 0x10) << 1) | ((data & 0x20) >> 1) |
 2697              		.loc 1 860 27 view .LVU838
 2698 000e 24F4F064 		bic	r4, r4, #1920
 2699 0012 2404     		lsls	r4, r4, #16
 2700 0014 240C     		lsrs	r4, r4, #16
 860:Drivers/display_ILI-93xx_sm/lcd.c **** 	GPIOB->ODR = (GPIOB->ODR & 0xFBC7) | (data & 0x08) | ((data & 0x10) << 1) | ((data & 0x20) >> 1) |
 2701              		.loc 1 860 54 view .LVU839
 2702 0016 5302     		lsls	r3, r2, #9
 2703 0018 03F40073 		and	r3, r3, #512
 860:Drivers/display_ILI-93xx_sm/lcd.c **** 	GPIOB->ODR = (GPIOB->ODR & 0xFBC7) | (data & 0x08) | ((data & 0x10) << 1) | ((data & 0x20) >> 1) |
 2704              		.loc 1 860 37 view .LVU840
 2705 001c 1C43     		orrs	r4, r4, r3
 860:Drivers/display_ILI-93xx_sm/lcd.c **** 	GPIOB->ODR = (GPIOB->ODR & 0xFBC7) | (data & 0x08) | ((data & 0x10) << 1) | ((data & 0x20) >> 1) |
 2706              		.loc 1 860 77 view .LVU841
 2707 001e 1302     		lsls	r3, r2, #8
 2708 0020 03F48063 		and	r3, r3, #1024
 860:Drivers/display_ILI-93xx_sm/lcd.c **** 	GPIOB->ODR = (GPIOB->ODR & 0xFBC7) | (data & 0x08) | ((data & 0x10) << 1) | ((data & 0x20) >> 1) |
 2709              		.loc 1 860 60 view .LVU842
 2710 0024 1C43     		orrs	r4, r4, r3
 860:Drivers/display_ILI-93xx_sm/lcd.c **** 	GPIOB->ODR = (GPIOB->ODR & 0xFBC7) | (data & 0x08) | ((data & 0x10) << 1) | ((data & 0x20) >> 1) |
 2711              		.loc 1 860 100 view .LVU843
 2712 0026 5600     		lsls	r6, r2, #1
ARM GAS  /tmp/cc47Teva.s 			page 77


 2713 0028 06F48073 		and	r3, r6, #256
 860:Drivers/display_ILI-93xx_sm/lcd.c **** 	GPIOB->ODR = (GPIOB->ODR & 0xFBC7) | (data & 0x08) | ((data & 0x10) << 1) | ((data & 0x20) >> 1) |
 2714              		.loc 1 860 83 view .LVU844
 2715 002c 1C43     		orrs	r4, r4, r3
 860:Drivers/display_ILI-93xx_sm/lcd.c **** 	GPIOB->ODR = (GPIOB->ODR & 0xFBC7) | (data & 0x08) | ((data & 0x10) << 1) | ((data & 0x20) >> 1) |
 2716              		.loc 1 860 123 view .LVU845
 2717 002e 9301     		lsls	r3, r2, #6
 2718 0030 03F08003 		and	r3, r3, #128
 860:Drivers/display_ILI-93xx_sm/lcd.c **** 	GPIOB->ODR = (GPIOB->ODR & 0xFBC7) | (data & 0x08) | ((data & 0x10) << 1) | ((data & 0x20) >> 1) |
 2719              		.loc 1 860 106 view .LVU846
 2720 0034 1C43     		orrs	r4, r4, r3
 860:Drivers/display_ILI-93xx_sm/lcd.c **** 	GPIOB->ODR = (GPIOB->ODR & 0xFBC7) | (data & 0x08) | ((data & 0x10) << 1) | ((data & 0x20) >> 1) |
 2721              		.loc 1 860 13 view .LVU847
 2722 0036 EC60     		str	r4, [r5, #12]
 861:Drivers/display_ILI-93xx_sm/lcd.c **** #else
 2723              		.loc 1 861 2 is_stmt 1 view .LVU848
 861:Drivers/display_ILI-93xx_sm/lcd.c **** #else
 2724              		.loc 1 861 21 is_stmt 0 view .LVU849
 2725 0038 6F4C     		ldr	r4, .L155+4
 2726 003a E368     		ldr	r3, [r4, #12]
 861:Drivers/display_ILI-93xx_sm/lcd.c **** #else
 2727              		.loc 1 861 27 view .LVU850
 2728 003c 23F48763 		bic	r3, r3, #1080
 2729 0040 1B04     		lsls	r3, r3, #16
 2730 0042 1B0C     		lsrs	r3, r3, #16
 861:Drivers/display_ILI-93xx_sm/lcd.c **** #else
 2731              		.loc 1 861 45 view .LVU851
 2732 0044 02F00807 		and	r7, r2, #8
 861:Drivers/display_ILI-93xx_sm/lcd.c **** #else
 2733              		.loc 1 861 37 view .LVU852
 2734 0048 3B43     		orrs	r3, r3, r7
 861:Drivers/display_ILI-93xx_sm/lcd.c **** #else
 2735              		.loc 1 861 70 view .LVU853
 2736 004a 06F02006 		and	r6, r6, #32
 861:Drivers/display_ILI-93xx_sm/lcd.c **** #else
 2737              		.loc 1 861 53 view .LVU854
 2738 004e 3343     		orrs	r3, r3, r6
 861:Drivers/display_ILI-93xx_sm/lcd.c **** #else
 2739              		.loc 1 861 93 view .LVU855
 2740 0050 5610     		asrs	r6, r2, #1
 2741 0052 06F01006 		and	r6, r6, #16
 861:Drivers/display_ILI-93xx_sm/lcd.c **** #else
 2742              		.loc 1 861 76 view .LVU856
 2743 0056 3343     		orrs	r3, r3, r6
 861:Drivers/display_ILI-93xx_sm/lcd.c **** #else
 2744              		.loc 1 861 116 view .LVU857
 2745 0058 1201     		lsls	r2, r2, #4
 2746              	.LVL148:
 861:Drivers/display_ILI-93xx_sm/lcd.c **** #else
 2747              		.loc 1 861 116 view .LVU858
 2748 005a 02F48062 		and	r2, r2, #1024
 861:Drivers/display_ILI-93xx_sm/lcd.c **** #else
 2749              		.loc 1 861 99 view .LVU859
 2750 005e 1343     		orrs	r3, r3, r2
 861:Drivers/display_ILI-93xx_sm/lcd.c **** #else
 2751              		.loc 1 861 13 view .LVU860
 2752 0060 E360     		str	r3, [r4, #12]
ARM GAS  /tmp/cc47Teva.s 			page 78


 869:Drivers/display_ILI-93xx_sm/lcd.c **** }
 2753              		.loc 1 869 2 is_stmt 1 view .LVU861
 869:Drivers/display_ILI-93xx_sm/lcd.c **** }
 2754              		.loc 1 869 2 view .LVU862
 2755 0062 4FF40033 		mov	r3, #131072
 2756 0066 2B61     		str	r3, [r5, #16]
 869:Drivers/display_ILI-93xx_sm/lcd.c **** }
 2757              		.loc 1 869 2 view .LVU863
 2758              	.LVL149:
 2759              	.LBB279:
 2760              	.LBI279:
 668:Drivers/display_ILI-93xx_sm/lcd.c **** 	for (; t; t--) __asm("nop");
 2761              		.loc 1 668 13 view .LVU864
 2762              	.LBB280:
 669:Drivers/display_ILI-93xx_sm/lcd.c **** }
 2763              		.loc 1 669 2 view .LVU865
 2764              	.LBE280:
 2765              	.LBE279:
 869:Drivers/display_ILI-93xx_sm/lcd.c **** }
 2766              		.loc 1 869 2 is_stmt 0 view .LVU866
 2767 0068 0223     		movs	r3, #2
 2768              	.LVL150:
 2769              	.L131:
 2770              	.LBB282:
 2771              	.LBB281:
 669:Drivers/display_ILI-93xx_sm/lcd.c **** }
 2772              		.loc 1 669 2 view .LVU867
 2773 006a 13B1     		cbz	r3, .L148
 669:Drivers/display_ILI-93xx_sm/lcd.c **** }
 2774              		.loc 1 669 17 is_stmt 1 view .LVU868
 2775              		.syntax unified
 2776              	@ 669 "Drivers/display_ILI-93xx_sm/lcd.c" 1
 2777 006c 00BF     		nop
 2778              	@ 0 "" 2
 669:Drivers/display_ILI-93xx_sm/lcd.c **** }
 2779              		.loc 1 669 13 is_stmt 0 view .LVU869
 2780              		.thumb
 2781              		.syntax unified
 2782 006e 013B     		subs	r3, r3, #1
 2783              	.LVL151:
 669:Drivers/display_ILI-93xx_sm/lcd.c **** }
 2784              		.loc 1 669 13 view .LVU870
 2785 0070 FBE7     		b	.L131
 2786              	.L148:
 2787              	.LVL152:
 669:Drivers/display_ILI-93xx_sm/lcd.c **** }
 2788              		.loc 1 669 13 view .LVU871
 2789              	.LBE281:
 2790              	.LBE282:
 869:Drivers/display_ILI-93xx_sm/lcd.c **** }
 2791              		.loc 1 869 2 is_stmt 1 view .LVU872
 2792 0072 0223     		movs	r3, #2
 2793 0074 5F4A     		ldr	r2, .L155
 2794 0076 1361     		str	r3, [r2, #16]
 869:Drivers/display_ILI-93xx_sm/lcd.c **** }
 2795              		.loc 1 869 2 view .LVU873
 2796              	.LVL153:
ARM GAS  /tmp/cc47Teva.s 			page 79


 2797              	.LBB283:
 2798              	.LBI283:
 668:Drivers/display_ILI-93xx_sm/lcd.c **** 	for (; t; t--) __asm("nop");
 2799              		.loc 1 668 13 view .LVU874
 2800              	.L133:
 2801              	.LBB284:
 669:Drivers/display_ILI-93xx_sm/lcd.c **** }
 2802              		.loc 1 669 2 is_stmt 0 view .LVU875
 2803 0078 13B1     		cbz	r3, .L149
 669:Drivers/display_ILI-93xx_sm/lcd.c **** }
 2804              		.loc 1 669 17 is_stmt 1 view .LVU876
 2805              		.syntax unified
 2806              	@ 669 "Drivers/display_ILI-93xx_sm/lcd.c" 1
 2807 007a 00BF     		nop
 2808              	@ 0 "" 2
 669:Drivers/display_ILI-93xx_sm/lcd.c **** }
 2809              		.loc 1 669 13 is_stmt 0 view .LVU877
 2810              		.thumb
 2811              		.syntax unified
 2812 007c 013B     		subs	r3, r3, #1
 2813              	.LVL154:
 669:Drivers/display_ILI-93xx_sm/lcd.c **** }
 2814              		.loc 1 669 13 view .LVU878
 2815 007e FBE7     		b	.L133
 2816              	.L149:
 2817              	.LVL155:
 669:Drivers/display_ILI-93xx_sm/lcd.c **** }
 2818              		.loc 1 669 13 view .LVU879
 2819              	.LBE284:
 2820              	.LBE283:
 2821              	.LBE278:
 2822              	.LBE277:
 984:Drivers/display_ILI-93xx_sm/lcd.c **** 	LCD_Write8(a);
 2823              		.loc 1 984 2 is_stmt 1 view .LVU880
 2824 0080 C0B2     		uxtb	r0, r0
 2825              	.LVL156:
 2826              	.LBB285:
 2827              	.LBI285:
 847:Drivers/display_ILI-93xx_sm/lcd.c **** 	// ------ PORT -----     --- Data ----
 2828              		.loc 1 847 13 view .LVU881
 2829              	.LBB286:
 860:Drivers/display_ILI-93xx_sm/lcd.c **** 	GPIOB->ODR = (GPIOB->ODR & 0xFBC7) | (data & 0x08) | ((data & 0x10) << 1) | ((data & 0x20) >> 1) |
 2830              		.loc 1 860 2 view .LVU882
 860:Drivers/display_ILI-93xx_sm/lcd.c **** 	GPIOB->ODR = (GPIOB->ODR & 0xFBC7) | (data & 0x08) | ((data & 0x10) << 1) | ((data & 0x20) >> 1) |
 2831              		.loc 1 860 21 is_stmt 0 view .LVU883
 2832 0082 5C4C     		ldr	r4, .L155
 2833 0084 E268     		ldr	r2, [r4, #12]
 860:Drivers/display_ILI-93xx_sm/lcd.c **** 	GPIOB->ODR = (GPIOB->ODR & 0xFBC7) | (data & 0x08) | ((data & 0x10) << 1) | ((data & 0x20) >> 1) |
 2834              		.loc 1 860 27 view .LVU884
 2835 0086 22F4F062 		bic	r2, r2, #1920
 2836 008a 1204     		lsls	r2, r2, #16
 2837 008c 120C     		lsrs	r2, r2, #16
 860:Drivers/display_ILI-93xx_sm/lcd.c **** 	GPIOB->ODR = (GPIOB->ODR & 0xFBC7) | (data & 0x08) | ((data & 0x10) << 1) | ((data & 0x20) >> 1) |
 2838              		.loc 1 860 54 view .LVU885
 2839 008e 4302     		lsls	r3, r0, #9
 2840 0090 03F40073 		and	r3, r3, #512
 860:Drivers/display_ILI-93xx_sm/lcd.c **** 	GPIOB->ODR = (GPIOB->ODR & 0xFBC7) | (data & 0x08) | ((data & 0x10) << 1) | ((data & 0x20) >> 1) |
ARM GAS  /tmp/cc47Teva.s 			page 80


 2841              		.loc 1 860 37 view .LVU886
 2842 0094 1A43     		orrs	r2, r2, r3
 860:Drivers/display_ILI-93xx_sm/lcd.c **** 	GPIOB->ODR = (GPIOB->ODR & 0xFBC7) | (data & 0x08) | ((data & 0x10) << 1) | ((data & 0x20) >> 1) |
 2843              		.loc 1 860 77 view .LVU887
 2844 0096 0302     		lsls	r3, r0, #8
 2845 0098 03F48063 		and	r3, r3, #1024
 860:Drivers/display_ILI-93xx_sm/lcd.c **** 	GPIOB->ODR = (GPIOB->ODR & 0xFBC7) | (data & 0x08) | ((data & 0x10) << 1) | ((data & 0x20) >> 1) |
 2846              		.loc 1 860 60 view .LVU888
 2847 009c 1A43     		orrs	r2, r2, r3
 860:Drivers/display_ILI-93xx_sm/lcd.c **** 	GPIOB->ODR = (GPIOB->ODR & 0xFBC7) | (data & 0x08) | ((data & 0x10) << 1) | ((data & 0x20) >> 1) |
 2848              		.loc 1 860 100 view .LVU889
 2849 009e 4500     		lsls	r5, r0, #1
 2850 00a0 05F48073 		and	r3, r5, #256
 860:Drivers/display_ILI-93xx_sm/lcd.c **** 	GPIOB->ODR = (GPIOB->ODR & 0xFBC7) | (data & 0x08) | ((data & 0x10) << 1) | ((data & 0x20) >> 1) |
 2851              		.loc 1 860 83 view .LVU890
 2852 00a4 1A43     		orrs	r2, r2, r3
 860:Drivers/display_ILI-93xx_sm/lcd.c **** 	GPIOB->ODR = (GPIOB->ODR & 0xFBC7) | (data & 0x08) | ((data & 0x10) << 1) | ((data & 0x20) >> 1) |
 2853              		.loc 1 860 123 view .LVU891
 2854 00a6 8301     		lsls	r3, r0, #6
 2855 00a8 03F08003 		and	r3, r3, #128
 860:Drivers/display_ILI-93xx_sm/lcd.c **** 	GPIOB->ODR = (GPIOB->ODR & 0xFBC7) | (data & 0x08) | ((data & 0x10) << 1) | ((data & 0x20) >> 1) |
 2856              		.loc 1 860 106 view .LVU892
 2857 00ac 1A43     		orrs	r2, r2, r3
 860:Drivers/display_ILI-93xx_sm/lcd.c **** 	GPIOB->ODR = (GPIOB->ODR & 0xFBC7) | (data & 0x08) | ((data & 0x10) << 1) | ((data & 0x20) >> 1) |
 2858              		.loc 1 860 13 view .LVU893
 2859 00ae E260     		str	r2, [r4, #12]
 861:Drivers/display_ILI-93xx_sm/lcd.c **** #else
 2860              		.loc 1 861 2 is_stmt 1 view .LVU894
 861:Drivers/display_ILI-93xx_sm/lcd.c **** #else
 2861              		.loc 1 861 21 is_stmt 0 view .LVU895
 2862 00b0 514A     		ldr	r2, .L155+4
 2863 00b2 D368     		ldr	r3, [r2, #12]
 861:Drivers/display_ILI-93xx_sm/lcd.c **** #else
 2864              		.loc 1 861 27 view .LVU896
 2865 00b4 23F48763 		bic	r3, r3, #1080
 2866 00b8 1B04     		lsls	r3, r3, #16
 2867 00ba 1B0C     		lsrs	r3, r3, #16
 861:Drivers/display_ILI-93xx_sm/lcd.c **** #else
 2868              		.loc 1 861 45 view .LVU897
 2869 00bc 00F00806 		and	r6, r0, #8
 861:Drivers/display_ILI-93xx_sm/lcd.c **** #else
 2870              		.loc 1 861 37 view .LVU898
 2871 00c0 3343     		orrs	r3, r3, r6
 861:Drivers/display_ILI-93xx_sm/lcd.c **** #else
 2872              		.loc 1 861 70 view .LVU899
 2873 00c2 05F02005 		and	r5, r5, #32
 861:Drivers/display_ILI-93xx_sm/lcd.c **** #else
 2874              		.loc 1 861 53 view .LVU900
 2875 00c6 2B43     		orrs	r3, r3, r5
 861:Drivers/display_ILI-93xx_sm/lcd.c **** #else
 2876              		.loc 1 861 93 view .LVU901
 2877 00c8 4510     		asrs	r5, r0, #1
 2878 00ca 05F01005 		and	r5, r5, #16
 861:Drivers/display_ILI-93xx_sm/lcd.c **** #else
 2879              		.loc 1 861 76 view .LVU902
 2880 00ce 2B43     		orrs	r3, r3, r5
 861:Drivers/display_ILI-93xx_sm/lcd.c **** #else
ARM GAS  /tmp/cc47Teva.s 			page 81


 2881              		.loc 1 861 116 view .LVU903
 2882 00d0 0001     		lsls	r0, r0, #4
 2883              	.LVL157:
 861:Drivers/display_ILI-93xx_sm/lcd.c **** #else
 2884              		.loc 1 861 116 view .LVU904
 2885 00d2 00F48060 		and	r0, r0, #1024
 861:Drivers/display_ILI-93xx_sm/lcd.c **** #else
 2886              		.loc 1 861 99 view .LVU905
 2887 00d6 0343     		orrs	r3, r3, r0
 861:Drivers/display_ILI-93xx_sm/lcd.c **** #else
 2888              		.loc 1 861 13 view .LVU906
 2889 00d8 D360     		str	r3, [r2, #12]
 869:Drivers/display_ILI-93xx_sm/lcd.c **** }
 2890              		.loc 1 869 2 is_stmt 1 view .LVU907
 869:Drivers/display_ILI-93xx_sm/lcd.c **** }
 2891              		.loc 1 869 2 view .LVU908
 2892 00da 4FF40033 		mov	r3, #131072
 2893 00de 2361     		str	r3, [r4, #16]
 869:Drivers/display_ILI-93xx_sm/lcd.c **** }
 2894              		.loc 1 869 2 view .LVU909
 2895              	.LVL158:
 2896              	.LBB287:
 2897              	.LBI287:
 668:Drivers/display_ILI-93xx_sm/lcd.c **** 	for (; t; t--) __asm("nop");
 2898              		.loc 1 668 13 view .LVU910
 2899              	.LBB288:
 669:Drivers/display_ILI-93xx_sm/lcd.c **** }
 2900              		.loc 1 669 2 view .LVU911
 2901              	.LBE288:
 2902              	.LBE287:
 869:Drivers/display_ILI-93xx_sm/lcd.c **** }
 2903              		.loc 1 869 2 is_stmt 0 view .LVU912
 2904 00e0 0223     		movs	r3, #2
 2905              	.LVL159:
 2906              	.L135:
 2907              	.LBB290:
 2908              	.LBB289:
 669:Drivers/display_ILI-93xx_sm/lcd.c **** }
 2909              		.loc 1 669 2 view .LVU913
 2910 00e2 13B1     		cbz	r3, .L150
 669:Drivers/display_ILI-93xx_sm/lcd.c **** }
 2911              		.loc 1 669 17 is_stmt 1 view .LVU914
 2912              		.syntax unified
 2913              	@ 669 "Drivers/display_ILI-93xx_sm/lcd.c" 1
 2914 00e4 00BF     		nop
 2915              	@ 0 "" 2
 669:Drivers/display_ILI-93xx_sm/lcd.c **** }
 2916              		.loc 1 669 13 is_stmt 0 view .LVU915
 2917              		.thumb
 2918              		.syntax unified
 2919 00e6 013B     		subs	r3, r3, #1
 2920              	.LVL160:
 669:Drivers/display_ILI-93xx_sm/lcd.c **** }
 2921              		.loc 1 669 13 view .LVU916
 2922 00e8 FBE7     		b	.L135
 2923              	.L150:
 2924              	.LVL161:
ARM GAS  /tmp/cc47Teva.s 			page 82


 669:Drivers/display_ILI-93xx_sm/lcd.c **** }
 2925              		.loc 1 669 13 view .LVU917
 2926              	.LBE289:
 2927              	.LBE290:
 869:Drivers/display_ILI-93xx_sm/lcd.c **** }
 2928              		.loc 1 869 2 is_stmt 1 view .LVU918
 2929 00ea 0223     		movs	r3, #2
 2930 00ec 414A     		ldr	r2, .L155
 2931 00ee 1361     		str	r3, [r2, #16]
 869:Drivers/display_ILI-93xx_sm/lcd.c **** }
 2932              		.loc 1 869 2 view .LVU919
 2933              	.LVL162:
 2934              	.LBB291:
 2935              	.LBI291:
 668:Drivers/display_ILI-93xx_sm/lcd.c **** 	for (; t; t--) __asm("nop");
 2936              		.loc 1 668 13 view .LVU920
 2937              	.L137:
 2938              	.LBB292:
 669:Drivers/display_ILI-93xx_sm/lcd.c **** }
 2939              		.loc 1 669 2 is_stmt 0 view .LVU921
 2940 00f0 13B1     		cbz	r3, .L151
 669:Drivers/display_ILI-93xx_sm/lcd.c **** }
 2941              		.loc 1 669 17 is_stmt 1 view .LVU922
 2942              		.syntax unified
 2943              	@ 669 "Drivers/display_ILI-93xx_sm/lcd.c" 1
 2944 00f2 00BF     		nop
 2945              	@ 0 "" 2
 669:Drivers/display_ILI-93xx_sm/lcd.c **** }
 2946              		.loc 1 669 13 is_stmt 0 view .LVU923
 2947              		.thumb
 2948              		.syntax unified
 2949 00f4 013B     		subs	r3, r3, #1
 2950              	.LVL163:
 669:Drivers/display_ILI-93xx_sm/lcd.c **** }
 2951              		.loc 1 669 13 view .LVU924
 2952 00f6 FBE7     		b	.L137
 2953              	.L151:
 2954              	.LVL164:
 669:Drivers/display_ILI-93xx_sm/lcd.c **** }
 2955              		.loc 1 669 13 view .LVU925
 2956              	.LBE292:
 2957              	.LBE291:
 2958              	.LBE286:
 2959              	.LBE285:
 985:Drivers/display_ILI-93xx_sm/lcd.c **** 	LCD_CD_DATA();
 2960              		.loc 1 985 2 is_stmt 1 view .LVU926
 2961 00f8 3E4C     		ldr	r4, .L155
 2962 00fa 1023     		movs	r3, #16
 2963 00fc 2361     		str	r3, [r4, #16]
 986:Drivers/display_ILI-93xx_sm/lcd.c **** 	LCD_Write8(d >> 8);
 2964              		.loc 1 986 2 view .LVU927
 2965 00fe 0B0A     		lsrs	r3, r1, #8
 2966              	.LBB293:
 2967              	.LBI293:
 847:Drivers/display_ILI-93xx_sm/lcd.c **** 	// ------ PORT -----     --- Data ----
 2968              		.loc 1 847 13 view .LVU928
 2969              	.LBB294:
ARM GAS  /tmp/cc47Teva.s 			page 83


 860:Drivers/display_ILI-93xx_sm/lcd.c **** 	GPIOB->ODR = (GPIOB->ODR & 0xFBC7) | (data & 0x08) | ((data & 0x10) << 1) | ((data & 0x20) >> 1) |
 2970              		.loc 1 860 2 view .LVU929
 860:Drivers/display_ILI-93xx_sm/lcd.c **** 	GPIOB->ODR = (GPIOB->ODR & 0xFBC7) | (data & 0x08) | ((data & 0x10) << 1) | ((data & 0x20) >> 1) |
 2971              		.loc 1 860 21 is_stmt 0 view .LVU930
 2972 0100 E068     		ldr	r0, [r4, #12]
 860:Drivers/display_ILI-93xx_sm/lcd.c **** 	GPIOB->ODR = (GPIOB->ODR & 0xFBC7) | (data & 0x08) | ((data & 0x10) << 1) | ((data & 0x20) >> 1) |
 2973              		.loc 1 860 27 view .LVU931
 2974 0102 20F4F060 		bic	r0, r0, #1920
 2975 0106 0004     		lsls	r0, r0, #16
 2976 0108 000C     		lsrs	r0, r0, #16
 860:Drivers/display_ILI-93xx_sm/lcd.c **** 	GPIOB->ODR = (GPIOB->ODR & 0xFBC7) | (data & 0x08) | ((data & 0x10) << 1) | ((data & 0x20) >> 1) |
 2977              		.loc 1 860 54 view .LVU932
 2978 010a 5A02     		lsls	r2, r3, #9
 2979 010c 02F40072 		and	r2, r2, #512
 860:Drivers/display_ILI-93xx_sm/lcd.c **** 	GPIOB->ODR = (GPIOB->ODR & 0xFBC7) | (data & 0x08) | ((data & 0x10) << 1) | ((data & 0x20) >> 1) |
 2980              		.loc 1 860 37 view .LVU933
 2981 0110 1043     		orrs	r0, r0, r2
 860:Drivers/display_ILI-93xx_sm/lcd.c **** 	GPIOB->ODR = (GPIOB->ODR & 0xFBC7) | (data & 0x08) | ((data & 0x10) << 1) | ((data & 0x20) >> 1) |
 2982              		.loc 1 860 77 view .LVU934
 2983 0112 1A02     		lsls	r2, r3, #8
 2984 0114 02F48062 		and	r2, r2, #1024
 860:Drivers/display_ILI-93xx_sm/lcd.c **** 	GPIOB->ODR = (GPIOB->ODR & 0xFBC7) | (data & 0x08) | ((data & 0x10) << 1) | ((data & 0x20) >> 1) |
 2985              		.loc 1 860 60 view .LVU935
 2986 0118 1043     		orrs	r0, r0, r2
 860:Drivers/display_ILI-93xx_sm/lcd.c **** 	GPIOB->ODR = (GPIOB->ODR & 0xFBC7) | (data & 0x08) | ((data & 0x10) << 1) | ((data & 0x20) >> 1) |
 2987              		.loc 1 860 100 view .LVU936
 2988 011a 5D00     		lsls	r5, r3, #1
 2989 011c 05F48072 		and	r2, r5, #256
 860:Drivers/display_ILI-93xx_sm/lcd.c **** 	GPIOB->ODR = (GPIOB->ODR & 0xFBC7) | (data & 0x08) | ((data & 0x10) << 1) | ((data & 0x20) >> 1) |
 2990              		.loc 1 860 83 view .LVU937
 2991 0120 1043     		orrs	r0, r0, r2
 860:Drivers/display_ILI-93xx_sm/lcd.c **** 	GPIOB->ODR = (GPIOB->ODR & 0xFBC7) | (data & 0x08) | ((data & 0x10) << 1) | ((data & 0x20) >> 1) |
 2992              		.loc 1 860 123 view .LVU938
 2993 0122 9A01     		lsls	r2, r3, #6
 2994 0124 02F08002 		and	r2, r2, #128
 860:Drivers/display_ILI-93xx_sm/lcd.c **** 	GPIOB->ODR = (GPIOB->ODR & 0xFBC7) | (data & 0x08) | ((data & 0x10) << 1) | ((data & 0x20) >> 1) |
 2995              		.loc 1 860 106 view .LVU939
 2996 0128 1043     		orrs	r0, r0, r2
 860:Drivers/display_ILI-93xx_sm/lcd.c **** 	GPIOB->ODR = (GPIOB->ODR & 0xFBC7) | (data & 0x08) | ((data & 0x10) << 1) | ((data & 0x20) >> 1) |
 2997              		.loc 1 860 13 view .LVU940
 2998 012a E060     		str	r0, [r4, #12]
 861:Drivers/display_ILI-93xx_sm/lcd.c **** #else
 2999              		.loc 1 861 2 is_stmt 1 view .LVU941
