ARM GAS  /tmp/cc47Teva.s 			page 1


   1              		.cpu cortex-m3
   2              		.eabi_attribute 20, 1
   3              		.eabi_attribute 21, 1
   4              		.eabi_attribute 23, 3
   5              		.eabi_attribute 24, 1
   6              		.eabi_attribute 25, 1
   7              		.eabi_attribute 26, 1
   8              		.eabi_attribute 30, 1
   9              		.eabi_attribute 34, 1
  10              		.eabi_attribute 18, 4
  11              		.file	"lcd.c"
  12              		.text
  13              	.Ltext0:
  14              		.cfi_sections	.debug_frame
  15              		.section	.text.delay,"ax",%progbits
  16              		.align	1
  17              		.global	delay
  18              		.arch armv7-m
  19              		.syntax unified
  20              		.thumb
  21              		.thumb_func
  22              		.fpu softvfp
  24              	delay:
  25              	.LVL0:
  26              	.LFB68:
  27              		.file 1 "Drivers/display_ILI-93xx_sm/lcd.c"
   1:Drivers/display_ILI-93xx_sm/lcd.c **** /**
   2:Drivers/display_ILI-93xx_sm/lcd.c **** *	TechMaker
   3:Drivers/display_ILI-93xx_sm/lcd.c **** *	https://techmaker.ua
   4:Drivers/display_ILI-93xx_sm/lcd.c **** *
   5:Drivers/display_ILI-93xx_sm/lcd.c **** *	STM32 LCD TFT Library for 2.4" MCUfriend shield using 8080 8-bit parallel interface
   6:Drivers/display_ILI-93xx_sm/lcd.c **** *	based on Adafruit GFX & Adafruit TFT LCD libraries
   7:Drivers/display_ILI-93xx_sm/lcd.c **** *	20 Dec 2018 by Alexander Olenyev <sasha@techmaker.ua>
   8:Drivers/display_ILI-93xx_sm/lcd.c **** *
   9:Drivers/display_ILI-93xx_sm/lcd.c **** *	Changelog:
  10:Drivers/display_ILI-93xx_sm/lcd.c **** *		- v1.7 added support for 24-bit BMP
  11:Drivers/display_ILI-93xx_sm/lcd.c **** *		- v1.6 added support for SSD1297 (262k only)
  12:Drivers/display_ILI-93xx_sm/lcd.c **** *		- v1.5 added printf wipe line/screen defines
  13:Drivers/display_ILI-93xx_sm/lcd.c **** *		- v1.4 added support for R61505
  14:Drivers/display_ILI-93xx_sm/lcd.c **** *		- v1.3 added support for HX8347D
  15:Drivers/display_ILI-93xx_sm/lcd.c **** *		- v1.2 added Courier New font family with Cyrillic (CP1251), created using TheDotFactory font ge
  16:Drivers/display_ILI-93xx_sm/lcd.c **** *		- v1.1 added support for UNKNOWN1602, LCD_DrawBMP() & LCD_DrawBMPFromFile()
  17:Drivers/display_ILI-93xx_sm/lcd.c **** *		- v1.0 added support for ILI9325, ILI9328, ILI9340, ILI9341, ILI9341_00, R61505V, R61520, S6D015
  18:Drivers/display_ILI-93xx_sm/lcd.c **** */
  19:Drivers/display_ILI-93xx_sm/lcd.c **** 
  20:Drivers/display_ILI-93xx_sm/lcd.c **** // Graphics library by ladyada/adafruit with init code from Rossum
  21:Drivers/display_ILI-93xx_sm/lcd.c **** // MIT license
  22:Drivers/display_ILI-93xx_sm/lcd.c **** 
  23:Drivers/display_ILI-93xx_sm/lcd.c **** /*
  24:Drivers/display_ILI-93xx_sm/lcd.c **** This is the core graphics library for all our displays, providing a common
  25:Drivers/display_ILI-93xx_sm/lcd.c **** set of graphics primitives (points, lines, circles, etc.).  It needs to be
  26:Drivers/display_ILI-93xx_sm/lcd.c **** paired with a hardware-specific library for each display device we carry
  27:Drivers/display_ILI-93xx_sm/lcd.c **** (to handle the lower-level functions).
  28:Drivers/display_ILI-93xx_sm/lcd.c **** Adafruit invests time and resources providing this open source code, please
  29:Drivers/display_ILI-93xx_sm/lcd.c **** support Adafruit & open-source hardware by purchasing products from Adafruit!
  30:Drivers/display_ILI-93xx_sm/lcd.c **** Copyright (c) 2013 Adafruit Industries.  All rights reserved.
  31:Drivers/display_ILI-93xx_sm/lcd.c **** Redistribution and use in source and binary forms, with or without
ARM GAS  /tmp/cc47Teva.s 			page 2


  32:Drivers/display_ILI-93xx_sm/lcd.c **** modification, are permitted provided that the following conditions are met:
  33:Drivers/display_ILI-93xx_sm/lcd.c **** - Redistributions of source code must retain the above copyright notice,
  34:Drivers/display_ILI-93xx_sm/lcd.c ****   this list of conditions and the following disclaimer.
  35:Drivers/display_ILI-93xx_sm/lcd.c **** - Redistributions in binary form must reproduce the above copyright notice,
  36:Drivers/display_ILI-93xx_sm/lcd.c ****   this list of conditions and the following disclaimer in the documentation
  37:Drivers/display_ILI-93xx_sm/lcd.c ****   and/or other materials provided with the distribution.
  38:Drivers/display_ILI-93xx_sm/lcd.c **** THIS SOFTWARE IS PROVIDED BY THE COPYRIGHT HOLDERS AND CONTRIBUTORS "AS IS"
  39:Drivers/display_ILI-93xx_sm/lcd.c **** AND ANY EXPRESS OR IMPLIED WARRANTIES, INCLUDING, BUT NOT LIMITED TO, THE
  40:Drivers/display_ILI-93xx_sm/lcd.c **** IMPLIED WARRANTIES OF MERCHANTABILITY AND FITNESS FOR A PARTICULAR PURPOSE
  41:Drivers/display_ILI-93xx_sm/lcd.c **** ARE DISCLAIMED. IN NO EVENT SHALL THE COPYRIGHT HOLDER OR CONTRIBUTORS BE
  42:Drivers/display_ILI-93xx_sm/lcd.c **** LIABLE FOR ANY DIRECT, INDIRECT, INCIDENTAL, SPECIAL, EXEMPLARY, OR
  43:Drivers/display_ILI-93xx_sm/lcd.c **** CONSEQUENTIAL DAMAGES (INCLUDING, BUT NOT LIMITED TO, PROCUREMENT OF
  44:Drivers/display_ILI-93xx_sm/lcd.c **** SUBSTITUTE GOODS OR SERVICES; LOSS OF USE, DATA, OR PROFITS; OR BUSINESS
  45:Drivers/display_ILI-93xx_sm/lcd.c **** INTERRUPTION) HOWEVER CAUSED AND ON ANY THEORY OF LIABILITY, WHETHER IN
  46:Drivers/display_ILI-93xx_sm/lcd.c **** CONTRACT, STRICT LIABILITY, OR TORT (INCLUDING NEGLIGENCE OR OTHERWISE)
  47:Drivers/display_ILI-93xx_sm/lcd.c **** ARISING IN ANY WAY OUT OF THE USE OF THIS SOFTWARE, EVEN IF ADVISED OF THE
  48:Drivers/display_ILI-93xx_sm/lcd.c **** POSSIBILITY OF SUCH DAMAGE.
  49:Drivers/display_ILI-93xx_sm/lcd.c **** */
  50:Drivers/display_ILI-93xx_sm/lcd.c **** 
  51:Drivers/display_ILI-93xx_sm/lcd.c **** #include "lcd.h"
  52:Drivers/display_ILI-93xx_sm/lcd.c **** 
  53:Drivers/display_ILI-93xx_sm/lcd.c **** static int16_t m_width;
  54:Drivers/display_ILI-93xx_sm/lcd.c **** static int16_t m_height;
  55:Drivers/display_ILI-93xx_sm/lcd.c **** static int16_t m_cursor_x;
  56:Drivers/display_ILI-93xx_sm/lcd.c **** static int16_t m_cursor_y;
  57:Drivers/display_ILI-93xx_sm/lcd.c **** 
  58:Drivers/display_ILI-93xx_sm/lcd.c **** static uint16_t m_textcolor;
  59:Drivers/display_ILI-93xx_sm/lcd.c **** static uint16_t m_textbgcolor;
  60:Drivers/display_ILI-93xx_sm/lcd.c **** static uint8_t m_font;
  61:Drivers/display_ILI-93xx_sm/lcd.c **** static uint8_t m_rotation;
  62:Drivers/display_ILI-93xx_sm/lcd.c **** static uint8_t m_wrap;
  63:Drivers/display_ILI-93xx_sm/lcd.c **** 
  64:Drivers/display_ILI-93xx_sm/lcd.c **** static font_t * fonts[] = {
  65:Drivers/display_ILI-93xx_sm/lcd.c **** #ifdef USE_FONT8
  66:Drivers/display_ILI-93xx_sm/lcd.c **** 					&Font8,
  67:Drivers/display_ILI-93xx_sm/lcd.c **** #endif
  68:Drivers/display_ILI-93xx_sm/lcd.c **** #ifdef USE_FONT12
  69:Drivers/display_ILI-93xx_sm/lcd.c **** 					&Font12,
  70:Drivers/display_ILI-93xx_sm/lcd.c **** #endif
  71:Drivers/display_ILI-93xx_sm/lcd.c **** #ifdef USE_FONT16
  72:Drivers/display_ILI-93xx_sm/lcd.c **** 					&Font16,
  73:Drivers/display_ILI-93xx_sm/lcd.c **** #endif
  74:Drivers/display_ILI-93xx_sm/lcd.c **** #ifdef USE_FONT20
  75:Drivers/display_ILI-93xx_sm/lcd.c **** 					&Font20,
  76:Drivers/display_ILI-93xx_sm/lcd.c **** #endif
  77:Drivers/display_ILI-93xx_sm/lcd.c **** #ifdef USE_FONT24
  78:Drivers/display_ILI-93xx_sm/lcd.c **** 					&Font24,
  79:Drivers/display_ILI-93xx_sm/lcd.c **** #endif
  80:Drivers/display_ILI-93xx_sm/lcd.c **** 					};
  81:Drivers/display_ILI-93xx_sm/lcd.c **** const static uint8_t fontsNum = sizeof(fonts) / sizeof(fonts[0]);
  82:Drivers/display_ILI-93xx_sm/lcd.c **** 
  83:Drivers/display_ILI-93xx_sm/lcd.c **** void delay(uint32_t t);
  84:Drivers/display_ILI-93xx_sm/lcd.c **** void GPIO_Init(uint32_t mode);
  85:Drivers/display_ILI-93xx_sm/lcd.c **** void LCD_Write8(uint8_t data);
  86:Drivers/display_ILI-93xx_sm/lcd.c **** uint8_t LCD_Read8(void);
  87:Drivers/display_ILI-93xx_sm/lcd.c **** void LCD_Write8Register8(uint8_t a, uint8_t d);
  88:Drivers/display_ILI-93xx_sm/lcd.c **** void LCD_Write16Register8(uint8_t a, uint16_t d);
ARM GAS  /tmp/cc47Teva.s 			page 3


  89:Drivers/display_ILI-93xx_sm/lcd.c **** void LCD_Write24Register8(uint8_t a, uint32_t d);
  90:Drivers/display_ILI-93xx_sm/lcd.c **** void LCD_Write32Register8(uint8_t a, uint32_t d);
  91:Drivers/display_ILI-93xx_sm/lcd.c **** void LCD_Write16Register16(uint16_t a, uint16_t d);
  92:Drivers/display_ILI-93xx_sm/lcd.c **** void LCD_Write16RegisterPair8(uint8_t aH, uint8_t aL, uint16_t d);
  93:Drivers/display_ILI-93xx_sm/lcd.c **** uint8_t LCD_Read8Register8(uint8_t a, uint8_t dummy);
  94:Drivers/display_ILI-93xx_sm/lcd.c **** uint32_t LCD_Color565_to_888(uint16_t color);
  95:Drivers/display_ILI-93xx_sm/lcd.c **** uint8_t LCD_Color565_to_R(uint16_t color);
  96:Drivers/display_ILI-93xx_sm/lcd.c **** uint8_t LCD_Color565_to_G(uint16_t color);
  97:Drivers/display_ILI-93xx_sm/lcd.c **** uint8_t LCD_Color565_to_B(uint16_t color);
  98:Drivers/display_ILI-93xx_sm/lcd.c **** 
  99:Drivers/display_ILI-93xx_sm/lcd.c **** // Initialization command tables for different LCD controllers
 100:Drivers/display_ILI-93xx_sm/lcd.c **** #if	defined(ILI9325) || defined (ILI9328)
 101:Drivers/display_ILI-93xx_sm/lcd.c **** static const uint16_t ILI932x_regValues[] = {
 102:Drivers/display_ILI-93xx_sm/lcd.c **** 	ILI932X_START_OSC        , 0x0001, // Start oscillator
 103:Drivers/display_ILI-93xx_sm/lcd.c **** 	TFTLCD_DELAY             , 50,     // 50 millisecond delay
 104:Drivers/display_ILI-93xx_sm/lcd.c **** 	ILI932X_DRIV_OUT_CTRL    , 0x0100,
 105:Drivers/display_ILI-93xx_sm/lcd.c **** 	ILI932X_DRIV_WAV_CTRL    , 0x0700,
 106:Drivers/display_ILI-93xx_sm/lcd.c **** 	ILI932X_ENTRY_MOD        , 0x1030,
 107:Drivers/display_ILI-93xx_sm/lcd.c **** 	ILI932X_RESIZE_CTRL      , 0x0000,
 108:Drivers/display_ILI-93xx_sm/lcd.c **** 	ILI932X_DISP_CTRL2       , 0x0202,
 109:Drivers/display_ILI-93xx_sm/lcd.c **** 	ILI932X_DISP_CTRL3       , 0x0000,
 110:Drivers/display_ILI-93xx_sm/lcd.c **** 	ILI932X_DISP_CTRL4       , 0x0000,
 111:Drivers/display_ILI-93xx_sm/lcd.c **** 	ILI932X_RGB_DISP_IF_CTRL1, 0x0,
 112:Drivers/display_ILI-93xx_sm/lcd.c **** 	ILI932X_FRM_MARKER_POS   , 0x0,
 113:Drivers/display_ILI-93xx_sm/lcd.c **** 	ILI932X_RGB_DISP_IF_CTRL2, 0x0,
 114:Drivers/display_ILI-93xx_sm/lcd.c **** 	ILI932X_POW_CTRL1        , 0x0000,
 115:Drivers/display_ILI-93xx_sm/lcd.c **** 	ILI932X_POW_CTRL2        , 0x0007,
 116:Drivers/display_ILI-93xx_sm/lcd.c **** 	ILI932X_POW_CTRL3        , 0x0000,
 117:Drivers/display_ILI-93xx_sm/lcd.c **** 	ILI932X_POW_CTRL4        , 0x0000,
 118:Drivers/display_ILI-93xx_sm/lcd.c **** 	TFTLCD_DELAY             , 200,
 119:Drivers/display_ILI-93xx_sm/lcd.c **** 	ILI932X_POW_CTRL1        , 0x1690,
 120:Drivers/display_ILI-93xx_sm/lcd.c **** 	ILI932X_POW_CTRL2        , 0x0227,
 121:Drivers/display_ILI-93xx_sm/lcd.c **** 	TFTLCD_DELAY             , 50,
 122:Drivers/display_ILI-93xx_sm/lcd.c **** 	ILI932X_POW_CTRL3        , 0x001A,
 123:Drivers/display_ILI-93xx_sm/lcd.c **** 	TFTLCD_DELAY             , 50,
 124:Drivers/display_ILI-93xx_sm/lcd.c **** 	ILI932X_POW_CTRL4        , 0x1800,
 125:Drivers/display_ILI-93xx_sm/lcd.c **** 	ILI932X_POW_CTRL7        , 0x002A,
 126:Drivers/display_ILI-93xx_sm/lcd.c **** 	TFTLCD_DELAY             , 50,
 127:Drivers/display_ILI-93xx_sm/lcd.c **** 	ILI932X_GAMMA_CTRL1      , 0x0000,
 128:Drivers/display_ILI-93xx_sm/lcd.c **** 	ILI932X_GAMMA_CTRL2      , 0x0000,
 129:Drivers/display_ILI-93xx_sm/lcd.c **** 	ILI932X_GAMMA_CTRL3      , 0x0000,
 130:Drivers/display_ILI-93xx_sm/lcd.c **** 	ILI932X_GAMMA_CTRL4      , 0x0206,
 131:Drivers/display_ILI-93xx_sm/lcd.c **** 	ILI932X_GAMMA_CTRL5      , 0x0808,
 132:Drivers/display_ILI-93xx_sm/lcd.c **** 	ILI932X_GAMMA_CTRL6      , 0x0007,
 133:Drivers/display_ILI-93xx_sm/lcd.c **** 	ILI932X_GAMMA_CTRL7      , 0x0201,
 134:Drivers/display_ILI-93xx_sm/lcd.c **** 	ILI932X_GAMMA_CTRL8      , 0x0000,
 135:Drivers/display_ILI-93xx_sm/lcd.c **** 	ILI932X_GAMMA_CTRL9      , 0x0000,
 136:Drivers/display_ILI-93xx_sm/lcd.c **** 	ILI932X_GAMMA_CTRL10     , 0x0000,
 137:Drivers/display_ILI-93xx_sm/lcd.c **** 	ILI932X_GRAM_HOR_AD      , 0x0000,
 138:Drivers/display_ILI-93xx_sm/lcd.c **** 	ILI932X_GRAM_VER_AD      , 0x0000,
 139:Drivers/display_ILI-93xx_sm/lcd.c **** 	ILI932X_HOR_START_AD     , 0x0000,
 140:Drivers/display_ILI-93xx_sm/lcd.c **** 	ILI932X_HOR_END_AD       , 0x00EF,
 141:Drivers/display_ILI-93xx_sm/lcd.c **** 	ILI932X_VER_START_AD     , 0X0000,
 142:Drivers/display_ILI-93xx_sm/lcd.c **** 	ILI932X_VER_END_AD       , 0x013F,
 143:Drivers/display_ILI-93xx_sm/lcd.c **** 	ILI932X_GATE_SCAN_CTRL1  , 0xA700, // Driver Output Control (R60h)
 144:Drivers/display_ILI-93xx_sm/lcd.c **** 	ILI932X_GATE_SCAN_CTRL2  , 0x0003, // Driver Output Control (R61h)
 145:Drivers/display_ILI-93xx_sm/lcd.c **** 	ILI932X_GATE_SCAN_CTRL3  , 0x0000, // Driver Output Control (R62h)
ARM GAS  /tmp/cc47Teva.s 			page 4


 146:Drivers/display_ILI-93xx_sm/lcd.c **** 	ILI932X_PANEL_IF_CTRL1   , 0X0010, // Panel Interface Control 1 (R90h)
 147:Drivers/display_ILI-93xx_sm/lcd.c **** 	ILI932X_PANEL_IF_CTRL2   , 0X0000,
 148:Drivers/display_ILI-93xx_sm/lcd.c **** 	ILI932X_PANEL_IF_CTRL3   , 0X0003,
 149:Drivers/display_ILI-93xx_sm/lcd.c **** 	ILI932X_PANEL_IF_CTRL4   , 0X1100,
 150:Drivers/display_ILI-93xx_sm/lcd.c **** 	ILI932X_PANEL_IF_CTRL5   , 0X0000,
 151:Drivers/display_ILI-93xx_sm/lcd.c **** 	ILI932X_PANEL_IF_CTRL6   , 0X0000,
 152:Drivers/display_ILI-93xx_sm/lcd.c **** 	ILI932X_DISP_CTRL1       , 0x0133, // Main screen turn on
 153:Drivers/display_ILI-93xx_sm/lcd.c **** };
 154:Drivers/display_ILI-93xx_sm/lcd.c **** #elif defined(UNKNOWN1602)
 155:Drivers/display_ILI-93xx_sm/lcd.c **** static const uint8_t ILI9329_regValues[] = {
 156:Drivers/display_ILI-93xx_sm/lcd.c **** 	ILI9341_SOFTRESET,			0,            //Soft Reset
 157:Drivers/display_ILI-93xx_sm/lcd.c **** 	TFTLCD_DELAY,				150,// .kbv will power up with ONLY reset, sleep out, display on
 158:Drivers/display_ILI-93xx_sm/lcd.c **** 	ILI9341_DISPLAYOFF,			0,//Display Off
 159:Drivers/display_ILI-93xx_sm/lcd.c **** 	ILI9341_PIXELFORMAT,		1, 0x55,//Pixel read=565, write=565.
 160:Drivers/display_ILI-93xx_sm/lcd.c **** 	//0xF6,						3, 0x01, 0x01, 0x00,  //Interface Control needs EXTC=1 MX_EOR=1, TM=0, RIM=0
 161:Drivers/display_ILI-93xx_sm/lcd.c **** 	//0xB6,						3, 0x0A, 0x82, 0x27,  //Display Function [0A 82 27]
 162:Drivers/display_ILI-93xx_sm/lcd.c **** 	//0xB7,						1, 0x06,      //Entry Mode Set [06]
 163:Drivers/display_ILI-93xx_sm/lcd.c **** 	//0x36,						1, 0x00,//Memory Access [00] pointless but stops an empty array
 164:Drivers/display_ILI-93xx_sm/lcd.c **** 	ILI9341_SLEEPOUT,			0,//Sleep Out
 165:Drivers/display_ILI-93xx_sm/lcd.c **** 	TFTLCD_DELAY,				150,
 166:Drivers/display_ILI-93xx_sm/lcd.c **** 	ILI9341_DISPLAYON,			0,//Display On
 167:Drivers/display_ILI-93xx_sm/lcd.c **** 	TFTLCD_DELAY,				100,
 168:Drivers/display_ILI-93xx_sm/lcd.c **** 	ILI9341_MEMORYWRITE,		0,
 169:Drivers/display_ILI-93xx_sm/lcd.c **** };
 170:Drivers/display_ILI-93xx_sm/lcd.c **** #elif defined(ILI9340)
 171:Drivers/display_ILI-93xx_sm/lcd.c **** static const uint8_t ILI9340_regValues[] = {
 172:Drivers/display_ILI-93xx_sm/lcd.c **** 	ILI9341_SOFTRESET			, 0,
 173:Drivers/display_ILI-93xx_sm/lcd.c **** 	ILI9341_POWERCONTROLA		, 5, 0x39, 0x2C, 0x00, 0x34, 0x02,
 174:Drivers/display_ILI-93xx_sm/lcd.c **** 	ILI9341_POWERCONTROLB		, 3, 0x00, 0xC1, 0x30,
 175:Drivers/display_ILI-93xx_sm/lcd.c **** 	ILI9341_DRIVERTIMINGCTLA	, 3, 0x85, 0x00, 0x78,
 176:Drivers/display_ILI-93xx_sm/lcd.c **** 	ILI9341_DRIVERTIMINGCTLB	, 2, 0x00, 0x00,
 177:Drivers/display_ILI-93xx_sm/lcd.c **** 	ILI9341_POWERONSEQCONTROL	, 4, 0x64, 0x03, 0x12, 0x81,
 178:Drivers/display_ILI-93xx_sm/lcd.c **** 	ILI9341_PUMPRATIOCONTROL	, 1, 0x20,
 179:Drivers/display_ILI-93xx_sm/lcd.c **** 	ILI9341_POWERCONTROL1		, 1, 0x23,
 180:Drivers/display_ILI-93xx_sm/lcd.c **** 	ILI9341_POWERCONTROL2		, 1, 0x10,
 181:Drivers/display_ILI-93xx_sm/lcd.c **** 	ILI9341_VCOMCONTROL1		, 2, 0x3E, 0x28,
 182:Drivers/display_ILI-93xx_sm/lcd.c **** 	ILI9341_VCOMCONTROL2		, 1, 0x86,
 183:Drivers/display_ILI-93xx_sm/lcd.c **** 	ILI9341_MEMCONTROL			, 1, ILI9341_MADCTL_MX | ILI9341_MADCTL_BGR, // change rotation here
 184:Drivers/display_ILI-93xx_sm/lcd.c **** 	ILI9341_PIXELFORMAT			, 1, 0x55,
 185:Drivers/display_ILI-93xx_sm/lcd.c **** 	ILI9341_FRAMECONTROL		, 2, 0x00, 0x18,
 186:Drivers/display_ILI-93xx_sm/lcd.c **** 	ILI9341_DISPLAYFUNC			, 3, 0x08, 0x82, 0x27,
 187:Drivers/display_ILI-93xx_sm/lcd.c **** 	ILI9341_ENABLE3G			, 1, 0x00,
 188:Drivers/display_ILI-93xx_sm/lcd.c **** 	ILI9341_GAMMASET			, 1, 0x01,
 189:Drivers/display_ILI-93xx_sm/lcd.c **** 	ILI9341_POSITIVEGAMMACORR	,15, 0x0f,0x31,0x2b,0x0c,0x0e,0x08,0x4e,0xf1,0x37,0x07,0x10,0x03,0x0e,0x
 190:Drivers/display_ILI-93xx_sm/lcd.c **** 	ILI9341_NEGATIVEGAMMACORR	,15, 0x00,0x0e,0x14,0x03,0x11,0x07,0x31,0xC1,0x48,0x08,0x0f,0x0c,0x31,0x
 191:Drivers/display_ILI-93xx_sm/lcd.c **** 	ILI9341_INVERTON			, 0,
 192:Drivers/display_ILI-93xx_sm/lcd.c **** 	ILI9341_SLEEPOUT			, 0,
 193:Drivers/display_ILI-93xx_sm/lcd.c **** 	TFTLCD_DELAY				, 150,
 194:Drivers/display_ILI-93xx_sm/lcd.c **** 	ILI9341_DISPLAYON			, 0,
 195:Drivers/display_ILI-93xx_sm/lcd.c **** 	ILI9341_MEMORYWRITE			, 0,
 196:Drivers/display_ILI-93xx_sm/lcd.c **** };
 197:Drivers/display_ILI-93xx_sm/lcd.c **** #elif defined(ILI9341)
 198:Drivers/display_ILI-93xx_sm/lcd.c **** static const uint8_t ILI9341_regValues[] = {
 199:Drivers/display_ILI-93xx_sm/lcd.c **** 	ILI9341_SOFTRESET			, 0,
 200:Drivers/display_ILI-93xx_sm/lcd.c **** 	ILI9341_POWERCONTROLA		, 5, 0x39, 0x2C, 0x00, 0x34, 0x02,
 201:Drivers/display_ILI-93xx_sm/lcd.c **** 	ILI9341_POWERCONTROLB		, 3, 0x00, 0xC1, 0x30,
 202:Drivers/display_ILI-93xx_sm/lcd.c **** 	ILI9341_DRIVERTIMINGCTLA	, 3, 0x85, 0x00, 0x78,
ARM GAS  /tmp/cc47Teva.s 			page 5


 203:Drivers/display_ILI-93xx_sm/lcd.c **** 	ILI9341_DRIVERTIMINGCTLB	, 2, 0x00, 0x00,
 204:Drivers/display_ILI-93xx_sm/lcd.c **** 	ILI9341_POWERONSEQCONTROL	, 4, 0x64, 0x03, 0x12, 0x81,
 205:Drivers/display_ILI-93xx_sm/lcd.c **** 	ILI9341_PUMPRATIOCONTROL	, 1, 0x20,
 206:Drivers/display_ILI-93xx_sm/lcd.c **** 	ILI9341_POWERCONTROL1		, 1, 0x23,
 207:Drivers/display_ILI-93xx_sm/lcd.c **** 	ILI9341_POWERCONTROL2		, 1, 0x10,
 208:Drivers/display_ILI-93xx_sm/lcd.c **** 	ILI9341_VCOMCONTROL1		, 2, 0x3E, 0x28,
 209:Drivers/display_ILI-93xx_sm/lcd.c **** 	ILI9341_VCOMCONTROL2		, 1, 0x86,
 210:Drivers/display_ILI-93xx_sm/lcd.c **** 	ILI9341_MEMCONTROL			, 1, ILI9341_MADCTL_MX | ILI9341_MADCTL_BGR, // change rotation here
 211:Drivers/display_ILI-93xx_sm/lcd.c **** 	ILI9341_PIXELFORMAT			, 1, 0x55,
 212:Drivers/display_ILI-93xx_sm/lcd.c **** 	ILI9341_FRAMECONTROL		, 2, 0x00, 0x18,
 213:Drivers/display_ILI-93xx_sm/lcd.c **** 	ILI9341_DISPLAYFUNC			, 3, 0x08, 0x82, 0x27,
 214:Drivers/display_ILI-93xx_sm/lcd.c **** 	ILI9341_ENABLE3G			, 1, 0x00,
 215:Drivers/display_ILI-93xx_sm/lcd.c **** 	ILI9341_GAMMASET			, 1, 0x01,
 216:Drivers/display_ILI-93xx_sm/lcd.c **** 	ILI9341_POSITIVEGAMMACORR	,15, 0x0f,0x31,0x2b,0x0c,0x0e,0x08,0x4e,0xf1,0x37,0x07,0x10,0x03,0x0e,0x
 217:Drivers/display_ILI-93xx_sm/lcd.c **** 	ILI9341_NEGATIVEGAMMACORR	,15, 0x00,0x0e,0x14,0x03,0x11,0x07,0x31,0xC1,0x48,0x08,0x0f,0x0c,0x31,0x
 218:Drivers/display_ILI-93xx_sm/lcd.c **** 	ILI9341_SLEEPOUT			, 0,
 219:Drivers/display_ILI-93xx_sm/lcd.c **** 	TFTLCD_DELAY				, 150,
 220:Drivers/display_ILI-93xx_sm/lcd.c **** 	ILI9341_DISPLAYON			, 0,
 221:Drivers/display_ILI-93xx_sm/lcd.c **** 	ILI9341_MEMORYWRITE			, 0,
 222:Drivers/display_ILI-93xx_sm/lcd.c **** };
 223:Drivers/display_ILI-93xx_sm/lcd.c **** #elif defined(ILI9341_00)
 224:Drivers/display_ILI-93xx_sm/lcd.c **** static const uint8_t ILI9341_00_regValues[] = {
 225:Drivers/display_ILI-93xx_sm/lcd.c **** 	ILI9341_SOFTRESET			, 0,
 226:Drivers/display_ILI-93xx_sm/lcd.c **** 	TFTLCD_DELAY				, 50,
 227:Drivers/display_ILI-93xx_sm/lcd.c **** 	ILI9341_DISPLAYOFF			, 0,
 228:Drivers/display_ILI-93xx_sm/lcd.c **** 	ILI9341_POWERCONTROL1		, 1, 0x23,
 229:Drivers/display_ILI-93xx_sm/lcd.c **** 	ILI9341_POWERCONTROL2		, 1, 0x10,
 230:Drivers/display_ILI-93xx_sm/lcd.c **** 	ILI9341_VCOMCONTROL1		, 2, 0x2B, 0x2B,
 231:Drivers/display_ILI-93xx_sm/lcd.c **** 	ILI9341_VCOMCONTROL2		, 1, 0xC0,
 232:Drivers/display_ILI-93xx_sm/lcd.c **** 	ILI9341_MEMCONTROL			, 1, ILI9341_MADCTL_MX | ILI9341_MADCTL_BGR, // change rotation here
 233:Drivers/display_ILI-93xx_sm/lcd.c **** 	ILI9341_PIXELFORMAT			, 1, 0x55,
 234:Drivers/display_ILI-93xx_sm/lcd.c **** 	ILI9341_FRAMECONTROL		, 2, 0x00, 0x1B,
 235:Drivers/display_ILI-93xx_sm/lcd.c **** 	ILI9341_ENTRYMODE			, 1, 0x07,
 236:Drivers/display_ILI-93xx_sm/lcd.c **** 	ILI9341_INVERTON			, 0,
 237:Drivers/display_ILI-93xx_sm/lcd.c **** 	ILI9341_SLEEPOUT			, 0,
 238:Drivers/display_ILI-93xx_sm/lcd.c **** 	TFTLCD_DELAY				, 150,
 239:Drivers/display_ILI-93xx_sm/lcd.c **** 	ILI9341_DISPLAYON			, 0,
 240:Drivers/display_ILI-93xx_sm/lcd.c **** 	TFTLCD_DELAY				, 100,
 241:Drivers/display_ILI-93xx_sm/lcd.c **** 	ILI9341_MEMORYWRITE			, 0,
 242:Drivers/display_ILI-93xx_sm/lcd.c **** };
 243:Drivers/display_ILI-93xx_sm/lcd.c **** #elif defined(R61505)
 244:Drivers/display_ILI-93xx_sm/lcd.c **** static const uint16_t ILI9320_regValues[] = {
 245:Drivers/display_ILI-93xx_sm/lcd.c **** 	0x00e5, 0x8000,
 246:Drivers/display_ILI-93xx_sm/lcd.c **** 	0x0000, 0x0001,
 247:Drivers/display_ILI-93xx_sm/lcd.c **** 	0x0001, 0x0100,
 248:Drivers/display_ILI-93xx_sm/lcd.c **** 	0x0002, 0x0700,
 249:Drivers/display_ILI-93xx_sm/lcd.c **** 	0x0003, 0x1030,
 250:Drivers/display_ILI-93xx_sm/lcd.c **** 	0x0004, 0x0000,
 251:Drivers/display_ILI-93xx_sm/lcd.c **** 	0x0008, 0x0202,
 252:Drivers/display_ILI-93xx_sm/lcd.c **** 	0x0009, 0x0000,
 253:Drivers/display_ILI-93xx_sm/lcd.c **** 	0x000A, 0x0000,
 254:Drivers/display_ILI-93xx_sm/lcd.c **** 	0x000C, 0x0000,
 255:Drivers/display_ILI-93xx_sm/lcd.c **** 	0x000D, 0x0000,
 256:Drivers/display_ILI-93xx_sm/lcd.c **** 	0x000F, 0x0000,
 257:Drivers/display_ILI-93xx_sm/lcd.c **** 	//-----Power On sequence-----------------------
 258:Drivers/display_ILI-93xx_sm/lcd.c **** 	0x0010, 0x0000,
 259:Drivers/display_ILI-93xx_sm/lcd.c **** 	0x0011, 0x0007,
ARM GAS  /tmp/cc47Teva.s 			page 6


 260:Drivers/display_ILI-93xx_sm/lcd.c **** 	0x0012, 0x0000,
 261:Drivers/display_ILI-93xx_sm/lcd.c **** 	0x0013, 0x0000,
 262:Drivers/display_ILI-93xx_sm/lcd.c **** 	TFTLCD_DELAY, 50,
 263:Drivers/display_ILI-93xx_sm/lcd.c **** 	0x0010, 0x17B0,  //SAP=1, BT=7, APE=1, AP=3
 264:Drivers/display_ILI-93xx_sm/lcd.c **** 	0x0011, 0x0007,  //DC1=0, DC0=0, VC=7
 265:Drivers/display_ILI-93xx_sm/lcd.c **** 	TFTLCD_DELAY, 10,
 266:Drivers/display_ILI-93xx_sm/lcd.c **** 	0x0012, 0x013A,  //VCMR=1, PON=3, VRH=10
 267:Drivers/display_ILI-93xx_sm/lcd.c **** 	TFTLCD_DELAY, 10,
 268:Drivers/display_ILI-93xx_sm/lcd.c **** 	0x0013, 0x1A00,  //VDV=26
 269:Drivers/display_ILI-93xx_sm/lcd.c **** 	0x0029, 0x000c,  //VCM=12
 270:Drivers/display_ILI-93xx_sm/lcd.c **** 	TFTLCD_DELAY, 10,
 271:Drivers/display_ILI-93xx_sm/lcd.c **** 	//-----Gamma control-----------------------
 272:Drivers/display_ILI-93xx_sm/lcd.c **** 	0x0030, 0x0000,
 273:Drivers/display_ILI-93xx_sm/lcd.c **** 	0x0031, 0x0505,
 274:Drivers/display_ILI-93xx_sm/lcd.c **** 	0x0032, 0x0004,
 275:Drivers/display_ILI-93xx_sm/lcd.c **** 	0x0035, 0x0006,
 276:Drivers/display_ILI-93xx_sm/lcd.c **** 	0x0036, 0x0707,
 277:Drivers/display_ILI-93xx_sm/lcd.c **** 	0x0037, 0x0105,
 278:Drivers/display_ILI-93xx_sm/lcd.c **** 	0x0038, 0x0002,
 279:Drivers/display_ILI-93xx_sm/lcd.c **** 	0x0039, 0x0707,
 280:Drivers/display_ILI-93xx_sm/lcd.c **** 	0x003C, 0x0704,
 281:Drivers/display_ILI-93xx_sm/lcd.c **** 	0x003D, 0x0807,
 282:Drivers/display_ILI-93xx_sm/lcd.c **** 	//-----Set RAM area-----------------------
 283:Drivers/display_ILI-93xx_sm/lcd.c **** 	0x0060, 0x2700,     //GS=0!
 284:Drivers/display_ILI-93xx_sm/lcd.c **** 	0x0061, 0x0001,
 285:Drivers/display_ILI-93xx_sm/lcd.c **** 	0x006A, 0x0000,
 286:Drivers/display_ILI-93xx_sm/lcd.c **** 	0x0021, 0x0000,
 287:Drivers/display_ILI-93xx_sm/lcd.c **** 	0x0020, 0x0000,
 288:Drivers/display_ILI-93xx_sm/lcd.c **** 	//-----Partial Display Control------------
 289:Drivers/display_ILI-93xx_sm/lcd.c **** 	0x0080, 0x0000,
 290:Drivers/display_ILI-93xx_sm/lcd.c **** 	0x0081, 0x0000,
 291:Drivers/display_ILI-93xx_sm/lcd.c **** 	0x0082, 0x0000,
 292:Drivers/display_ILI-93xx_sm/lcd.c **** 	0x0083, 0x0000,
 293:Drivers/display_ILI-93xx_sm/lcd.c **** 	0x0084, 0x0000,
 294:Drivers/display_ILI-93xx_sm/lcd.c **** 	0x0085, 0x0000,
 295:Drivers/display_ILI-93xx_sm/lcd.c **** 	//-----Panel Control----------------------
 296:Drivers/display_ILI-93xx_sm/lcd.c **** 	0x0090, 0x0010,
 297:Drivers/display_ILI-93xx_sm/lcd.c **** 	0x0092, 0x0000,
 298:Drivers/display_ILI-93xx_sm/lcd.c **** 	0x0093, 0x0003,
 299:Drivers/display_ILI-93xx_sm/lcd.c **** 	0x0095, 0x0110,
 300:Drivers/display_ILI-93xx_sm/lcd.c **** 	0x0097, 0x0000,
 301:Drivers/display_ILI-93xx_sm/lcd.c **** 	0x0098, 0x0000,
 302:Drivers/display_ILI-93xx_sm/lcd.c **** 	//-----Display on-----------------------
 303:Drivers/display_ILI-93xx_sm/lcd.c **** 	0x0007, 0x0173,
 304:Drivers/display_ILI-93xx_sm/lcd.c **** 	TFTLCD_DELAY, 50,
 305:Drivers/display_ILI-93xx_sm/lcd.c **** };
 306:Drivers/display_ILI-93xx_sm/lcd.c **** #elif defined(R61505V)
 307:Drivers/display_ILI-93xx_sm/lcd.c **** static const uint16_t R61505V_regValues[] = {
 308:Drivers/display_ILI-93xx_sm/lcd.c **** 	0x0000, 0x0000,
 309:Drivers/display_ILI-93xx_sm/lcd.c **** 	0x0000, 0x0000,
 310:Drivers/display_ILI-93xx_sm/lcd.c **** 	0x0000, 0x0000,
 311:Drivers/display_ILI-93xx_sm/lcd.c **** 	0x0000, 0x0001,
 312:Drivers/display_ILI-93xx_sm/lcd.c **** 	0x00A4, 0x0001,     //CALB=1
 313:Drivers/display_ILI-93xx_sm/lcd.c **** 	TFTLCD_DELAY, 10,
 314:Drivers/display_ILI-93xx_sm/lcd.c **** 	0x0060, 0x2700,     //NL
 315:Drivers/display_ILI-93xx_sm/lcd.c **** 	0x0008, 0x0808,     //FP & BP
 316:Drivers/display_ILI-93xx_sm/lcd.c **** 	0x0030, 0x0214,     //Gamma settings
ARM GAS  /tmp/cc47Teva.s 			page 7


 317:Drivers/display_ILI-93xx_sm/lcd.c **** 	0x0031, 0x3715,
 318:Drivers/display_ILI-93xx_sm/lcd.c **** 	0x0032, 0x0604,
 319:Drivers/display_ILI-93xx_sm/lcd.c **** 	0x0033, 0x0E16,
 320:Drivers/display_ILI-93xx_sm/lcd.c **** 	0x0034, 0x2211,
 321:Drivers/display_ILI-93xx_sm/lcd.c **** 	0x0035, 0x1500,
 322:Drivers/display_ILI-93xx_sm/lcd.c **** 	0x0036, 0x8507,
 323:Drivers/display_ILI-93xx_sm/lcd.c **** 	0x0037, 0x1407,
 324:Drivers/display_ILI-93xx_sm/lcd.c **** 	0x0038, 0x1403,
 325:Drivers/display_ILI-93xx_sm/lcd.c **** 	0x0039, 0x0020,
 326:Drivers/display_ILI-93xx_sm/lcd.c **** 	0x0090, 0x0015,     //DIVI & RTNI
 327:Drivers/display_ILI-93xx_sm/lcd.c **** 	0x0010, 0x0410,     //BT,AP
 328:Drivers/display_ILI-93xx_sm/lcd.c **** 	0x0011, 0x0237,     //VC,DC0,DC1
 329:Drivers/display_ILI-93xx_sm/lcd.c **** 	0x0029, 0x0046,     //VCM1
 330:Drivers/display_ILI-93xx_sm/lcd.c **** 	0x002A, 0x0046,     //VCMSEL,VCM2
 331:Drivers/display_ILI-93xx_sm/lcd.c **** 	// Sleep mode IN sequence
 332:Drivers/display_ILI-93xx_sm/lcd.c **** 	0x0007, 0x0000,
 333:Drivers/display_ILI-93xx_sm/lcd.c **** 	//0x0012, 0x0000,   //PSON=0,PON=0
 334:Drivers/display_ILI-93xx_sm/lcd.c **** 	// Sleep mode EXIT sequence
 335:Drivers/display_ILI-93xx_sm/lcd.c **** 	0x0012, 0x0189,     //VRH=9,VCMR=1,PSON=0,PON=0
 336:Drivers/display_ILI-93xx_sm/lcd.c **** 	0x0013, 0x1100,     //VDV
 337:Drivers/display_ILI-93xx_sm/lcd.c **** 	TFTLCD_DELAY, 150,
 338:Drivers/display_ILI-93xx_sm/lcd.c **** 	0x0012, 0x01B9,     //VRH=9,VCMR=1,PSON=1,PON=1 [018F]
 339:Drivers/display_ILI-93xx_sm/lcd.c **** 	0x0001, 0x0100,     //SS=1 Other mode settings
 340:Drivers/display_ILI-93xx_sm/lcd.c **** 	0x0002, 0x0200,     //BC0=1--Line inversion
 341:Drivers/display_ILI-93xx_sm/lcd.c **** 	0x0003, 0x1030,
 342:Drivers/display_ILI-93xx_sm/lcd.c **** 	0x0009, 0x0001,     //ISC=1 [0000]
 343:Drivers/display_ILI-93xx_sm/lcd.c **** 	0x000A, 0x0000,     // [0000]
 344:Drivers/display_ILI-93xx_sm/lcd.c **** 	//0x000C, 0x0001,   //RIM=1 [0000]
 345:Drivers/display_ILI-93xx_sm/lcd.c **** 	0x000D, 0x0000,     // [0000]
 346:Drivers/display_ILI-93xx_sm/lcd.c **** 	0x000E, 0x0030,     //VEM=3 VCOM equalize [0000]
 347:Drivers/display_ILI-93xx_sm/lcd.c **** 	0x0061, 0x0001,
 348:Drivers/display_ILI-93xx_sm/lcd.c **** 	0x006A, 0x0000,
 349:Drivers/display_ILI-93xx_sm/lcd.c **** 	0x0080, 0x0000,
 350:Drivers/display_ILI-93xx_sm/lcd.c **** 	0x0081, 0x0000,
 351:Drivers/display_ILI-93xx_sm/lcd.c **** 	0x0082, 0x005F,
 352:Drivers/display_ILI-93xx_sm/lcd.c **** 	0x0092, 0x0100,
 353:Drivers/display_ILI-93xx_sm/lcd.c **** 	0x0093, 0x0701,
 354:Drivers/display_ILI-93xx_sm/lcd.c **** 	TFTLCD_DELAY, 80,
 355:Drivers/display_ILI-93xx_sm/lcd.c **** 	0x0007, 0x0100,     //BASEE=1--Display On
 356:Drivers/display_ILI-93xx_sm/lcd.c **** };
 357:Drivers/display_ILI-93xx_sm/lcd.c **** #elif defined(R61520)
 358:Drivers/display_ILI-93xx_sm/lcd.c **** static const uint8_t R61520_regValues[] = { //AUTO_READINC | MIPI_DCS_REV1 | MV_AXIS | READ_24BITS
 359:Drivers/display_ILI-93xx_sm/lcd.c **** 	ILI9341_SOFTRESET			, 0,            //Soft Reset
 360:Drivers/display_ILI-93xx_sm/lcd.c **** 	TFTLCD_DELAY				, 150,  // .kbv will power up with ONLY reset, sleep out, display on
 361:Drivers/display_ILI-93xx_sm/lcd.c **** 	ILI9341_DISPLAYOFF			, 0,            //Display Off
 362:Drivers/display_ILI-93xx_sm/lcd.c **** 	ILI9341_PIXELFORMAT			, 1, 0x55,      //Pixel read=565, write=565.
 363:Drivers/display_ILI-93xx_sm/lcd.c ****     0xB0						, 1, 0x00,      //Command Access Protect
 364:Drivers/display_ILI-93xx_sm/lcd.c ****     0xC0						, 1, 0x08 | 0x02 | 0x01,// DM = 1, BGR = 1, MH = 1 // DM - SPLITFIX HERE!!!!
 365:Drivers/display_ILI-93xx_sm/lcd.c **** 	ILI9341_POSITIVEGAMMACORR	,15, 0x0f,0x31,0x2b,0x0c,0x0e,0x08,0x4e,0xf1,0x37,0x07,0x10,0x03,0x0e,0x
 366:Drivers/display_ILI-93xx_sm/lcd.c **** 	ILI9341_NEGATIVEGAMMACORR	,15, 0x00,0x0e,0x14,0x03,0x11,0x07,0x31,0xC1,0x48,0x08,0x0f,0x0c,0x31,0x
 367:Drivers/display_ILI-93xx_sm/lcd.c **** 	ILI9341_SLEEPOUT			, 0,            //Sleep Out
 368:Drivers/display_ILI-93xx_sm/lcd.c **** 	TFTLCD_DELAY				, 150,
 369:Drivers/display_ILI-93xx_sm/lcd.c **** 	ILI9341_DISPLAYON			, 0,            //Display On
 370:Drivers/display_ILI-93xx_sm/lcd.c **** 	TFTLCD_DELAY				, 100,
 371:Drivers/display_ILI-93xx_sm/lcd.c **** 	ILI9341_MEMORYWRITE			, 0,
 372:Drivers/display_ILI-93xx_sm/lcd.c **** };
 373:Drivers/display_ILI-93xx_sm/lcd.c **** #elif defined(S6D0154)
ARM GAS  /tmp/cc47Teva.s 			page 8


 374:Drivers/display_ILI-93xx_sm/lcd.c **** static const uint16_t S6D0154_regValues[] = {
 375:Drivers/display_ILI-93xx_sm/lcd.c **** 	0x0011, 0x001A,
 376:Drivers/display_ILI-93xx_sm/lcd.c **** 	0x0012, 0x3121,
 377:Drivers/display_ILI-93xx_sm/lcd.c **** 	0x0013, 0x006C,
 378:Drivers/display_ILI-93xx_sm/lcd.c **** 	0x0014, 0x4249,
 379:Drivers/display_ILI-93xx_sm/lcd.c **** 	0x0010, 0x0800,
 380:Drivers/display_ILI-93xx_sm/lcd.c **** 	TFTLCD_DELAY, 10,
 381:Drivers/display_ILI-93xx_sm/lcd.c **** 	0x0011, 0x011A,
 382:Drivers/display_ILI-93xx_sm/lcd.c **** 	TFTLCD_DELAY, 10,
 383:Drivers/display_ILI-93xx_sm/lcd.c **** 	0x0011, 0x031A,
 384:Drivers/display_ILI-93xx_sm/lcd.c **** 	TFTLCD_DELAY, 10,
 385:Drivers/display_ILI-93xx_sm/lcd.c **** 	0x0011, 0x071A,
 386:Drivers/display_ILI-93xx_sm/lcd.c **** 	TFTLCD_DELAY, 10,
 387:Drivers/display_ILI-93xx_sm/lcd.c **** 	0x0011, 0x0F1A,
 388:Drivers/display_ILI-93xx_sm/lcd.c **** 	TFTLCD_DELAY, 10,
 389:Drivers/display_ILI-93xx_sm/lcd.c **** 	0x0011, 0x0F3A,
 390:Drivers/display_ILI-93xx_sm/lcd.c **** 	TFTLCD_DELAY, 30,
 391:Drivers/display_ILI-93xx_sm/lcd.c **** 	0x0001, 0x0128,
 392:Drivers/display_ILI-93xx_sm/lcd.c **** 	0x0002, 0x0100,
 393:Drivers/display_ILI-93xx_sm/lcd.c **** 	0x0003, 0x1030,
 394:Drivers/display_ILI-93xx_sm/lcd.c **** 	0x0007, 0x1012,
 395:Drivers/display_ILI-93xx_sm/lcd.c **** 	0x0008, 0x0303,
 396:Drivers/display_ILI-93xx_sm/lcd.c **** 	0x000B, 0x1100,
 397:Drivers/display_ILI-93xx_sm/lcd.c **** 	0x000C, 0x0000,
 398:Drivers/display_ILI-93xx_sm/lcd.c **** 	0x000F, 0x1801,
 399:Drivers/display_ILI-93xx_sm/lcd.c **** 	0x0015, 0x0020,
 400:Drivers/display_ILI-93xx_sm/lcd.c **** 	/*
 401:Drivers/display_ILI-93xx_sm/lcd.c **** 	0x0050,0x0101,
 402:Drivers/display_ILI-93xx_sm/lcd.c **** 	0x0051,0x0603,
 403:Drivers/display_ILI-93xx_sm/lcd.c **** 	0x0052,0x0408,
 404:Drivers/display_ILI-93xx_sm/lcd.c **** 	0x0053,0x0000,
 405:Drivers/display_ILI-93xx_sm/lcd.c **** 	0x0054,0x0605,
 406:Drivers/display_ILI-93xx_sm/lcd.c **** 	0x0055,0x0406,
 407:Drivers/display_ILI-93xx_sm/lcd.c **** 	0x0056,0x0303,
 408:Drivers/display_ILI-93xx_sm/lcd.c **** 	0x0057,0x0303,
 409:Drivers/display_ILI-93xx_sm/lcd.c **** 	0x0058,0x0010,
 410:Drivers/display_ILI-93xx_sm/lcd.c **** 	0x0059,0x1000,
 411:Drivers/display_ILI-93xx_sm/lcd.c **** 	*/
 412:Drivers/display_ILI-93xx_sm/lcd.c **** 	0x0007, 0x0012,
 413:Drivers/display_ILI-93xx_sm/lcd.c **** 	TFTLCD_DELAY, 40,
 414:Drivers/display_ILI-93xx_sm/lcd.c **** 	0x0007, 0x0013,     /* GRAM Address Set */
 415:Drivers/display_ILI-93xx_sm/lcd.c **** 	0x0007, 0x0017,     /* Display Control DISPLAY ON */
 416:Drivers/display_ILI-93xx_sm/lcd.c **** };
 417:Drivers/display_ILI-93xx_sm/lcd.c **** #elif defined(HX8347D)
 418:Drivers/display_ILI-93xx_sm/lcd.c **** static const uint8_t HX8347D_regValues[] = {
 419:Drivers/display_ILI-93xx_sm/lcd.c **** 	0x2E, 0x89,
 420:Drivers/display_ILI-93xx_sm/lcd.c **** 	0x29, 0x8F,
 421:Drivers/display_ILI-93xx_sm/lcd.c **** 	0x2B, 0x02,
 422:Drivers/display_ILI-93xx_sm/lcd.c **** 	0xE2, 0x00,
 423:Drivers/display_ILI-93xx_sm/lcd.c **** 	0xE4, 0x01,
 424:Drivers/display_ILI-93xx_sm/lcd.c **** 	0xE5, 0x10,
 425:Drivers/display_ILI-93xx_sm/lcd.c **** 	0xE6, 0x01,
 426:Drivers/display_ILI-93xx_sm/lcd.c **** 	0xE7, 0x10,
 427:Drivers/display_ILI-93xx_sm/lcd.c **** 	0xE8, 0x70,
 428:Drivers/display_ILI-93xx_sm/lcd.c **** 	0xF2, 0x00,
 429:Drivers/display_ILI-93xx_sm/lcd.c **** 	0xEA, 0x00,
 430:Drivers/display_ILI-93xx_sm/lcd.c **** 	0xEB, 0x20,
ARM GAS  /tmp/cc47Teva.s 			page 9


 431:Drivers/display_ILI-93xx_sm/lcd.c **** 	0xEC, 0x3C,
 432:Drivers/display_ILI-93xx_sm/lcd.c **** 	0xED, 0xC8,
 433:Drivers/display_ILI-93xx_sm/lcd.c **** 	0xE9, 0x38,
 434:Drivers/display_ILI-93xx_sm/lcd.c **** 	0xF1, 0x01,
 435:Drivers/display_ILI-93xx_sm/lcd.c **** 	// skip gamma, do later
 436:Drivers/display_ILI-93xx_sm/lcd.c **** 	0x1B, 0x1A,
 437:Drivers/display_ILI-93xx_sm/lcd.c **** 	0x1A, 0x02,
 438:Drivers/display_ILI-93xx_sm/lcd.c **** 	0x24, 0x61,
 439:Drivers/display_ILI-93xx_sm/lcd.c **** 	0x25, 0x5C,
 440:Drivers/display_ILI-93xx_sm/lcd.c **** 	0x18, 0x36,
 441:Drivers/display_ILI-93xx_sm/lcd.c **** 	0x19, 0x01,
 442:Drivers/display_ILI-93xx_sm/lcd.c **** 	0x1F, 0x88,
 443:Drivers/display_ILI-93xx_sm/lcd.c **** 	TFTLCD_DELAY, 5,// delay 5 ms
 444:Drivers/display_ILI-93xx_sm/lcd.c **** 	0x1F, 0x80,
 445:Drivers/display_ILI-93xx_sm/lcd.c **** 	TFTLCD_DELAY, 5,
 446:Drivers/display_ILI-93xx_sm/lcd.c **** 	0x1F, 0x90,
 447:Drivers/display_ILI-93xx_sm/lcd.c **** 	TFTLCD_DELAY, 5,
 448:Drivers/display_ILI-93xx_sm/lcd.c **** 	0x1F, 0xD4,
 449:Drivers/display_ILI-93xx_sm/lcd.c **** 	TFTLCD_DELAY, 5,
 450:Drivers/display_ILI-93xx_sm/lcd.c **** 	0x17, 0x05,
 451:Drivers/display_ILI-93xx_sm/lcd.c **** 	0x36, 0x01,	// MADCTL: 0x01 BGR=1, 0x02 INVERTCOLOR=1, 0x04 MY=1, 0x08 MX=1
 452:Drivers/display_ILI-93xx_sm/lcd.c **** 	0x28, 0x38,
 453:Drivers/display_ILI-93xx_sm/lcd.c **** 	TFTLCD_DELAY, 40,
 454:Drivers/display_ILI-93xx_sm/lcd.c **** 	0x28, 0x3C,
 455:Drivers/display_ILI-93xx_sm/lcd.c **** 	0x02, 0x00,
 456:Drivers/display_ILI-93xx_sm/lcd.c **** 	0x03, 0x00,
 457:Drivers/display_ILI-93xx_sm/lcd.c **** 	0x04, 0x00,
 458:Drivers/display_ILI-93xx_sm/lcd.c **** 	0x05, 0xEF,
 459:Drivers/display_ILI-93xx_sm/lcd.c **** 	0x06, 0x00,
 460:Drivers/display_ILI-93xx_sm/lcd.c **** 	0x07, 0x00,
 461:Drivers/display_ILI-93xx_sm/lcd.c **** 	0x08, 0x01,
 462:Drivers/display_ILI-93xx_sm/lcd.c **** 	0x09, 0x3F
 463:Drivers/display_ILI-93xx_sm/lcd.c **** };
 464:Drivers/display_ILI-93xx_sm/lcd.c **** #elif defined(HX8347G)
 465:Drivers/display_ILI-93xx_sm/lcd.c **** static const uint8_t HX8347G_regValues[] = {
 466:Drivers/display_ILI-93xx_sm/lcd.c **** 	0x2E, 0x89,
 467:Drivers/display_ILI-93xx_sm/lcd.c **** 	0x29, 0x8F,
 468:Drivers/display_ILI-93xx_sm/lcd.c **** 	0x2B, 0x02,
 469:Drivers/display_ILI-93xx_sm/lcd.c **** 	0xE2, 0x00,
 470:Drivers/display_ILI-93xx_sm/lcd.c **** 	0xE4, 0x01,
 471:Drivers/display_ILI-93xx_sm/lcd.c **** 	0xE5, 0x10,
 472:Drivers/display_ILI-93xx_sm/lcd.c **** 	0xE6, 0x01,
 473:Drivers/display_ILI-93xx_sm/lcd.c **** 	0xE7, 0x10,
 474:Drivers/display_ILI-93xx_sm/lcd.c **** 	0xE8, 0x70,
 475:Drivers/display_ILI-93xx_sm/lcd.c **** 	0xF2, 0x00,
 476:Drivers/display_ILI-93xx_sm/lcd.c **** 	0xEA, 0x00,
 477:Drivers/display_ILI-93xx_sm/lcd.c **** 	0xEB, 0x20,
 478:Drivers/display_ILI-93xx_sm/lcd.c **** 	0xEC, 0x3C,
 479:Drivers/display_ILI-93xx_sm/lcd.c **** 	0xED, 0xC8,
 480:Drivers/display_ILI-93xx_sm/lcd.c **** 	0xE9, 0x38,
 481:Drivers/display_ILI-93xx_sm/lcd.c **** 	0xF1, 0x01,
 482:Drivers/display_ILI-93xx_sm/lcd.c **** 	// skip gamma, do later
 483:Drivers/display_ILI-93xx_sm/lcd.c **** 	0x1B, 0x1A,
 484:Drivers/display_ILI-93xx_sm/lcd.c **** 	0x1A, 0x02,
 485:Drivers/display_ILI-93xx_sm/lcd.c **** 	0x24, 0x61,
 486:Drivers/display_ILI-93xx_sm/lcd.c **** 	0x25, 0x5C,
 487:Drivers/display_ILI-93xx_sm/lcd.c **** 	0x18, 0x36,
ARM GAS  /tmp/cc47Teva.s 			page 10


 488:Drivers/display_ILI-93xx_sm/lcd.c **** 	0x19, 0x01,
 489:Drivers/display_ILI-93xx_sm/lcd.c **** 	0x1F, 0x88,
 490:Drivers/display_ILI-93xx_sm/lcd.c **** 	TFTLCD_DELAY, 5,// delay 5 ms
 491:Drivers/display_ILI-93xx_sm/lcd.c **** 	0x1F, 0x80,
 492:Drivers/display_ILI-93xx_sm/lcd.c **** 	TFTLCD_DELAY, 5,
 493:Drivers/display_ILI-93xx_sm/lcd.c **** 	0x1F, 0x90,
 494:Drivers/display_ILI-93xx_sm/lcd.c **** 	TFTLCD_DELAY, 5,
 495:Drivers/display_ILI-93xx_sm/lcd.c **** 	0x1F, 0xD4,
 496:Drivers/display_ILI-93xx_sm/lcd.c **** 	TFTLCD_DELAY, 5,
 497:Drivers/display_ILI-93xx_sm/lcd.c **** 	0x17, 0x05,
 498:Drivers/display_ILI-93xx_sm/lcd.c **** 	0x36, 0x09,
 499:Drivers/display_ILI-93xx_sm/lcd.c **** 	0x28, 0x38,
 500:Drivers/display_ILI-93xx_sm/lcd.c **** 	TFTLCD_DELAY, 40,
 501:Drivers/display_ILI-93xx_sm/lcd.c **** 	0x28, 0x3C,
 502:Drivers/display_ILI-93xx_sm/lcd.c **** 	0x02, 0x00,
 503:Drivers/display_ILI-93xx_sm/lcd.c **** 	0x03, 0x00,
 504:Drivers/display_ILI-93xx_sm/lcd.c **** 	0x04, 0x00,
 505:Drivers/display_ILI-93xx_sm/lcd.c **** 	0x05, 0xEF,
 506:Drivers/display_ILI-93xx_sm/lcd.c **** 	0x06, 0x00,
 507:Drivers/display_ILI-93xx_sm/lcd.c **** 	0x07, 0x00,
 508:Drivers/display_ILI-93xx_sm/lcd.c **** 	0x08, 0x01,
 509:Drivers/display_ILI-93xx_sm/lcd.c **** 	0x09, 0x3F
 510:Drivers/display_ILI-93xx_sm/lcd.c **** };
 511:Drivers/display_ILI-93xx_sm/lcd.c **** #elif defined(HX8357D)
 512:Drivers/display_ILI-93xx_sm/lcd.c **** static const uint8_t HX8357D_regValues[] = {
 513:Drivers/display_ILI-93xx_sm/lcd.c **** 	HX8357_SWRESET, 0,
 514:Drivers/display_ILI-93xx_sm/lcd.c **** 	HX8357D_SETC, 3, 0xFF, 0x83, 0x57,
 515:Drivers/display_ILI-93xx_sm/lcd.c **** 	TFTLCD_DELAY, 250,
 516:Drivers/display_ILI-93xx_sm/lcd.c **** 	HX8357_SETRGB, 4, 0x00, 0x00, 0x06, 0x06,
 517:Drivers/display_ILI-93xx_sm/lcd.c **** 	HX8357D_SETCOM, 1, 0x25,  // -1.52V
 518:Drivers/display_ILI-93xx_sm/lcd.c **** 	HX8357_SETOSC, 1, 0x68,  // Normal mode 70Hz, Idle mode 55 Hz
 519:Drivers/display_ILI-93xx_sm/lcd.c **** 	HX8357_SETPANEL, 1, 0x05,  // BGR, Gate direction swapped
 520:Drivers/display_ILI-93xx_sm/lcd.c **** 	HX8357_SETPWR1, 6, 0x00, 0x15, 0x1C, 0x1C, 0x83, 0xAA,
 521:Drivers/display_ILI-93xx_sm/lcd.c **** 	HX8357D_SETSTBA, 6, 0x50, 0x50, 0x01, 0x3C, 0x1E, 0x08,
 522:Drivers/display_ILI-93xx_sm/lcd.c **** 	// MEME GAMMA HERE
 523:Drivers/display_ILI-93xx_sm/lcd.c **** 	HX8357D_SETCYC, 7, 0x02, 0x40, 0x00, 0x2A, 0x2A, 0x0D, 0x78,
 524:Drivers/display_ILI-93xx_sm/lcd.c **** 	HX8357_COLMOD, 1, 0x55,
 525:Drivers/display_ILI-93xx_sm/lcd.c **** 	HX8357_MADCTL, 1, 0xC0,
 526:Drivers/display_ILI-93xx_sm/lcd.c **** 	HX8357_TEON, 1, 0x00,
 527:Drivers/display_ILI-93xx_sm/lcd.c **** 	HX8357_TEARLINE, 2, 0x00, 0x02,
 528:Drivers/display_ILI-93xx_sm/lcd.c **** 	HX8357_SLPOUT, 0,
 529:Drivers/display_ILI-93xx_sm/lcd.c **** 	TFTLCD_DELAY, 150,
 530:Drivers/display_ILI-93xx_sm/lcd.c **** 	HX8357_DISPON, 0,
 531:Drivers/display_ILI-93xx_sm/lcd.c **** 	TFTLCD_DELAY, 50,
 532:Drivers/display_ILI-93xx_sm/lcd.c **** };
 533:Drivers/display_ILI-93xx_sm/lcd.c **** #elif defined(ST7781)
 534:Drivers/display_ILI-93xx_sm/lcd.c **** static const uint16_t ST7781_regValues[] = {
 535:Drivers/display_ILI-93xx_sm/lcd.c **** 	0x0001, 0x0100,
 536:Drivers/display_ILI-93xx_sm/lcd.c **** 	0x0002, 0x0700,
 537:Drivers/display_ILI-93xx_sm/lcd.c **** 	0x0003, 0x1030,
 538:Drivers/display_ILI-93xx_sm/lcd.c **** 	0x0008, 0x0302,
 539:Drivers/display_ILI-93xx_sm/lcd.c **** 	0x0009, 0x0000,
 540:Drivers/display_ILI-93xx_sm/lcd.c **** 	0x000A, 0x0008,
 541:Drivers/display_ILI-93xx_sm/lcd.c **** 	//*******POWER CONTROL REGISTER INITIAL*******//
 542:Drivers/display_ILI-93xx_sm/lcd.c **** 	0x0010, 0x0790,
 543:Drivers/display_ILI-93xx_sm/lcd.c **** 	0x0011, 0x0005,
 544:Drivers/display_ILI-93xx_sm/lcd.c **** 	0x0012, 0x0000,
ARM GAS  /tmp/cc47Teva.s 			page 11


 545:Drivers/display_ILI-93xx_sm/lcd.c **** 	0x0013, 0x0000,
 546:Drivers/display_ILI-93xx_sm/lcd.c **** 	//delayms(50,
 547:Drivers/display_ILI-93xx_sm/lcd.c **** 	//********POWER SUPPPLY STARTUP 1 SETTING*******//
 548:Drivers/display_ILI-93xx_sm/lcd.c **** 	0x0010, 0x12B0,
 549:Drivers/display_ILI-93xx_sm/lcd.c **** 	// delayms(50,
 550:Drivers/display_ILI-93xx_sm/lcd.c **** 	0x0011, 0x0007,
 551:Drivers/display_ILI-93xx_sm/lcd.c **** 	//delayms(50,
 552:Drivers/display_ILI-93xx_sm/lcd.c **** 	//********POWER SUPPLY STARTUP 2 SETTING******//
 553:Drivers/display_ILI-93xx_sm/lcd.c **** 	0x0012, 0x008C,
 554:Drivers/display_ILI-93xx_sm/lcd.c **** 	0x0013, 0x1700,
 555:Drivers/display_ILI-93xx_sm/lcd.c **** 	0x0029, 0x0022,
 556:Drivers/display_ILI-93xx_sm/lcd.c **** 	// delayms(50,
 557:Drivers/display_ILI-93xx_sm/lcd.c **** 	//******GAMMA CLUSTER SETTING******//
 558:Drivers/display_ILI-93xx_sm/lcd.c **** 	0x0030, 0x0000,
 559:Drivers/display_ILI-93xx_sm/lcd.c **** 	0x0031, 0x0505,
 560:Drivers/display_ILI-93xx_sm/lcd.c **** 	0x0032, 0x0205,
 561:Drivers/display_ILI-93xx_sm/lcd.c **** 	0x0035, 0x0206,
 562:Drivers/display_ILI-93xx_sm/lcd.c **** 	0x0036, 0x0408,
 563:Drivers/display_ILI-93xx_sm/lcd.c **** 	0x0037, 0x0000,
 564:Drivers/display_ILI-93xx_sm/lcd.c **** 	0x0038, 0x0504,
 565:Drivers/display_ILI-93xx_sm/lcd.c **** 	0x0039, 0x0206,
 566:Drivers/display_ILI-93xx_sm/lcd.c **** 	0x003C, 0x0206,
 567:Drivers/display_ILI-93xx_sm/lcd.c **** 	0x003D, 0x0408,
 568:Drivers/display_ILI-93xx_sm/lcd.c **** 	// -----------DISPLAY WINDOWS 240*320-------------//
 569:Drivers/display_ILI-93xx_sm/lcd.c **** 	0x0050, 0x0000,
 570:Drivers/display_ILI-93xx_sm/lcd.c **** 	0x0051, 0x00EF,
 571:Drivers/display_ILI-93xx_sm/lcd.c **** 	0x0052, 0x0000,
 572:Drivers/display_ILI-93xx_sm/lcd.c **** 	0x0053, 0x013F,
 573:Drivers/display_ILI-93xx_sm/lcd.c **** 	//-----FRAME RATE SETTING-------//
 574:Drivers/display_ILI-93xx_sm/lcd.c **** 	0x0060, 0xA700,
 575:Drivers/display_ILI-93xx_sm/lcd.c **** 	0x0061, 0x0001,
 576:Drivers/display_ILI-93xx_sm/lcd.c **** 	0x0090, 0x0033,//RTNI setting
 577:Drivers/display_ILI-93xx_sm/lcd.c **** 	//-------DISPLAY ON------//
 578:Drivers/display_ILI-93xx_sm/lcd.c **** 	0x0007, 0x0133,
 579:Drivers/display_ILI-93xx_sm/lcd.c **** 	0x0001, 0x0100,
 580:Drivers/display_ILI-93xx_sm/lcd.c **** 	0x0002, 0x0700,
 581:Drivers/display_ILI-93xx_sm/lcd.c **** 	0x0003, 0x1030,
 582:Drivers/display_ILI-93xx_sm/lcd.c **** 	0x0008, 0x0302,
 583:Drivers/display_ILI-93xx_sm/lcd.c **** 	0x0009, 0x0000,
 584:Drivers/display_ILI-93xx_sm/lcd.c **** 	0x000A, 0x0008,
 585:Drivers/display_ILI-93xx_sm/lcd.c **** 	//*******POWER CONTROL REGISTER INITIAL*******//
 586:Drivers/display_ILI-93xx_sm/lcd.c **** 	0x0010, 0x0790,
 587:Drivers/display_ILI-93xx_sm/lcd.c **** 	0x0011, 0x0005,
 588:Drivers/display_ILI-93xx_sm/lcd.c **** 	0x0012, 0x0000,
 589:Drivers/display_ILI-93xx_sm/lcd.c **** 	0x0013, 0x0000,
 590:Drivers/display_ILI-93xx_sm/lcd.c **** 	TFTLCD_DELAY, 5,
 591:Drivers/display_ILI-93xx_sm/lcd.c **** 	//********POWER SUPPPLY STARTUP 1 SETTING*******//
 592:Drivers/display_ILI-93xx_sm/lcd.c **** 	0x0010, 0x12B0,
 593:Drivers/display_ILI-93xx_sm/lcd.c **** 	TFTLCD_DELAY, 5,
 594:Drivers/display_ILI-93xx_sm/lcd.c **** 	0x0011, 0x0007,
 595:Drivers/display_ILI-93xx_sm/lcd.c **** 	TFTLCD_DELAY, 5,
 596:Drivers/display_ILI-93xx_sm/lcd.c **** 	//********POWER SUPPLY STARTUP 2 SETTING******//
 597:Drivers/display_ILI-93xx_sm/lcd.c **** 	0x0012, 0x008C,
 598:Drivers/display_ILI-93xx_sm/lcd.c **** 	0x0013, 0x1700,
 599:Drivers/display_ILI-93xx_sm/lcd.c **** 	0x0029, 0x0022,
 600:Drivers/display_ILI-93xx_sm/lcd.c **** 	TFTLCD_DELAY, 5,
 601:Drivers/display_ILI-93xx_sm/lcd.c **** 	//******GAMMA CLUSTER SETTING******//
ARM GAS  /tmp/cc47Teva.s 			page 12


 602:Drivers/display_ILI-93xx_sm/lcd.c **** 	0x0030, 0x0000,
 603:Drivers/display_ILI-93xx_sm/lcd.c **** 	0x0031, 0x0505,
 604:Drivers/display_ILI-93xx_sm/lcd.c **** 	0x0032, 0x0205,
 605:Drivers/display_ILI-93xx_sm/lcd.c **** 	0x0035, 0x0206,
 606:Drivers/display_ILI-93xx_sm/lcd.c **** 	0x0036, 0x0408,
 607:Drivers/display_ILI-93xx_sm/lcd.c **** 	0x0037, 0x0000,
 608:Drivers/display_ILI-93xx_sm/lcd.c **** 	0x0038, 0x0504,
 609:Drivers/display_ILI-93xx_sm/lcd.c **** 	0x0039, 0x0206,
 610:Drivers/display_ILI-93xx_sm/lcd.c **** 	0x003C, 0x0206,
 611:Drivers/display_ILI-93xx_sm/lcd.c **** 	0x003D, 0x0408,
 612:Drivers/display_ILI-93xx_sm/lcd.c **** 	// -----------DISPLAY WINDOWS 240*320-------------//
 613:Drivers/display_ILI-93xx_sm/lcd.c **** 	0x0050, 0x0000,
 614:Drivers/display_ILI-93xx_sm/lcd.c **** 	0x0051, 0x00EF,
 615:Drivers/display_ILI-93xx_sm/lcd.c **** 	0x0052, 0x0000,
 616:Drivers/display_ILI-93xx_sm/lcd.c **** 	0x0053, 0x013F,
 617:Drivers/display_ILI-93xx_sm/lcd.c **** 	//-----FRAME RATE SETTING-------//
 618:Drivers/display_ILI-93xx_sm/lcd.c **** 	0x0060, 0xA700,
 619:Drivers/display_ILI-93xx_sm/lcd.c **** 	0x0061, 0x0001,
 620:Drivers/display_ILI-93xx_sm/lcd.c **** 	0x0090, 0x0033, //RTNI setting
 621:Drivers/display_ILI-93xx_sm/lcd.c **** 	//-------DISPLAY ON------//
 622:Drivers/display_ILI-93xx_sm/lcd.c **** 	0x0007, 0x0133,
 623:Drivers/display_ILI-93xx_sm/lcd.c **** 	TFTLCD_DELAY, 50,
 624:Drivers/display_ILI-93xx_sm/lcd.c **** };
 625:Drivers/display_ILI-93xx_sm/lcd.c **** #elif defined (SSD1297)
 626:Drivers/display_ILI-93xx_sm/lcd.c **** // came from MikroElektronika library http://www.hmsprojects.com/tft_lcd.html
 627:Drivers/display_ILI-93xx_sm/lcd.c **** static const uint16_t SSD1297_regValues[] = {
 628:Drivers/display_ILI-93xx_sm/lcd.c ****         0x0000, 0x0001,
 629:Drivers/display_ILI-93xx_sm/lcd.c ****         0x0003, 0xA8A4,
 630:Drivers/display_ILI-93xx_sm/lcd.c ****         0x000C, 0x0000,
 631:Drivers/display_ILI-93xx_sm/lcd.c ****         0x000D, 0x000A,     // VRH=10
 632:Drivers/display_ILI-93xx_sm/lcd.c ****         0x000E, 0x2B00,
 633:Drivers/display_ILI-93xx_sm/lcd.c ****         0x001E, 0x00B7,
 634:Drivers/display_ILI-93xx_sm/lcd.c ****         0x0001, 0x2B3F,     // setRotation() alters
 635:Drivers/display_ILI-93xx_sm/lcd.c ****         0x0002, 0x0600,     // B_C=1, EOR=1
 636:Drivers/display_ILI-93xx_sm/lcd.c ****         0x0010, 0x0000,
 637:Drivers/display_ILI-93xx_sm/lcd.c ****         0x0011, 0x4C30,     // setRotation() alters
 638:Drivers/display_ILI-93xx_sm/lcd.c ****         0x0005, 0x0000,
 639:Drivers/display_ILI-93xx_sm/lcd.c ****         0x0006, 0x0000,
 640:Drivers/display_ILI-93xx_sm/lcd.c ****         0x0016, 0xEF1C,
 641:Drivers/display_ILI-93xx_sm/lcd.c ****         0x0017, 0x0003,
 642:Drivers/display_ILI-93xx_sm/lcd.c ****         0x0007, 0x0233,
 643:Drivers/display_ILI-93xx_sm/lcd.c ****         0x000B, 0x0000,
 644:Drivers/display_ILI-93xx_sm/lcd.c ****         0x000F, 0x0000,
 645:Drivers/display_ILI-93xx_sm/lcd.c ****         0x0030, 0x0707,
 646:Drivers/display_ILI-93xx_sm/lcd.c ****         0x0031, 0x0204,
 647:Drivers/display_ILI-93xx_sm/lcd.c ****         0x0032, 0x0204,
 648:Drivers/display_ILI-93xx_sm/lcd.c ****         0x0033, 0x0502,
 649:Drivers/display_ILI-93xx_sm/lcd.c ****         0x0034, 0x0507,
 650:Drivers/display_ILI-93xx_sm/lcd.c ****         0x0035, 0x0204,
 651:Drivers/display_ILI-93xx_sm/lcd.c ****         0x0036, 0x0204,
 652:Drivers/display_ILI-93xx_sm/lcd.c ****         0x0037, 0x0502,
 653:Drivers/display_ILI-93xx_sm/lcd.c ****         0x003A, 0x0302,
 654:Drivers/display_ILI-93xx_sm/lcd.c ****         0x003B, 0x0302,
 655:Drivers/display_ILI-93xx_sm/lcd.c ****         0x0023, 0x0000,
 656:Drivers/display_ILI-93xx_sm/lcd.c ****         0x0024, 0x0000,
 657:Drivers/display_ILI-93xx_sm/lcd.c ****         0x0025, 0x8000
 658:Drivers/display_ILI-93xx_sm/lcd.c **** };
ARM GAS  /tmp/cc47Teva.s 			page 13


 659:Drivers/display_ILI-93xx_sm/lcd.c **** #endif
 660:Drivers/display_ILI-93xx_sm/lcd.c **** 
 661:Drivers/display_ILI-93xx_sm/lcd.c **** /**
 662:Drivers/display_ILI-93xx_sm/lcd.c ****  * \brief Makes a delays for t processor cycles
 663:Drivers/display_ILI-93xx_sm/lcd.c ****  *
 664:Drivers/display_ILI-93xx_sm/lcd.c ****  * \param t		Number of "nop" cycles
 665:Drivers/display_ILI-93xx_sm/lcd.c ****  *
 666:Drivers/display_ILI-93xx_sm/lcd.c ****  * \return void
 667:Drivers/display_ILI-93xx_sm/lcd.c ****  */		
 668:Drivers/display_ILI-93xx_sm/lcd.c **** inline void delay(uint32_t t) {
  28              		.loc 1 668 31 view -0
  29              		.cfi_startproc
  30              		@ args = 0, pretend = 0, frame = 0
  31              		@ frame_needed = 0, uses_anonymous_args = 0
  32              		@ link register save eliminated.
 669:Drivers/display_ILI-93xx_sm/lcd.c **** 	for (; t; t--) __asm("nop");
  33              		.loc 1 669 2 view .LVU1
  34              	.L2:
  35              		.loc 1 669 2 is_stmt 0 discriminator 1 view .LVU2
  36 0000 10B1     		cbz	r0, .L4
  37              		.loc 1 669 17 is_stmt 1 discriminator 2 view .LVU3
  38              		.syntax unified
  39              	@ 669 "Drivers/display_ILI-93xx_sm/lcd.c" 1
  40 0002 00BF     		nop
  41              	@ 0 "" 2
  42              		.loc 1 669 13 is_stmt 0 discriminator 2 view .LVU4
  43              		.thumb
  44              		.syntax unified
  45 0004 0138     		subs	r0, r0, #1
  46              	.LVL1:
  47              		.loc 1 669 13 discriminator 2 view .LVU5
  48 0006 FBE7     		b	.L2
  49              	.L4:
 670:Drivers/display_ILI-93xx_sm/lcd.c **** }
  50              		.loc 1 670 1 view .LVU6
  51 0008 7047     		bx	lr
  52              		.cfi_endproc
  53              	.LFE68:
  55              		.section	.text.GPIO_Init,"ax",%progbits
  56              		.align	1
  57              		.global	GPIO_Init
  58              		.syntax unified
  59              		.thumb
  60              		.thumb_func
  61              		.fpu softvfp
  63              	GPIO_Init:
  64              	.LVL2:
  65              	.LFB69:
 671:Drivers/display_ILI-93xx_sm/lcd.c **** 
 672:Drivers/display_ILI-93xx_sm/lcd.c **** /**
 673:Drivers/display_ILI-93xx_sm/lcd.c ****  * \brief GPIO Initialization
 674:Drivers/display_ILI-93xx_sm/lcd.c ****  *
 675:Drivers/display_ILI-93xx_sm/lcd.c ****  * \param
 676:Drivers/display_ILI-93xx_sm/lcd.c ****  *
 677:Drivers/display_ILI-93xx_sm/lcd.c ****  * \return void
 678:Drivers/display_ILI-93xx_sm/lcd.c ****  */
 679:Drivers/display_ILI-93xx_sm/lcd.c **** void GPIO_Init(uint32_t mode) {
ARM GAS  /tmp/cc47Teva.s 			page 14


  66              		.loc 1 679 31 is_stmt 1 view -0
  67              		.cfi_startproc
  68              		@ args = 0, pretend = 0, frame = 32
  69              		@ frame_needed = 0, uses_anonymous_args = 0
 680:Drivers/display_ILI-93xx_sm/lcd.c **** 
 681:Drivers/display_ILI-93xx_sm/lcd.c **** 	// GPIO to data bus pin connections
 682:Drivers/display_ILI-93xx_sm/lcd.c **** 	// ---- PORT Pin ---     --- Data ----
 683:Drivers/display_ILI-93xx_sm/lcd.c **** 	// GPIOA, GPIO_PIN_9  -> BIT 0
 684:Drivers/display_ILI-93xx_sm/lcd.c **** 	// GPIOC, GPIO_PIN_7  -> BIT 1
 685:Drivers/display_ILI-93xx_sm/lcd.c **** 	// GPIOA, GPIO_PIN_10 -> BIT 2
 686:Drivers/display_ILI-93xx_sm/lcd.c **** 	// GPIOB, GPIO_PIN_3  -> BIT 3
 687:Drivers/display_ILI-93xx_sm/lcd.c **** 	// GPIOB, GPIO_PIN_5  -> BIT 4
 688:Drivers/display_ILI-93xx_sm/lcd.c **** 	// GPIOB, GPIO_PIN_4  -> BIT 5
 689:Drivers/display_ILI-93xx_sm/lcd.c **** 	// GPIOB, GPIO_PIN_10 -> BIT 6
 690:Drivers/display_ILI-93xx_sm/lcd.c **** 	// GPIOA, GPIO_PIN_8  -> BIT 7
 691:Drivers/display_ILI-93xx_sm/lcd.c **** 
 692:Drivers/display_ILI-93xx_sm/lcd.c **** 	// GPIO to control bus pin connections
 693:Drivers/display_ILI-93xx_sm/lcd.c **** 	// ---- PORT Pin ---     --- Signal ----
 694:Drivers/display_ILI-93xx_sm/lcd.c **** 	// GPIOB, GPIO_PIN_0  -> CS
 695:Drivers/display_ILI-93xx_sm/lcd.c **** 	// GPIOA, GPIO_PIN_4  -> CD or RS
 696:Drivers/display_ILI-93xx_sm/lcd.c **** 	// GPIOC, GPIO_PIN_1  -> RST
 697:Drivers/display_ILI-93xx_sm/lcd.c **** 	// GPIOA, GPIO_PIN_0  -> RD
 698:Drivers/display_ILI-93xx_sm/lcd.c **** 	// GPIOA, GPIO_PIN_1  -> WR
 699:Drivers/display_ILI-93xx_sm/lcd.c **** 
 700:Drivers/display_ILI-93xx_sm/lcd.c **** 	if (!(mode == GPIO_MODE_OUTPUT_PP || mode == GPIO_MODE_INPUT)) return;
  70              		.loc 1 700 2 view .LVU8
  71              		.loc 1 700 5 is_stmt 0 view .LVU9
  72 0000 0128     		cmp	r0, #1
  73 0002 00D9     		bls	.L12
  74 0004 7047     		bx	lr
  75              	.L12:
 679:Drivers/display_ILI-93xx_sm/lcd.c **** 
  76              		.loc 1 679 31 view .LVU10
  77 0006 2DE9F041 		push	{r4, r5, r6, r7, r8, lr}
  78              	.LCFI0:
  79              		.cfi_def_cfa_offset 24
  80              		.cfi_offset 4, -24
  81              		.cfi_offset 5, -20
  82              		.cfi_offset 6, -16
  83              		.cfi_offset 7, -12
  84              		.cfi_offset 8, -8
  85              		.cfi_offset 14, -4
  86 000a 88B0     		sub	sp, sp, #32
  87              	.LCFI1:
  88              		.cfi_def_cfa_offset 56
  89 000c 0646     		mov	r6, r0
 701:Drivers/display_ILI-93xx_sm/lcd.c **** 
 702:Drivers/display_ILI-93xx_sm/lcd.c **** 	GPIO_InitTypeDef GPIO_InitStruct;
  90              		.loc 1 702 2 is_stmt 1 view .LVU11
 703:Drivers/display_ILI-93xx_sm/lcd.c **** 
 704:Drivers/display_ILI-93xx_sm/lcd.c **** 	#ifdef STM32F4xx
 705:Drivers/display_ILI-93xx_sm/lcd.c **** 		/* GPIO Ports Clock Enable */
 706:Drivers/display_ILI-93xx_sm/lcd.c **** 		__GPIOA_CLK_ENABLE();
 707:Drivers/display_ILI-93xx_sm/lcd.c **** 		__GPIOB_CLK_ENABLE();
 708:Drivers/display_ILI-93xx_sm/lcd.c **** 		__GPIOC_CLK_ENABLE();
 709:Drivers/display_ILI-93xx_sm/lcd.c **** 
 710:Drivers/display_ILI-93xx_sm/lcd.c **** 		/*Configure GPIO data pins : PA8 PA9 PA10 */
ARM GAS  /tmp/cc47Teva.s 			page 15


 711:Drivers/display_ILI-93xx_sm/lcd.c **** 		GPIO_InitStruct.Pin = GPIO_PIN_8 | GPIO_PIN_9 | GPIO_PIN_10;
 712:Drivers/display_ILI-93xx_sm/lcd.c **** 		GPIO_InitStruct.Mode = mode;
 713:Drivers/display_ILI-93xx_sm/lcd.c **** 		GPIO_InitStruct.Pull = GPIO_NOPULL;
 714:Drivers/display_ILI-93xx_sm/lcd.c **** 		GPIO_InitStruct.Speed = GPIO_SPEED_LOW;
 715:Drivers/display_ILI-93xx_sm/lcd.c **** 		HAL_GPIO_Init(GPIOA, &GPIO_InitStruct);
 716:Drivers/display_ILI-93xx_sm/lcd.c **** 
 717:Drivers/display_ILI-93xx_sm/lcd.c **** 		/*Configure GPIO data pins : PB3 PB4 PB5 PB10 */
 718:Drivers/display_ILI-93xx_sm/lcd.c **** 		GPIO_InitStruct.Pin = GPIO_PIN_3 | GPIO_PIN_4 | GPIO_PIN_5 | GPIO_PIN_10;
 719:Drivers/display_ILI-93xx_sm/lcd.c **** 		GPIO_InitStruct.Mode = mode;
 720:Drivers/display_ILI-93xx_sm/lcd.c **** 		GPIO_InitStruct.Pull = GPIO_NOPULL;
 721:Drivers/display_ILI-93xx_sm/lcd.c **** 		GPIO_InitStruct.Speed = GPIO_SPEED_LOW;
 722:Drivers/display_ILI-93xx_sm/lcd.c **** 		HAL_GPIO_Init(GPIOB, &GPIO_InitStruct);
 723:Drivers/display_ILI-93xx_sm/lcd.c **** 
 724:Drivers/display_ILI-93xx_sm/lcd.c **** 		#ifdef NEW_BIT1
 725:Drivers/display_ILI-93xx_sm/lcd.c **** 			/*Configure GPIO data pins : PA7 */
 726:Drivers/display_ILI-93xx_sm/lcd.c **** 			GPIO_InitStruct.Pin = GPIO_PIN_7;
 727:Drivers/display_ILI-93xx_sm/lcd.c **** 			GPIO_InitStruct.Mode = mode;
 728:Drivers/display_ILI-93xx_sm/lcd.c **** 			GPIO_InitStruct.Pull = GPIO_NOPULL;
 729:Drivers/display_ILI-93xx_sm/lcd.c **** 			GPIO_InitStruct.Speed = GPIO_SPEED_LOW;
 730:Drivers/display_ILI-93xx_sm/lcd.c **** 			HAL_GPIO_Init(GPIOA, &GPIO_InitStruct);
 731:Drivers/display_ILI-93xx_sm/lcd.c **** 		#else
 732:Drivers/display_ILI-93xx_sm/lcd.c **** 			/*Configure GPIO data pins : PC7 */
 733:Drivers/display_ILI-93xx_sm/lcd.c **** 			GPIO_InitStruct.Pin = GPIO_PIN_7;
 734:Drivers/display_ILI-93xx_sm/lcd.c **** 			GPIO_InitStruct.Mode = mode;
 735:Drivers/display_ILI-93xx_sm/lcd.c **** 			GPIO_InitStruct.Pull = GPIO_NOPULL;
 736:Drivers/display_ILI-93xx_sm/lcd.c **** 			GPIO_InitStruct.Speed = GPIO_SPEED_LOW;
 737:Drivers/display_ILI-93xx_sm/lcd.c **** 			HAL_GPIO_Init(GPIOC, &GPIO_InitStruct);
 738:Drivers/display_ILI-93xx_sm/lcd.c **** 		#endif
 739:Drivers/display_ILI-93xx_sm/lcd.c **** 
 740:Drivers/display_ILI-93xx_sm/lcd.c **** 		/*Configure GPIO control pins : PA0 PA1 PA4 */
 741:Drivers/display_ILI-93xx_sm/lcd.c **** 		GPIO_InitStruct.Pin = GPIO_PIN_0 | GPIO_PIN_1 | GPIO_PIN_4;
 742:Drivers/display_ILI-93xx_sm/lcd.c **** 		GPIO_InitStruct.Mode = GPIO_MODE_OUTPUT_PP;
 743:Drivers/display_ILI-93xx_sm/lcd.c **** 		GPIO_InitStruct.Pull = GPIO_NOPULL;
 744:Drivers/display_ILI-93xx_sm/lcd.c **** 		GPIO_InitStruct.Speed = GPIO_SPEED_LOW;
 745:Drivers/display_ILI-93xx_sm/lcd.c **** 		HAL_GPIO_Init(GPIOA, &GPIO_InitStruct);
 746:Drivers/display_ILI-93xx_sm/lcd.c **** 
 747:Drivers/display_ILI-93xx_sm/lcd.c **** 		/*Configure GPIO control pins : PB0 */
 748:Drivers/display_ILI-93xx_sm/lcd.c **** 		GPIO_InitStruct.Pin = GPIO_PIN_0;
 749:Drivers/display_ILI-93xx_sm/lcd.c **** 		GPIO_InitStruct.Mode = GPIO_MODE_OUTPUT_PP;
 750:Drivers/display_ILI-93xx_sm/lcd.c **** 		GPIO_InitStruct.Pull = GPIO_NOPULL;
 751:Drivers/display_ILI-93xx_sm/lcd.c **** 		GPIO_InitStruct.Speed = GPIO_SPEED_LOW;
 752:Drivers/display_ILI-93xx_sm/lcd.c **** 		HAL_GPIO_Init(GPIOB, &GPIO_InitStruct);
 753:Drivers/display_ILI-93xx_sm/lcd.c **** 
 754:Drivers/display_ILI-93xx_sm/lcd.c **** 		#ifdef NEW_RST
 755:Drivers/display_ILI-93xx_sm/lcd.c **** 			/*Configure GPIO control pins : PB1 */
 756:Drivers/display_ILI-93xx_sm/lcd.c **** 			GPIO_InitStruct.Pin = GPIO_PIN_1;
 757:Drivers/display_ILI-93xx_sm/lcd.c **** 			GPIO_InitStruct.Mode = GPIO_MODE_OUTPUT_PP;
 758:Drivers/display_ILI-93xx_sm/lcd.c **** 			GPIO_InitStruct.Pull = GPIO_NOPULL;
 759:Drivers/display_ILI-93xx_sm/lcd.c **** 			GPIO_InitStruct.Speed = GPIO_SPEED_LOW;
 760:Drivers/display_ILI-93xx_sm/lcd.c **** 			HAL_GPIO_Init(GPIOB, &GPIO_InitStruct);
 761:Drivers/display_ILI-93xx_sm/lcd.c **** 		#else
 762:Drivers/display_ILI-93xx_sm/lcd.c **** 			/*Configure GPIO control pins : PC1 */
 763:Drivers/display_ILI-93xx_sm/lcd.c **** 			GPIO_InitStruct.Pin = GPIO_PIN_1;
 764:Drivers/display_ILI-93xx_sm/lcd.c **** 			GPIO_InitStruct.Mode = GPIO_MODE_OUTPUT_PP;
 765:Drivers/display_ILI-93xx_sm/lcd.c **** 			GPIO_InitStruct.Pull = GPIO_NOPULL;
 766:Drivers/display_ILI-93xx_sm/lcd.c **** 			GPIO_InitStruct.Speed = GPIO_SPEED_LOW;
 767:Drivers/display_ILI-93xx_sm/lcd.c **** 			HAL_GPIO_Init(GPIOC, &GPIO_InitStruct);
ARM GAS  /tmp/cc47Teva.s 			page 16


 768:Drivers/display_ILI-93xx_sm/lcd.c **** 		#endif
 769:Drivers/display_ILI-93xx_sm/lcd.c **** 	#endif
 770:Drivers/display_ILI-93xx_sm/lcd.c **** 
 771:Drivers/display_ILI-93xx_sm/lcd.c **** #ifdef STM32F1xx
 772:Drivers/display_ILI-93xx_sm/lcd.c **** 		/* GPIO Ports Clock Enable */
 773:Drivers/display_ILI-93xx_sm/lcd.c **** 		__HAL_RCC_GPIOA_CLK_ENABLE();
  91              		.loc 1 773 3 view .LVU12
  92              	.LBB33:
  93              		.loc 1 773 3 view .LVU13
  94              		.loc 1 773 3 view .LVU14
  95 000e 2D4B     		ldr	r3, .L13
  96 0010 9A69     		ldr	r2, [r3, #24]
  97 0012 42F00402 		orr	r2, r2, #4
  98 0016 9A61     		str	r2, [r3, #24]
  99              		.loc 1 773 3 view .LVU15
 100 0018 9A69     		ldr	r2, [r3, #24]
 101 001a 02F00402 		and	r2, r2, #4
 102 001e 0192     		str	r2, [sp, #4]
 103              		.loc 1 773 3 view .LVU16
 104 0020 019A     		ldr	r2, [sp, #4]
 105              	.LBE33:
 774:Drivers/display_ILI-93xx_sm/lcd.c **** 		__HAL_RCC_GPIOB_CLK_ENABLE();
 106              		.loc 1 774 3 view .LVU17
 107              	.LBB34:
 108              		.loc 1 774 3 view .LVU18
 109              		.loc 1 774 3 view .LVU19
 110 0022 9A69     		ldr	r2, [r3, #24]
 111 0024 42F00802 		orr	r2, r2, #8
 112 0028 9A61     		str	r2, [r3, #24]
 113              		.loc 1 774 3 view .LVU20
 114 002a 9A69     		ldr	r2, [r3, #24]
 115 002c 02F00802 		and	r2, r2, #8
 116 0030 0292     		str	r2, [sp, #8]
 117              		.loc 1 774 3 view .LVU21
 118 0032 029A     		ldr	r2, [sp, #8]
 119              	.LBE34:
 775:Drivers/display_ILI-93xx_sm/lcd.c **** 		__HAL_RCC_GPIOC_CLK_ENABLE();
 120              		.loc 1 775 3 view .LVU22
 121              	.LBB35:
 122              		.loc 1 775 3 view .LVU23
 123              		.loc 1 775 3 view .LVU24
 124 0034 9A69     		ldr	r2, [r3, #24]
 125 0036 42F01002 		orr	r2, r2, #16
 126 003a 9A61     		str	r2, [r3, #24]
 127              		.loc 1 775 3 view .LVU25
 128 003c 9B69     		ldr	r3, [r3, #24]
 129 003e 03F01003 		and	r3, r3, #16
 130 0042 0393     		str	r3, [sp, #12]
 131              		.loc 1 775 3 view .LVU26
 132 0044 039B     		ldr	r3, [sp, #12]
 133              	.LBE35:
 776:Drivers/display_ILI-93xx_sm/lcd.c **** 
 777:Drivers/display_ILI-93xx_sm/lcd.c **** 		/*Configure GPIO data pins : PA8 PA9 PA10 */
 778:Drivers/display_ILI-93xx_sm/lcd.c **** 		GPIO_InitStruct.Pin = GPIO_PIN_8 | GPIO_PIN_9 | GPIO_PIN_10;
 134              		.loc 1 778 3 view .LVU27
 135              		.loc 1 778 23 is_stmt 0 view .LVU28
 136 0046 4FF4E063 		mov	r3, #1792
ARM GAS  /tmp/cc47Teva.s 			page 17


 137 004a 0493     		str	r3, [sp, #16]
 779:Drivers/display_ILI-93xx_sm/lcd.c **** 		GPIO_InitStruct.Mode = mode;
 138              		.loc 1 779 3 is_stmt 1 view .LVU29
 139              		.loc 1 779 24 is_stmt 0 view .LVU30
 140 004c 0590     		str	r0, [sp, #20]
 780:Drivers/display_ILI-93xx_sm/lcd.c **** 		GPIO_InitStruct.Pull = GPIO_NOPULL;
 141              		.loc 1 780 3 is_stmt 1 view .LVU31
 142              		.loc 1 780 24 is_stmt 0 view .LVU32
 143 004e 0025     		movs	r5, #0
 144 0050 0695     		str	r5, [sp, #24]
 781:Drivers/display_ILI-93xx_sm/lcd.c **** 		GPIO_InitStruct.Speed = GPIO_SPEED_FREQ_LOW;
 145              		.loc 1 781 3 is_stmt 1 view .LVU33
 146              		.loc 1 781 25 is_stmt 0 view .LVU34
 147 0052 0224     		movs	r4, #2
 148 0054 0794     		str	r4, [sp, #28]
 782:Drivers/display_ILI-93xx_sm/lcd.c **** 		HAL_GPIO_Init(GPIOA, &GPIO_InitStruct);
 149              		.loc 1 782 3 is_stmt 1 view .LVU35
 150 0056 DFF87480 		ldr	r8, .L13+8
 151 005a 04A9     		add	r1, sp, #16
 152 005c 4046     		mov	r0, r8
 153              	.LVL3:
 154              		.loc 1 782 3 is_stmt 0 view .LVU36
 155 005e FFF7FEFF 		bl	HAL_GPIO_Init
 156              	.LVL4:
 783:Drivers/display_ILI-93xx_sm/lcd.c **** 
 784:Drivers/display_ILI-93xx_sm/lcd.c **** 		/*Configure GPIO data pins : PB3 PB4 PB5 PB10 */
 785:Drivers/display_ILI-93xx_sm/lcd.c **** 		GPIO_InitStruct.Pin = GPIO_PIN_3 | GPIO_PIN_4 | GPIO_PIN_5 | GPIO_PIN_10;
 157              		.loc 1 785 3 is_stmt 1 view .LVU37
 158              		.loc 1 785 23 is_stmt 0 view .LVU38
 159 0062 4FF48763 		mov	r3, #1080
 160 0066 0493     		str	r3, [sp, #16]
 786:Drivers/display_ILI-93xx_sm/lcd.c **** 		GPIO_InitStruct.Mode = mode;
 161              		.loc 1 786 3 is_stmt 1 view .LVU39
 162              		.loc 1 786 24 is_stmt 0 view .LVU40
 163 0068 0596     		str	r6, [sp, #20]
 787:Drivers/display_ILI-93xx_sm/lcd.c **** 		GPIO_InitStruct.Pull = GPIO_NOPULL;
 164              		.loc 1 787 3 is_stmt 1 view .LVU41
 165              		.loc 1 787 24 is_stmt 0 view .LVU42
 166 006a 0695     		str	r5, [sp, #24]
 788:Drivers/display_ILI-93xx_sm/lcd.c **** 		GPIO_InitStruct.Speed = GPIO_SPEED_FREQ_LOW;
 167              		.loc 1 788 3 is_stmt 1 view .LVU43
 168              		.loc 1 788 25 is_stmt 0 view .LVU44
 169 006c 0794     		str	r4, [sp, #28]
 789:Drivers/display_ILI-93xx_sm/lcd.c **** 		HAL_GPIO_Init(GPIOB, &GPIO_InitStruct);
 170              		.loc 1 789 3 is_stmt 1 view .LVU45
 171 006e 164F     		ldr	r7, .L13+4
 172 0070 04A9     		add	r1, sp, #16
 173 0072 3846     		mov	r0, r7
 174 0074 FFF7FEFF 		bl	HAL_GPIO_Init
 175              	.LVL5:
 790:Drivers/display_ILI-93xx_sm/lcd.c **** 
 791:Drivers/display_ILI-93xx_sm/lcd.c **** 		#ifdef NEW_BIT1
 792:Drivers/display_ILI-93xx_sm/lcd.c **** 			/*Configure GPIO data pins : PA7 */
 793:Drivers/display_ILI-93xx_sm/lcd.c **** 			GPIO_InitStruct.Pin = GPIO_PIN_7;
 176              		.loc 1 793 4 view .LVU46
 177              		.loc 1 793 24 is_stmt 0 view .LVU47
 178 0078 8023     		movs	r3, #128
ARM GAS  /tmp/cc47Teva.s 			page 18


 179 007a 0493     		str	r3, [sp, #16]
 794:Drivers/display_ILI-93xx_sm/lcd.c **** 			GPIO_InitStruct.Mode = mode;
 180              		.loc 1 794 4 is_stmt 1 view .LVU48
 181              		.loc 1 794 25 is_stmt 0 view .LVU49
 182 007c 0596     		str	r6, [sp, #20]
 795:Drivers/display_ILI-93xx_sm/lcd.c **** 			GPIO_InitStruct.Pull = GPIO_NOPULL;
 183              		.loc 1 795 4 is_stmt 1 view .LVU50
 184              		.loc 1 795 25 is_stmt 0 view .LVU51
 185 007e 0695     		str	r5, [sp, #24]
 796:Drivers/display_ILI-93xx_sm/lcd.c **** 			GPIO_InitStruct.Speed = GPIO_SPEED_FREQ_LOW;
 186              		.loc 1 796 4 is_stmt 1 view .LVU52
 187              		.loc 1 796 26 is_stmt 0 view .LVU53
 188 0080 0794     		str	r4, [sp, #28]
 797:Drivers/display_ILI-93xx_sm/lcd.c **** 			HAL_GPIO_Init(GPIOA, &GPIO_InitStruct);
 189              		.loc 1 797 4 is_stmt 1 view .LVU54
 190 0082 04A9     		add	r1, sp, #16
 191 0084 4046     		mov	r0, r8
 192 0086 FFF7FEFF 		bl	HAL_GPIO_Init
 193              	.LVL6:
 798:Drivers/display_ILI-93xx_sm/lcd.c **** 		#else
 799:Drivers/display_ILI-93xx_sm/lcd.c **** 			/*Configure GPIO data pins : PC7 */
 800:Drivers/display_ILI-93xx_sm/lcd.c **** 			GPIO_InitStruct.Pin = GPIO_PIN_7;
 801:Drivers/display_ILI-93xx_sm/lcd.c **** 			GPIO_InitStruct.Mode = mode;
 802:Drivers/display_ILI-93xx_sm/lcd.c **** 			GPIO_InitStruct.Pull = GPIO_NOPULL;
 803:Drivers/display_ILI-93xx_sm/lcd.c **** 			GPIO_InitStruct.Speed = GPIO_SPEED_LOW;
 804:Drivers/display_ILI-93xx_sm/lcd.c **** 			HAL_GPIO_Init(GPIOC, &GPIO_InitStruct);
 805:Drivers/display_ILI-93xx_sm/lcd.c **** 		#endif
 806:Drivers/display_ILI-93xx_sm/lcd.c **** 
 807:Drivers/display_ILI-93xx_sm/lcd.c **** 		/*Configure GPIO control pins : PA0 PA1 PA4 */
 808:Drivers/display_ILI-93xx_sm/lcd.c **** 		GPIO_InitStruct.Pin = GPIO_PIN_0 | GPIO_PIN_1 | GPIO_PIN_4;
 194              		.loc 1 808 3 view .LVU55
 195              		.loc 1 808 23 is_stmt 0 view .LVU56
 196 008a 1323     		movs	r3, #19
 197 008c 0493     		str	r3, [sp, #16]
 809:Drivers/display_ILI-93xx_sm/lcd.c **** 		GPIO_InitStruct.Mode = GPIO_MODE_OUTPUT_PP;
 198              		.loc 1 809 3 is_stmt 1 view .LVU57
 199              		.loc 1 809 24 is_stmt 0 view .LVU58
 200 008e 0126     		movs	r6, #1
 201              	.LVL7:
 202              		.loc 1 809 24 view .LVU59
 203 0090 0596     		str	r6, [sp, #20]
 810:Drivers/display_ILI-93xx_sm/lcd.c **** 		GPIO_InitStruct.Pull = GPIO_NOPULL;
 204              		.loc 1 810 3 is_stmt 1 view .LVU60
 205              		.loc 1 810 24 is_stmt 0 view .LVU61
 206 0092 0695     		str	r5, [sp, #24]
 811:Drivers/display_ILI-93xx_sm/lcd.c **** 		GPIO_InitStruct.Speed = GPIO_SPEED_FREQ_LOW;
 207              		.loc 1 811 3 is_stmt 1 view .LVU62
 208              		.loc 1 811 25 is_stmt 0 view .LVU63
 209 0094 0794     		str	r4, [sp, #28]
 812:Drivers/display_ILI-93xx_sm/lcd.c **** 		HAL_GPIO_Init(GPIOA, &GPIO_InitStruct);
 210              		.loc 1 812 3 is_stmt 1 view .LVU64
 211 0096 04A9     		add	r1, sp, #16
 212 0098 4046     		mov	r0, r8
 213 009a FFF7FEFF 		bl	HAL_GPIO_Init
 214              	.LVL8:
 813:Drivers/display_ILI-93xx_sm/lcd.c **** 
 814:Drivers/display_ILI-93xx_sm/lcd.c **** 		/*Configure GPIO control pins : PB0 */
ARM GAS  /tmp/cc47Teva.s 			page 19


 815:Drivers/display_ILI-93xx_sm/lcd.c **** 		GPIO_InitStruct.Pin = GPIO_PIN_0;
 215              		.loc 1 815 3 view .LVU65
 216              		.loc 1 815 23 is_stmt 0 view .LVU66
 217 009e 0496     		str	r6, [sp, #16]
 816:Drivers/display_ILI-93xx_sm/lcd.c **** 		GPIO_InitStruct.Mode = GPIO_MODE_OUTPUT_PP;
 218              		.loc 1 816 3 is_stmt 1 view .LVU67
 219              		.loc 1 816 24 is_stmt 0 view .LVU68
 220 00a0 0596     		str	r6, [sp, #20]
 817:Drivers/display_ILI-93xx_sm/lcd.c **** 		GPIO_InitStruct.Pull = GPIO_NOPULL;
 221              		.loc 1 817 3 is_stmt 1 view .LVU69
 222              		.loc 1 817 24 is_stmt 0 view .LVU70
 223 00a2 0695     		str	r5, [sp, #24]
 818:Drivers/display_ILI-93xx_sm/lcd.c **** 		GPIO_InitStruct.Speed = GPIO_SPEED_FREQ_LOW;
 224              		.loc 1 818 3 is_stmt 1 view .LVU71
 225              		.loc 1 818 25 is_stmt 0 view .LVU72
 226 00a4 0794     		str	r4, [sp, #28]
 819:Drivers/display_ILI-93xx_sm/lcd.c **** 		HAL_GPIO_Init(GPIOB, &GPIO_InitStruct);
 227              		.loc 1 819 3 is_stmt 1 view .LVU73
 228 00a6 04A9     		add	r1, sp, #16
 229 00a8 3846     		mov	r0, r7
 230 00aa FFF7FEFF 		bl	HAL_GPIO_Init
 231              	.LVL9:
 820:Drivers/display_ILI-93xx_sm/lcd.c **** 
 821:Drivers/display_ILI-93xx_sm/lcd.c **** 		#ifdef NEW_RST
 822:Drivers/display_ILI-93xx_sm/lcd.c **** 			/*Configure GPIO control pins : PB1 */
 823:Drivers/display_ILI-93xx_sm/lcd.c **** 			GPIO_InitStruct.Pin = GPIO_PIN_1;
 232              		.loc 1 823 4 view .LVU74
 233              		.loc 1 823 24 is_stmt 0 view .LVU75
 234 00ae 0494     		str	r4, [sp, #16]
 824:Drivers/display_ILI-93xx_sm/lcd.c **** 			GPIO_InitStruct.Mode = GPIO_MODE_OUTPUT_PP;
 235              		.loc 1 824 4 is_stmt 1 view .LVU76
 236              		.loc 1 824 25 is_stmt 0 view .LVU77
 237 00b0 0596     		str	r6, [sp, #20]
 825:Drivers/display_ILI-93xx_sm/lcd.c **** 			GPIO_InitStruct.Pull = GPIO_NOPULL;
 238              		.loc 1 825 4 is_stmt 1 view .LVU78
 239              		.loc 1 825 25 is_stmt 0 view .LVU79
 240 00b2 0695     		str	r5, [sp, #24]
 826:Drivers/display_ILI-93xx_sm/lcd.c **** 			GPIO_InitStruct.Speed = GPIO_SPEED_FREQ_LOW;
 241              		.loc 1 826 4 is_stmt 1 view .LVU80
 242              		.loc 1 826 26 is_stmt 0 view .LVU81
 243 00b4 0794     		str	r4, [sp, #28]
 827:Drivers/display_ILI-93xx_sm/lcd.c **** 			HAL_GPIO_Init(GPIOB, &GPIO_InitStruct);
 244              		.loc 1 827 4 is_stmt 1 view .LVU82
 245 00b6 04A9     		add	r1, sp, #16
 246 00b8 3846     		mov	r0, r7
 247 00ba FFF7FEFF 		bl	HAL_GPIO_Init
 248              	.LVL10:
 828:Drivers/display_ILI-93xx_sm/lcd.c **** 		#else
 829:Drivers/display_ILI-93xx_sm/lcd.c **** 			/*Configure GPIO control pins : PC1 */
 830:Drivers/display_ILI-93xx_sm/lcd.c **** 			GPIO_InitStruct.Pin = GPIO_PIN_1;
 831:Drivers/display_ILI-93xx_sm/lcd.c **** 			GPIO_InitStruct.Mode = GPIO_MODE_OUTPUT_PP;
 832:Drivers/display_ILI-93xx_sm/lcd.c **** 			GPIO_InitStruct.Pull = GPIO_NOPULL;
 833:Drivers/display_ILI-93xx_sm/lcd.c **** 			GPIO_InitStruct.Speed = GPIO_SPEED_LOW;
 834:Drivers/display_ILI-93xx_sm/lcd.c **** 			HAL_GPIO_Init(GPIOC, &GPIO_InitStruct);
 835:Drivers/display_ILI-93xx_sm/lcd.c **** 		#endif
 836:Drivers/display_ILI-93xx_sm/lcd.c **** 
 837:Drivers/display_ILI-93xx_sm/lcd.c **** 	#endif
ARM GAS  /tmp/cc47Teva.s 			page 20


 838:Drivers/display_ILI-93xx_sm/lcd.c **** }
 249              		.loc 1 838 1 is_stmt 0 view .LVU83
 250 00be 08B0     		add	sp, sp, #32
 251              	.LCFI2:
 252              		.cfi_def_cfa_offset 24
 253              		@ sp needed
 254 00c0 BDE8F081 		pop	{r4, r5, r6, r7, r8, pc}
 255              	.L14:
 256              		.align	2
 257              	.L13:
 258 00c4 00100240 		.word	1073876992
 259 00c8 000C0140 		.word	1073810432
 260 00cc 00080140 		.word	1073809408
 261              		.cfi_endproc
 262              	.LFE69:
 264              		.section	.text.LCD_Write8,"ax",%progbits
 265              		.align	1
 266              		.global	LCD_Write8
 267              		.syntax unified
 268              		.thumb
 269              		.thumb_func
 270              		.fpu softvfp
 272              	LCD_Write8:
 273              	.LVL11:
 274              	.LFB70:
 839:Drivers/display_ILI-93xx_sm/lcd.c **** 
 840:Drivers/display_ILI-93xx_sm/lcd.c **** /**
 841:Drivers/display_ILI-93xx_sm/lcd.c ****  * \brief Writes 8-Bit data
 842:Drivers/display_ILI-93xx_sm/lcd.c ****  *
 843:Drivers/display_ILI-93xx_sm/lcd.c ****  * \param data	8-Bit Data
 844:Drivers/display_ILI-93xx_sm/lcd.c ****  *
 845:Drivers/display_ILI-93xx_sm/lcd.c ****  * \return void
 846:Drivers/display_ILI-93xx_sm/lcd.c ****  */
 847:Drivers/display_ILI-93xx_sm/lcd.c **** inline void LCD_Write8(uint8_t data) {
 275              		.loc 1 847 38 is_stmt 1 view -0
 276              		.cfi_startproc
 277              		@ args = 0, pretend = 0, frame = 0
 278              		@ frame_needed = 0, uses_anonymous_args = 0
 279              		@ link register save eliminated.
 280              		.loc 1 847 38 is_stmt 0 view .LVU85
 281 0000 30B4     		push	{r4, r5}
 282              	.LCFI3:
 283              		.cfi_def_cfa_offset 8
 284              		.cfi_offset 4, -8
 285              		.cfi_offset 5, -4
 848:Drivers/display_ILI-93xx_sm/lcd.c **** 	// ------ PORT -----     --- Data ----
 849:Drivers/display_ILI-93xx_sm/lcd.c **** 	// GPIOA, GPIO_PIN_9  -> BIT 0 -> 0x01
 850:Drivers/display_ILI-93xx_sm/lcd.c **** 
 851:Drivers/display_ILI-93xx_sm/lcd.c **** 	// GPIOA, GPIO_PIN_10 -> BIT 2 -> 0x04
 852:Drivers/display_ILI-93xx_sm/lcd.c **** 	// GPIOB, GPIO_PIN_3  -> BIT 3 -> 0x08
 853:Drivers/display_ILI-93xx_sm/lcd.c **** 	// GPIOB, GPIO_PIN_5  -> BIT 4 -> 0x10
 854:Drivers/display_ILI-93xx_sm/lcd.c **** 	// GPIOB, GPIO_PIN_4  -> BIT 5 -> 0x20
 855:Drivers/display_ILI-93xx_sm/lcd.c **** 	// GPIOB, GPIO_PIN_10 -> BIT 6 -> 0x40
 856:Drivers/display_ILI-93xx_sm/lcd.c **** 	// GPIOA, GPIO_PIN_8  -> BIT 7 -> 0x80
 857:Drivers/display_ILI-93xx_sm/lcd.c **** 
 858:Drivers/display_ILI-93xx_sm/lcd.c **** #ifdef NEW_BIT1
 859:Drivers/display_ILI-93xx_sm/lcd.c **** 	// GPIOA, GPIO_PIN_7  -> BIT 1 -> 0x02
ARM GAS  /tmp/cc47Teva.s 			page 21


 860:Drivers/display_ILI-93xx_sm/lcd.c **** 	GPIOA->ODR = (GPIOA->ODR & 0xF87F) | ((data & 0x01) << 9) | ((data & 0x04) << 8) | ((data & 0x80) 
 286              		.loc 1 860 2 is_stmt 1 view .LVU86
 287              		.loc 1 860 21 is_stmt 0 view .LVU87
 288 0002 1F49     		ldr	r1, .L22
 289 0004 CA68     		ldr	r2, [r1, #12]
 290              		.loc 1 860 27 view .LVU88
 291 0006 22F4F062 		bic	r2, r2, #1920
 292 000a 1204     		lsls	r2, r2, #16
 293 000c 120C     		lsrs	r2, r2, #16
 294              		.loc 1 860 54 view .LVU89
 295 000e 4302     		lsls	r3, r0, #9
 296 0010 03F40073 		and	r3, r3, #512
 297              		.loc 1 860 37 view .LVU90
 298 0014 1A43     		orrs	r2, r2, r3
 299              		.loc 1 860 77 view .LVU91
 300 0016 0302     		lsls	r3, r0, #8
 301 0018 03F48063 		and	r3, r3, #1024
 302              		.loc 1 860 60 view .LVU92
 303 001c 1A43     		orrs	r2, r2, r3
 304              		.loc 1 860 100 view .LVU93
 305 001e 4400     		lsls	r4, r0, #1
 306 0020 04F48073 		and	r3, r4, #256
 307              		.loc 1 860 83 view .LVU94
 308 0024 1A43     		orrs	r2, r2, r3
 309              		.loc 1 860 123 view .LVU95
 310 0026 8301     		lsls	r3, r0, #6
 311 0028 03F08003 		and	r3, r3, #128
 312              		.loc 1 860 106 view .LVU96
 313 002c 1A43     		orrs	r2, r2, r3
 314              		.loc 1 860 13 view .LVU97
 315 002e CA60     		str	r2, [r1, #12]
 861:Drivers/display_ILI-93xx_sm/lcd.c **** 	GPIOB->ODR = (GPIOB->ODR & 0xFBC7) | (data & 0x08) | ((data & 0x10) << 1) | ((data & 0x20) >> 1) |
 316              		.loc 1 861 2 is_stmt 1 view .LVU98
 317              		.loc 1 861 21 is_stmt 0 view .LVU99
 318 0030 144D     		ldr	r5, .L22+4
 319 0032 EB68     		ldr	r3, [r5, #12]
 320              		.loc 1 861 27 view .LVU100
 321 0034 23F48763 		bic	r3, r3, #1080
 322 0038 1B04     		lsls	r3, r3, #16
 323 003a 1B0C     		lsrs	r3, r3, #16
 324              		.loc 1 861 45 view .LVU101
 325 003c 00F00802 		and	r2, r0, #8
 326              		.loc 1 861 37 view .LVU102
 327 0040 1343     		orrs	r3, r3, r2
 328              		.loc 1 861 70 view .LVU103
 329 0042 04F02004 		and	r4, r4, #32
 330              		.loc 1 861 53 view .LVU104
 331 0046 2343     		orrs	r3, r3, r4
 332              		.loc 1 861 93 view .LVU105
 333 0048 4210     		asrs	r2, r0, #1
 334 004a 02F01002 		and	r2, r2, #16
 335              		.loc 1 861 76 view .LVU106
 336 004e 1343     		orrs	r3, r3, r2
 337              		.loc 1 861 116 view .LVU107
 338 0050 0001     		lsls	r0, r0, #4
 339              	.LVL12:
 340              		.loc 1 861 116 view .LVU108
ARM GAS  /tmp/cc47Teva.s 			page 22


 341 0052 00F48060 		and	r0, r0, #1024
 342              		.loc 1 861 99 view .LVU109
 343 0056 0343     		orrs	r3, r3, r0
 344              		.loc 1 861 13 view .LVU110
 345 0058 EB60     		str	r3, [r5, #12]
 862:Drivers/display_ILI-93xx_sm/lcd.c **** #else
 863:Drivers/display_ILI-93xx_sm/lcd.c **** 	// GPIOC, GPIO_PIN_7  -> BIT 1 -> 0x02
 864:Drivers/display_ILI-93xx_sm/lcd.c **** 	GPIOA->ODR = (GPIOA->ODR & 0xF8FF) | ((data & 0x01) << 9) | ((data & 0x04) << 8) | ((data & 0x80) 
 865:Drivers/display_ILI-93xx_sm/lcd.c **** 	GPIOB->ODR = (GPIOB->ODR & 0xFBC7) | (data & 0x08) | ((data & 0x10) << 1) | ((data & 0x20) >> 1) |
 866:Drivers/display_ILI-93xx_sm/lcd.c **** 	GPIOC->ODR = (GPIOC->ODR & 0xFF7F) | ((data & 0x02) << 6);
 867:Drivers/display_ILI-93xx_sm/lcd.c **** #endif
 868:Drivers/display_ILI-93xx_sm/lcd.c **** 
 869:Drivers/display_ILI-93xx_sm/lcd.c **** 	LCD_WR_STROBE();
 346              		.loc 1 869 2 is_stmt 1 view .LVU111
 347              		.loc 1 869 2 view .LVU112
 348 005a 4FF40033 		mov	r3, #131072
 349 005e 0B61     		str	r3, [r1, #16]
 350              		.loc 1 869 2 view .LVU113
 351              	.LVL13:
 352              	.LBB40:
 353              	.LBI40:
 668:Drivers/display_ILI-93xx_sm/lcd.c **** 	for (; t; t--) __asm("nop");
 354              		.loc 1 668 13 view .LVU114
 355              	.LBB41:
 669:Drivers/display_ILI-93xx_sm/lcd.c **** }
 356              		.loc 1 669 2 view .LVU115
 357              	.LBE41:
 358              	.LBE40:
 359              		.loc 1 869 2 is_stmt 0 view .LVU116
 360 0060 0223     		movs	r3, #2
 361              	.LVL14:
 362              	.L16:
 363              	.LBB43:
 364              	.LBB42:
 669:Drivers/display_ILI-93xx_sm/lcd.c **** }
 365              		.loc 1 669 2 view .LVU117
 366 0062 13B1     		cbz	r3, .L21
 669:Drivers/display_ILI-93xx_sm/lcd.c **** }
 367              		.loc 1 669 17 is_stmt 1 view .LVU118
 368              		.syntax unified
 369              	@ 669 "Drivers/display_ILI-93xx_sm/lcd.c" 1
 370 0064 00BF     		nop
 371              	@ 0 "" 2
 669:Drivers/display_ILI-93xx_sm/lcd.c **** }
 372              		.loc 1 669 13 is_stmt 0 view .LVU119
 373              		.thumb
 374              		.syntax unified
 375 0066 013B     		subs	r3, r3, #1
 376              	.LVL15:
 669:Drivers/display_ILI-93xx_sm/lcd.c **** }
 377              		.loc 1 669 13 view .LVU120
 378 0068 FBE7     		b	.L16
 379              	.L21:
 380              	.LVL16:
 669:Drivers/display_ILI-93xx_sm/lcd.c **** }
 381              		.loc 1 669 13 view .LVU121
 382              	.LBE42:
ARM GAS  /tmp/cc47Teva.s 			page 23


 383              	.LBE43:
 384              		.loc 1 869 2 is_stmt 1 view .LVU122
 385 006a 0223     		movs	r3, #2
 386 006c 044A     		ldr	r2, .L22
 387 006e 1361     		str	r3, [r2, #16]
 388              		.loc 1 869 2 view .LVU123
 389              	.LVL17:
 390              	.LBB44:
 391              	.LBI44:
 668:Drivers/display_ILI-93xx_sm/lcd.c **** 	for (; t; t--) __asm("nop");
 392              		.loc 1 668 13 view .LVU124
 393 0070 01E0     		b	.L18
 394              	.LVL18:
 395              	.L19:
 396              	.LBB45:
 669:Drivers/display_ILI-93xx_sm/lcd.c **** }
 397              		.loc 1 669 17 view .LVU125
 398              		.syntax unified
 399              	@ 669 "Drivers/display_ILI-93xx_sm/lcd.c" 1
 400 0072 00BF     		nop
 401              	@ 0 "" 2
 669:Drivers/display_ILI-93xx_sm/lcd.c **** }
 402              		.loc 1 669 13 is_stmt 0 view .LVU126
 403              		.thumb
 404              		.syntax unified
 405 0074 013B     		subs	r3, r3, #1
 406              	.LVL19:
 407              	.L18:
 669:Drivers/display_ILI-93xx_sm/lcd.c **** }
 408              		.loc 1 669 2 view .LVU127
 409 0076 002B     		cmp	r3, #0
 410 0078 FBD1     		bne	.L19
 411              	.LBE45:
 412              	.LBE44:
 870:Drivers/display_ILI-93xx_sm/lcd.c **** }
 413              		.loc 1 870 1 view .LVU128
 414 007a 30BC     		pop	{r4, r5}
 415              	.LCFI4:
 416              		.cfi_restore 5
 417              		.cfi_restore 4
 418              		.cfi_def_cfa_offset 0
 419 007c 7047     		bx	lr
 420              	.L23:
 421 007e 00BF     		.align	2
 422              	.L22:
 423 0080 00080140 		.word	1073809408
 424 0084 000C0140 		.word	1073810432
 425              		.cfi_endproc
 426              	.LFE70:
 428              		.section	.text.LCD_Read8,"ax",%progbits
 429              		.align	1
 430              		.global	LCD_Read8
 431              		.syntax unified
 432              		.thumb
 433              		.thumb_func
 434              		.fpu softvfp
 436              	LCD_Read8:
ARM GAS  /tmp/cc47Teva.s 			page 24


 437              	.LFB71:
 871:Drivers/display_ILI-93xx_sm/lcd.c **** 
 872:Drivers/display_ILI-93xx_sm/lcd.c **** /**
 873:Drivers/display_ILI-93xx_sm/lcd.c ****  * \brief Reads 8-Bit data
 874:Drivers/display_ILI-93xx_sm/lcd.c ****  *
 875:Drivers/display_ILI-93xx_sm/lcd.c ****  * \param data	8-Bit Data
 876:Drivers/display_ILI-93xx_sm/lcd.c ****  *
 877:Drivers/display_ILI-93xx_sm/lcd.c ****  * \return void
 878:Drivers/display_ILI-93xx_sm/lcd.c ****  */
 879:Drivers/display_ILI-93xx_sm/lcd.c **** inline uint8_t LCD_Read8(void) {
 438              		.loc 1 879 32 is_stmt 1 view -0
 439              		.cfi_startproc
 440              		@ args = 0, pretend = 0, frame = 0
 441              		@ frame_needed = 0, uses_anonymous_args = 0
 442              		@ link register save eliminated.
 880:Drivers/display_ILI-93xx_sm/lcd.c **** 	// - Data - ----------- PORT -----------
 881:Drivers/display_ILI-93xx_sm/lcd.c **** 	// BIT 0 -> GPIOA, GPIO_PIN_9  -> 0x0200
 882:Drivers/display_ILI-93xx_sm/lcd.c **** 
 883:Drivers/display_ILI-93xx_sm/lcd.c **** 	// BIT 2 -> GPIOA, GPIO_PIN_10 -> 0x0400
 884:Drivers/display_ILI-93xx_sm/lcd.c **** 	// BIT 3 -> GPIOB, GPIO_PIN_3  -> 0x0008
 885:Drivers/display_ILI-93xx_sm/lcd.c **** 	// BIT 4 -> GPIOB, GPIO_PIN_5  -> 0x0020
 886:Drivers/display_ILI-93xx_sm/lcd.c **** 	// BIT 5 -> GPIOB, GPIO_PIN_4  -> 0x0010
 887:Drivers/display_ILI-93xx_sm/lcd.c **** 	// BIT 6 -> GPIOB, GPIO_PIN_10 -> 0x0400
 888:Drivers/display_ILI-93xx_sm/lcd.c **** 	// BIT 7 -> GPIOA, GPIO_PIN_8  -> 0x0100
 889:Drivers/display_ILI-93xx_sm/lcd.c **** 	uint8_t data;
 443              		.loc 1 889 2 view .LVU130
 890:Drivers/display_ILI-93xx_sm/lcd.c **** 	LCD_RD_STROBE();
 444              		.loc 1 890 2 view .LVU131
 445              		.loc 1 890 2 view .LVU132
 446 0000 1E4B     		ldr	r3, .L30
 447 0002 4FF48032 		mov	r2, #65536
 448 0006 1A61     		str	r2, [r3, #16]
 449              		.loc 1 890 2 view .LVU133
 450              	.LVL20:
 451              	.LBB50:
 452              	.LBI50:
 668:Drivers/display_ILI-93xx_sm/lcd.c **** 	for (; t; t--) __asm("nop");
 453              		.loc 1 668 13 view .LVU134
 454              	.LBB51:
 669:Drivers/display_ILI-93xx_sm/lcd.c **** }
 455              		.loc 1 669 2 view .LVU135
 456              	.LBE51:
 457              	.LBE50:
 458              		.loc 1 890 2 is_stmt 0 view .LVU136
 459 0008 0223     		movs	r3, #2
 460              	.LVL21:
 461              	.L25:
 462              	.LBB53:
 463              	.LBB52:
 669:Drivers/display_ILI-93xx_sm/lcd.c **** }
 464              		.loc 1 669 2 view .LVU137
 465 000a 13B1     		cbz	r3, .L29
 669:Drivers/display_ILI-93xx_sm/lcd.c **** }
 466              		.loc 1 669 17 is_stmt 1 view .LVU138
 467              		.syntax unified
 468              	@ 669 "Drivers/display_ILI-93xx_sm/lcd.c" 1
 469 000c 00BF     		nop
ARM GAS  /tmp/cc47Teva.s 			page 25


 470              	@ 0 "" 2
 669:Drivers/display_ILI-93xx_sm/lcd.c **** }
 471              		.loc 1 669 13 is_stmt 0 view .LVU139
 472              		.thumb
 473              		.syntax unified
 474 000e 013B     		subs	r3, r3, #1
 475              	.LVL22:
 669:Drivers/display_ILI-93xx_sm/lcd.c **** }
 476              		.loc 1 669 13 view .LVU140
 477 0010 FBE7     		b	.L25
 478              	.L29:
 479              	.LVL23:
 669:Drivers/display_ILI-93xx_sm/lcd.c **** }
 480              		.loc 1 669 13 view .LVU141
 481              	.LBE52:
 482              	.LBE53:
 483              		.loc 1 890 2 is_stmt 1 view .LVU142
 484 0012 03F18043 		add	r3, r3, #1073741824
 485 0016 03F58433 		add	r3, r3, #67584
 486 001a 0122     		movs	r2, #1
 487 001c 1A61     		str	r2, [r3, #16]
 488              		.loc 1 890 2 view .LVU143
 489              	.LVL24:
 490              	.LBB54:
 491              	.LBI54:
 668:Drivers/display_ILI-93xx_sm/lcd.c **** 	for (; t; t--) __asm("nop");
 492              		.loc 1 668 13 view .LVU144
 493              	.LBE54:
 494              		.loc 1 890 2 is_stmt 0 view .LVU145
 495 001e 0223     		movs	r3, #2
 496 0020 01E0     		b	.L27
 497              	.LVL25:
 498              	.L28:
 499              	.LBB56:
 500              	.LBB55:
 669:Drivers/display_ILI-93xx_sm/lcd.c **** }
 501              		.loc 1 669 17 is_stmt 1 view .LVU146
 502              		.syntax unified
 503              	@ 669 "Drivers/display_ILI-93xx_sm/lcd.c" 1
 504 0022 00BF     		nop
 505              	@ 0 "" 2
 669:Drivers/display_ILI-93xx_sm/lcd.c **** }
 506              		.loc 1 669 13 is_stmt 0 view .LVU147
 507              		.thumb
 508              		.syntax unified
 509 0024 013B     		subs	r3, r3, #1
 510              	.LVL26:
 511              	.L27:
 669:Drivers/display_ILI-93xx_sm/lcd.c **** }
 512              		.loc 1 669 2 view .LVU148
 513 0026 002B     		cmp	r3, #0
 514 0028 FBD1     		bne	.L28
 515              	.LVL27:
 669:Drivers/display_ILI-93xx_sm/lcd.c **** }
 516              		.loc 1 669 2 view .LVU149
 517              	.LBE55:
 518              	.LBE56:
ARM GAS  /tmp/cc47Teva.s 			page 26


 891:Drivers/display_ILI-93xx_sm/lcd.c **** 
 892:Drivers/display_ILI-93xx_sm/lcd.c **** #ifdef NEW_BIT1
 893:Drivers/display_ILI-93xx_sm/lcd.c **** 	// BIT 1 -> GPIOA, GPIO_PIN_7  -> 0x0080
 894:Drivers/display_ILI-93xx_sm/lcd.c **** 	data = ((GPIOA->IDR & 0x0200) >> 9) | ((GPIOA->IDR & 0x0400) >> 8) | ((GPIOA->IDR & 0x0100) >> 1) 
 519              		.loc 1 894 2 is_stmt 1 view .LVU150
 520              		.loc 1 894 16 is_stmt 0 view .LVU151
 521 002a 144A     		ldr	r2, .L30
 522 002c 9368     		ldr	r3, [r2, #8]
 523              		.loc 1 894 32 view .LVU152
 524 002e C3F34023 		ubfx	r3, r3, #9, #1
 525              		.loc 1 894 47 view .LVU153
 526 0032 9168     		ldr	r1, [r2, #8]
 527              		.loc 1 894 63 view .LVU154
 528 0034 090A     		lsrs	r1, r1, #8
 529 0036 01F00401 		and	r1, r1, #4
 530              		.loc 1 894 38 view .LVU155
 531 003a 0B43     		orrs	r3, r3, r1
 532              		.loc 1 894 78 view .LVU156
 533 003c 9168     		ldr	r1, [r2, #8]
 534              		.loc 1 894 94 view .LVU157
 535 003e 4908     		lsrs	r1, r1, #1
 536 0040 01F08001 		and	r1, r1, #128
 537              		.loc 1 894 69 view .LVU158
 538 0044 0B43     		orrs	r3, r3, r1
 539              		.loc 1 894 108 view .LVU159
 540 0046 0E49     		ldr	r1, .L30+4
 541 0048 8868     		ldr	r0, [r1, #8]
 542              		.loc 1 894 114 view .LVU160
 543 004a 00F00800 		and	r0, r0, #8
 544              		.loc 1 894 100 view .LVU161
 545 004e 0343     		orrs	r3, r3, r0
 895:Drivers/display_ILI-93xx_sm/lcd.c **** 			| ((GPIOB->IDR & 0x0020) >> 1) | ((GPIOB->IDR & 0x0010) << 1) | ((GPIOB->IDR & 0x0400) >> 4)
 546              		.loc 1 895 13 view .LVU162
 547 0050 8868     		ldr	r0, [r1, #8]
 548              		.loc 1 895 29 view .LVU163
 549 0052 4008     		lsrs	r0, r0, #1
 550 0054 00F01000 		and	r0, r0, #16
 551              		.loc 1 895 4 view .LVU164
 552 0058 0343     		orrs	r3, r3, r0
 553              		.loc 1 895 44 view .LVU165
 554 005a 8868     		ldr	r0, [r1, #8]
 555              		.loc 1 895 60 view .LVU166
 556 005c 4000     		lsls	r0, r0, #1
 557 005e 00F02000 		and	r0, r0, #32
 558              		.loc 1 895 35 view .LVU167
 559 0062 0343     		orrs	r3, r3, r0
 560              		.loc 1 895 75 view .LVU168
 561 0064 8868     		ldr	r0, [r1, #8]
 562              		.loc 1 895 91 view .LVU169
 563 0066 0009     		lsrs	r0, r0, #4
 564 0068 00F04000 		and	r0, r0, #64
 565              		.loc 1 895 66 view .LVU170
 566 006c 0343     		orrs	r3, r3, r0
 896:Drivers/display_ILI-93xx_sm/lcd.c **** 			| ((GPIOA->IDR & 0x0080) >> 6);
 567              		.loc 1 896 13 view .LVU171
 568 006e 9068     		ldr	r0, [r2, #8]
 569              		.loc 1 896 29 view .LVU172
ARM GAS  /tmp/cc47Teva.s 			page 27


 570 0070 8009     		lsrs	r0, r0, #6
 571 0072 00F00200 		and	r0, r0, #2
 572              	.LVL28:
 897:Drivers/display_ILI-93xx_sm/lcd.c **** #else
 898:Drivers/display_ILI-93xx_sm/lcd.c **** 	// BIT 1 -> GPIOC, GPIO_PIN_7  -> 0x0080
 899:Drivers/display_ILI-93xx_sm/lcd.c **** 	data = ((GPIOA->IDR & 0x0200) >> 9) | ((GPIOA->IDR & 0x0400) >> 8) | ((GPIOA->IDR & 0x0100) >> 1) 
 900:Drivers/display_ILI-93xx_sm/lcd.c **** 			| ((GPIOB->IDR & 0x0020) >> 1) | ((GPIOB->IDR & 0x0010) << 1) | ((GPIOB->IDR & 0x0400) >> 4)
 901:Drivers/display_ILI-93xx_sm/lcd.c **** 			| ((GPIOC->IDR & 0x0080) >> 6);
 902:Drivers/display_ILI-93xx_sm/lcd.c **** #endif
 903:Drivers/display_ILI-93xx_sm/lcd.c **** 
 904:Drivers/display_ILI-93xx_sm/lcd.c **** 	return data;
 573              		.loc 1 904 2 is_stmt 1 view .LVU173
 905:Drivers/display_ILI-93xx_sm/lcd.c **** }
 574              		.loc 1 905 1 is_stmt 0 view .LVU174
 575 0076 1843     		orrs	r0, r0, r3
 576              	.LVL29:
 577              		.loc 1 905 1 view .LVU175
 578 0078 7047     		bx	lr
 579              	.L31:
 580 007a 00BF     		.align	2
 581              	.L30:
 582 007c 00080140 		.word	1073809408
 583 0080 000C0140 		.word	1073810432
 584              		.cfi_endproc
 585              	.LFE71:
 587              		.section	.text.LCD_Write8Register8,"ax",%progbits
 588              		.align	1
 589              		.global	LCD_Write8Register8
 590              		.syntax unified
 591              		.thumb
 592              		.thumb_func
 593              		.fpu softvfp
 595              	LCD_Write8Register8:
 596              	.LVL30:
 597              	.LFB72:
 906:Drivers/display_ILI-93xx_sm/lcd.c **** 
 907:Drivers/display_ILI-93xx_sm/lcd.c **** /**
 908:Drivers/display_ILI-93xx_sm/lcd.c ****  * \brief Writes 8-Bit data to register (8-bit address)
 909:Drivers/display_ILI-93xx_sm/lcd.c ****  *
 910:Drivers/display_ILI-93xx_sm/lcd.c ****  * \param a		Register
 911:Drivers/display_ILI-93xx_sm/lcd.c ****  * \param d		Data
 912:Drivers/display_ILI-93xx_sm/lcd.c ****  *
 913:Drivers/display_ILI-93xx_sm/lcd.c ****  * \return void
 914:Drivers/display_ILI-93xx_sm/lcd.c ****  */
 915:Drivers/display_ILI-93xx_sm/lcd.c **** inline void LCD_Write8Register8(uint8_t a, uint8_t d) {
 598              		.loc 1 915 55 is_stmt 1 view -0
 599              		.cfi_startproc
 600              		@ args = 0, pretend = 0, frame = 0
 601              		@ frame_needed = 0, uses_anonymous_args = 0
 602              		@ link register save eliminated.
 603              		.loc 1 915 55 is_stmt 0 view .LVU177
 604 0000 70B4     		push	{r4, r5, r6}
 605              	.LCFI5:
 606              		.cfi_def_cfa_offset 12
 607              		.cfi_offset 4, -12
 608              		.cfi_offset 5, -8
 609              		.cfi_offset 6, -4
ARM GAS  /tmp/cc47Teva.s 			page 28


 916:Drivers/display_ILI-93xx_sm/lcd.c **** 	LCD_CD_COMMAND();
 610              		.loc 1 916 2 is_stmt 1 view .LVU178
 611 0002 3E4C     		ldr	r4, .L46
 612 0004 4FF48013 		mov	r3, #1048576
 613 0008 2361     		str	r3, [r4, #16]
 917:Drivers/display_ILI-93xx_sm/lcd.c **** 	LCD_Write8(a);
 614              		.loc 1 917 2 view .LVU179
 615              	.LVL31:
 616              	.LBB69:
 617              	.LBI69:
 847:Drivers/display_ILI-93xx_sm/lcd.c **** 	// ------ PORT -----     --- Data ----
 618              		.loc 1 847 13 view .LVU180
 619              	.LBB70:
 860:Drivers/display_ILI-93xx_sm/lcd.c **** 	GPIOB->ODR = (GPIOB->ODR & 0xFBC7) | (data & 0x08) | ((data & 0x10) << 1) | ((data & 0x20) >> 1) |
 620              		.loc 1 860 2 view .LVU181
 860:Drivers/display_ILI-93xx_sm/lcd.c **** 	GPIOB->ODR = (GPIOB->ODR & 0xFBC7) | (data & 0x08) | ((data & 0x10) << 1) | ((data & 0x20) >> 1) |
 621              		.loc 1 860 21 is_stmt 0 view .LVU182
 622 000a E268     		ldr	r2, [r4, #12]
 860:Drivers/display_ILI-93xx_sm/lcd.c **** 	GPIOB->ODR = (GPIOB->ODR & 0xFBC7) | (data & 0x08) | ((data & 0x10) << 1) | ((data & 0x20) >> 1) |
 623              		.loc 1 860 27 view .LVU183
 624 000c 22F4F062 		bic	r2, r2, #1920
 625 0010 1204     		lsls	r2, r2, #16
 626 0012 120C     		lsrs	r2, r2, #16
 860:Drivers/display_ILI-93xx_sm/lcd.c **** 	GPIOB->ODR = (GPIOB->ODR & 0xFBC7) | (data & 0x08) | ((data & 0x10) << 1) | ((data & 0x20) >> 1) |
 627              		.loc 1 860 54 view .LVU184
 628 0014 4302     		lsls	r3, r0, #9
 629 0016 03F40073 		and	r3, r3, #512
 860:Drivers/display_ILI-93xx_sm/lcd.c **** 	GPIOB->ODR = (GPIOB->ODR & 0xFBC7) | (data & 0x08) | ((data & 0x10) << 1) | ((data & 0x20) >> 1) |
 630              		.loc 1 860 37 view .LVU185
 631 001a 1A43     		orrs	r2, r2, r3
 860:Drivers/display_ILI-93xx_sm/lcd.c **** 	GPIOB->ODR = (GPIOB->ODR & 0xFBC7) | (data & 0x08) | ((data & 0x10) << 1) | ((data & 0x20) >> 1) |
 632              		.loc 1 860 77 view .LVU186
 633 001c 0302     		lsls	r3, r0, #8
 634 001e 03F48063 		and	r3, r3, #1024
 860:Drivers/display_ILI-93xx_sm/lcd.c **** 	GPIOB->ODR = (GPIOB->ODR & 0xFBC7) | (data & 0x08) | ((data & 0x10) << 1) | ((data & 0x20) >> 1) |
 635              		.loc 1 860 60 view .LVU187
 636 0022 1A43     		orrs	r2, r2, r3
 860:Drivers/display_ILI-93xx_sm/lcd.c **** 	GPIOB->ODR = (GPIOB->ODR & 0xFBC7) | (data & 0x08) | ((data & 0x10) << 1) | ((data & 0x20) >> 1) |
 637              		.loc 1 860 100 view .LVU188
 638 0024 4500     		lsls	r5, r0, #1
 639 0026 05F48073 		and	r3, r5, #256
 860:Drivers/display_ILI-93xx_sm/lcd.c **** 	GPIOB->ODR = (GPIOB->ODR & 0xFBC7) | (data & 0x08) | ((data & 0x10) << 1) | ((data & 0x20) >> 1) |
 640              		.loc 1 860 83 view .LVU189
 641 002a 1A43     		orrs	r2, r2, r3
 860:Drivers/display_ILI-93xx_sm/lcd.c **** 	GPIOB->ODR = (GPIOB->ODR & 0xFBC7) | (data & 0x08) | ((data & 0x10) << 1) | ((data & 0x20) >> 1) |
 642              		.loc 1 860 123 view .LVU190
 643 002c 8301     		lsls	r3, r0, #6
 644 002e 03F08003 		and	r3, r3, #128
 860:Drivers/display_ILI-93xx_sm/lcd.c **** 	GPIOB->ODR = (GPIOB->ODR & 0xFBC7) | (data & 0x08) | ((data & 0x10) << 1) | ((data & 0x20) >> 1) |
 645              		.loc 1 860 106 view .LVU191
 646 0032 1A43     		orrs	r2, r2, r3
 860:Drivers/display_ILI-93xx_sm/lcd.c **** 	GPIOB->ODR = (GPIOB->ODR & 0xFBC7) | (data & 0x08) | ((data & 0x10) << 1) | ((data & 0x20) >> 1) |
 647              		.loc 1 860 13 view .LVU192
 648 0034 E260     		str	r2, [r4, #12]
 861:Drivers/display_ILI-93xx_sm/lcd.c **** #else
 649              		.loc 1 861 2 is_stmt 1 view .LVU193
 861:Drivers/display_ILI-93xx_sm/lcd.c **** #else
ARM GAS  /tmp/cc47Teva.s 			page 29


 650              		.loc 1 861 21 is_stmt 0 view .LVU194
 651 0036 324A     		ldr	r2, .L46+4
 652 0038 D368     		ldr	r3, [r2, #12]
 861:Drivers/display_ILI-93xx_sm/lcd.c **** #else
 653              		.loc 1 861 27 view .LVU195
 654 003a 23F48763 		bic	r3, r3, #1080
 655 003e 1B04     		lsls	r3, r3, #16
 656 0040 1B0C     		lsrs	r3, r3, #16
 861:Drivers/display_ILI-93xx_sm/lcd.c **** #else
 657              		.loc 1 861 45 view .LVU196
 658 0042 00F00806 		and	r6, r0, #8
 861:Drivers/display_ILI-93xx_sm/lcd.c **** #else
 659              		.loc 1 861 37 view .LVU197
 660 0046 3343     		orrs	r3, r3, r6
 861:Drivers/display_ILI-93xx_sm/lcd.c **** #else
 661              		.loc 1 861 70 view .LVU198
 662 0048 05F02005 		and	r5, r5, #32
 861:Drivers/display_ILI-93xx_sm/lcd.c **** #else
 663              		.loc 1 861 53 view .LVU199
 664 004c 2B43     		orrs	r3, r3, r5
 861:Drivers/display_ILI-93xx_sm/lcd.c **** #else
 665              		.loc 1 861 93 view .LVU200
 666 004e 4510     		asrs	r5, r0, #1
 667 0050 05F01005 		and	r5, r5, #16
 861:Drivers/display_ILI-93xx_sm/lcd.c **** #else
 668              		.loc 1 861 76 view .LVU201
 669 0054 2B43     		orrs	r3, r3, r5
 861:Drivers/display_ILI-93xx_sm/lcd.c **** #else
 670              		.loc 1 861 116 view .LVU202
 671 0056 0001     		lsls	r0, r0, #4
 672              	.LVL32:
 861:Drivers/display_ILI-93xx_sm/lcd.c **** #else
 673              		.loc 1 861 116 view .LVU203
 674 0058 00F48060 		and	r0, r0, #1024
 861:Drivers/display_ILI-93xx_sm/lcd.c **** #else
 675              		.loc 1 861 99 view .LVU204
 676 005c 0343     		orrs	r3, r3, r0
 861:Drivers/display_ILI-93xx_sm/lcd.c **** #else
 677              		.loc 1 861 13 view .LVU205
 678 005e D360     		str	r3, [r2, #12]
 869:Drivers/display_ILI-93xx_sm/lcd.c **** }
 679              		.loc 1 869 2 is_stmt 1 view .LVU206
 869:Drivers/display_ILI-93xx_sm/lcd.c **** }
 680              		.loc 1 869 2 view .LVU207
 681 0060 4FF40033 		mov	r3, #131072
 682 0064 2361     		str	r3, [r4, #16]
 869:Drivers/display_ILI-93xx_sm/lcd.c **** }
 683              		.loc 1 869 2 view .LVU208
 684              	.LVL33:
 685              	.LBB71:
 686              	.LBI71:
 668:Drivers/display_ILI-93xx_sm/lcd.c **** 	for (; t; t--) __asm("nop");
 687              		.loc 1 668 13 view .LVU209
 688              	.LBB72:
 669:Drivers/display_ILI-93xx_sm/lcd.c **** }
 689              		.loc 1 669 2 view .LVU210
 690              	.LBE72:
ARM GAS  /tmp/cc47Teva.s 			page 30


 691              	.LBE71:
 869:Drivers/display_ILI-93xx_sm/lcd.c **** }
 692              		.loc 1 869 2 is_stmt 0 view .LVU211
 693 0066 0223     		movs	r3, #2
 694              	.LVL34:
 695              	.L33:
 696              	.LBB74:
 697              	.LBB73:
 669:Drivers/display_ILI-93xx_sm/lcd.c **** }
 698              		.loc 1 669 2 view .LVU212
 699 0068 13B1     		cbz	r3, .L42
 669:Drivers/display_ILI-93xx_sm/lcd.c **** }
 700              		.loc 1 669 17 is_stmt 1 view .LVU213
 701              		.syntax unified
 702              	@ 669 "Drivers/display_ILI-93xx_sm/lcd.c" 1
 703 006a 00BF     		nop
 704              	@ 0 "" 2
 669:Drivers/display_ILI-93xx_sm/lcd.c **** }
 705              		.loc 1 669 13 is_stmt 0 view .LVU214
 706              		.thumb
 707              		.syntax unified
 708 006c 013B     		subs	r3, r3, #1
 709              	.LVL35:
 669:Drivers/display_ILI-93xx_sm/lcd.c **** }
 710              		.loc 1 669 13 view .LVU215
 711 006e FBE7     		b	.L33
 712              	.L42:
 713              	.LVL36:
 669:Drivers/display_ILI-93xx_sm/lcd.c **** }
 714              		.loc 1 669 13 view .LVU216
 715              	.LBE73:
 716              	.LBE74:
 869:Drivers/display_ILI-93xx_sm/lcd.c **** }
 717              		.loc 1 869 2 is_stmt 1 view .LVU217
 718 0070 0223     		movs	r3, #2
 719 0072 224A     		ldr	r2, .L46
 720 0074 1361     		str	r3, [r2, #16]
 869:Drivers/display_ILI-93xx_sm/lcd.c **** }
 721              		.loc 1 869 2 view .LVU218
 722              	.LVL37:
 723              	.LBB75:
 724              	.LBI75:
 668:Drivers/display_ILI-93xx_sm/lcd.c **** 	for (; t; t--) __asm("nop");
 725              		.loc 1 668 13 view .LVU219
 726              	.L35:
 727              	.LBB76:
 669:Drivers/display_ILI-93xx_sm/lcd.c **** }
 728              		.loc 1 669 2 is_stmt 0 view .LVU220
 729 0076 13B1     		cbz	r3, .L43
 669:Drivers/display_ILI-93xx_sm/lcd.c **** }
 730              		.loc 1 669 17 is_stmt 1 view .LVU221
 731              		.syntax unified
 732              	@ 669 "Drivers/display_ILI-93xx_sm/lcd.c" 1
 733 0078 00BF     		nop
 734              	@ 0 "" 2
 669:Drivers/display_ILI-93xx_sm/lcd.c **** }
 735              		.loc 1 669 13 is_stmt 0 view .LVU222
ARM GAS  /tmp/cc47Teva.s 			page 31


 736              		.thumb
 737              		.syntax unified
 738 007a 013B     		subs	r3, r3, #1
 739              	.LVL38:
 669:Drivers/display_ILI-93xx_sm/lcd.c **** }
 740              		.loc 1 669 13 view .LVU223
 741 007c FBE7     		b	.L35
 742              	.L43:
 743              	.LVL39:
 669:Drivers/display_ILI-93xx_sm/lcd.c **** }
 744              		.loc 1 669 13 view .LVU224
 745              	.LBE76:
 746              	.LBE75:
 747              	.LBE70:
 748              	.LBE69:
 918:Drivers/display_ILI-93xx_sm/lcd.c **** 	LCD_CD_DATA();
 749              		.loc 1 918 2 is_stmt 1 view .LVU225
 750 007e 1F48     		ldr	r0, .L46
 751 0080 1023     		movs	r3, #16
 752 0082 0361     		str	r3, [r0, #16]
 919:Drivers/display_ILI-93xx_sm/lcd.c **** 	LCD_Write8(d);
 753              		.loc 1 919 2 view .LVU226
 754              	.LVL40:
 755              	.LBB77:
 756              	.LBI77:
 847:Drivers/display_ILI-93xx_sm/lcd.c **** 	// ------ PORT -----     --- Data ----
 757              		.loc 1 847 13 view .LVU227
 758              	.LBB78:
 860:Drivers/display_ILI-93xx_sm/lcd.c **** 	GPIOB->ODR = (GPIOB->ODR & 0xFBC7) | (data & 0x08) | ((data & 0x10) << 1) | ((data & 0x20) >> 1) |
 759              		.loc 1 860 2 view .LVU228
 860:Drivers/display_ILI-93xx_sm/lcd.c **** 	GPIOB->ODR = (GPIOB->ODR & 0xFBC7) | (data & 0x08) | ((data & 0x10) << 1) | ((data & 0x20) >> 1) |
 760              		.loc 1 860 21 is_stmt 0 view .LVU229
 761 0084 C268     		ldr	r2, [r0, #12]
 860:Drivers/display_ILI-93xx_sm/lcd.c **** 	GPIOB->ODR = (GPIOB->ODR & 0xFBC7) | (data & 0x08) | ((data & 0x10) << 1) | ((data & 0x20) >> 1) |
 762              		.loc 1 860 27 view .LVU230
 763 0086 22F4F062 		bic	r2, r2, #1920
 764 008a 1204     		lsls	r2, r2, #16
 765 008c 120C     		lsrs	r2, r2, #16
 860:Drivers/display_ILI-93xx_sm/lcd.c **** 	GPIOB->ODR = (GPIOB->ODR & 0xFBC7) | (data & 0x08) | ((data & 0x10) << 1) | ((data & 0x20) >> 1) |
 766              		.loc 1 860 54 view .LVU231
 767 008e 4B02     		lsls	r3, r1, #9
 768 0090 03F40073 		and	r3, r3, #512
 860:Drivers/display_ILI-93xx_sm/lcd.c **** 	GPIOB->ODR = (GPIOB->ODR & 0xFBC7) | (data & 0x08) | ((data & 0x10) << 1) | ((data & 0x20) >> 1) |
 769              		.loc 1 860 37 view .LVU232
 770 0094 1A43     		orrs	r2, r2, r3
 860:Drivers/display_ILI-93xx_sm/lcd.c **** 	GPIOB->ODR = (GPIOB->ODR & 0xFBC7) | (data & 0x08) | ((data & 0x10) << 1) | ((data & 0x20) >> 1) |
 771              		.loc 1 860 77 view .LVU233
 772 0096 0B02     		lsls	r3, r1, #8
 773 0098 03F48063 		and	r3, r3, #1024
 860:Drivers/display_ILI-93xx_sm/lcd.c **** 	GPIOB->ODR = (GPIOB->ODR & 0xFBC7) | (data & 0x08) | ((data & 0x10) << 1) | ((data & 0x20) >> 1) |
 774              		.loc 1 860 60 view .LVU234
 775 009c 1A43     		orrs	r2, r2, r3
 860:Drivers/display_ILI-93xx_sm/lcd.c **** 	GPIOB->ODR = (GPIOB->ODR & 0xFBC7) | (data & 0x08) | ((data & 0x10) << 1) | ((data & 0x20) >> 1) |
 776              		.loc 1 860 100 view .LVU235
 777 009e 4C00     		lsls	r4, r1, #1
 778 00a0 04F48073 		and	r3, r4, #256
 860:Drivers/display_ILI-93xx_sm/lcd.c **** 	GPIOB->ODR = (GPIOB->ODR & 0xFBC7) | (data & 0x08) | ((data & 0x10) << 1) | ((data & 0x20) >> 1) |
ARM GAS  /tmp/cc47Teva.s 			page 32


 779              		.loc 1 860 83 view .LVU236
 780 00a4 1A43     		orrs	r2, r2, r3
 860:Drivers/display_ILI-93xx_sm/lcd.c **** 	GPIOB->ODR = (GPIOB->ODR & 0xFBC7) | (data & 0x08) | ((data & 0x10) << 1) | ((data & 0x20) >> 1) |
 781              		.loc 1 860 123 view .LVU237
 782 00a6 8B01     		lsls	r3, r1, #6
 783 00a8 03F08003 		and	r3, r3, #128
 860:Drivers/display_ILI-93xx_sm/lcd.c **** 	GPIOB->ODR = (GPIOB->ODR & 0xFBC7) | (data & 0x08) | ((data & 0x10) << 1) | ((data & 0x20) >> 1) |
 784              		.loc 1 860 106 view .LVU238
 785 00ac 1A43     		orrs	r2, r2, r3
 860:Drivers/display_ILI-93xx_sm/lcd.c **** 	GPIOB->ODR = (GPIOB->ODR & 0xFBC7) | (data & 0x08) | ((data & 0x10) << 1) | ((data & 0x20) >> 1) |
 786              		.loc 1 860 13 view .LVU239
 787 00ae C260     		str	r2, [r0, #12]
 861:Drivers/display_ILI-93xx_sm/lcd.c **** #else
 788              		.loc 1 861 2 is_stmt 1 view .LVU240
 861:Drivers/display_ILI-93xx_sm/lcd.c **** #else
 789              		.loc 1 861 21 is_stmt 0 view .LVU241
 790 00b0 134D     		ldr	r5, .L46+4
 791 00b2 EB68     		ldr	r3, [r5, #12]
 861:Drivers/display_ILI-93xx_sm/lcd.c **** #else
 792              		.loc 1 861 27 view .LVU242
 793 00b4 23F48763 		bic	r3, r3, #1080
 794 00b8 1B04     		lsls	r3, r3, #16
 795 00ba 1B0C     		lsrs	r3, r3, #16
 861:Drivers/display_ILI-93xx_sm/lcd.c **** #else
 796              		.loc 1 861 45 view .LVU243
 797 00bc 01F00802 		and	r2, r1, #8
 861:Drivers/display_ILI-93xx_sm/lcd.c **** #else
 798              		.loc 1 861 37 view .LVU244
 799 00c0 1343     		orrs	r3, r3, r2
 861:Drivers/display_ILI-93xx_sm/lcd.c **** #else
 800              		.loc 1 861 70 view .LVU245
 801 00c2 04F02004 		and	r4, r4, #32
 861:Drivers/display_ILI-93xx_sm/lcd.c **** #else
 802              		.loc 1 861 53 view .LVU246
 803 00c6 2343     		orrs	r3, r3, r4
 861:Drivers/display_ILI-93xx_sm/lcd.c **** #else
 804              		.loc 1 861 93 view .LVU247
 805 00c8 4A10     		asrs	r2, r1, #1
 806 00ca 02F01002 		and	r2, r2, #16
 861:Drivers/display_ILI-93xx_sm/lcd.c **** #else
 807              		.loc 1 861 76 view .LVU248
 808 00ce 1343     		orrs	r3, r3, r2
 861:Drivers/display_ILI-93xx_sm/lcd.c **** #else
 809              		.loc 1 861 116 view .LVU249
 810 00d0 0901     		lsls	r1, r1, #4
 811              	.LVL41:
 861:Drivers/display_ILI-93xx_sm/lcd.c **** #else
 812              		.loc 1 861 116 view .LVU250
 813 00d2 01F48061 		and	r1, r1, #1024
 861:Drivers/display_ILI-93xx_sm/lcd.c **** #else
 814              		.loc 1 861 99 view .LVU251
 815 00d6 0B43     		orrs	r3, r3, r1
 861:Drivers/display_ILI-93xx_sm/lcd.c **** #else
 816              		.loc 1 861 13 view .LVU252
 817 00d8 EB60     		str	r3, [r5, #12]
 869:Drivers/display_ILI-93xx_sm/lcd.c **** }
 818              		.loc 1 869 2 is_stmt 1 view .LVU253
ARM GAS  /tmp/cc47Teva.s 			page 33


 869:Drivers/display_ILI-93xx_sm/lcd.c **** }
 819              		.loc 1 869 2 view .LVU254
 820 00da 4FF40033 		mov	r3, #131072
 821 00de 0361     		str	r3, [r0, #16]
 869:Drivers/display_ILI-93xx_sm/lcd.c **** }
 822              		.loc 1 869 2 view .LVU255
 823              	.LVL42:
 824              	.LBB79:
 825              	.LBI79:
 668:Drivers/display_ILI-93xx_sm/lcd.c **** 	for (; t; t--) __asm("nop");
 826              		.loc 1 668 13 view .LVU256
 827              	.LBB80:
 669:Drivers/display_ILI-93xx_sm/lcd.c **** }
 828              		.loc 1 669 2 view .LVU257
 829              	.LBE80:
 830              	.LBE79:
 869:Drivers/display_ILI-93xx_sm/lcd.c **** }
 831              		.loc 1 869 2 is_stmt 0 view .LVU258
 832 00e0 0223     		movs	r3, #2
 833              	.LVL43:
 834              	.L37:
 835              	.LBB82:
 836              	.LBB81:
 669:Drivers/display_ILI-93xx_sm/lcd.c **** }
 837              		.loc 1 669 2 view .LVU259
 838 00e2 13B1     		cbz	r3, .L44
 669:Drivers/display_ILI-93xx_sm/lcd.c **** }
 839              		.loc 1 669 17 is_stmt 1 view .LVU260
 840              		.syntax unified
 841              	@ 669 "Drivers/display_ILI-93xx_sm/lcd.c" 1
 842 00e4 00BF     		nop
 843              	@ 0 "" 2
 669:Drivers/display_ILI-93xx_sm/lcd.c **** }
 844              		.loc 1 669 13 is_stmt 0 view .LVU261
 845              		.thumb
 846              		.syntax unified
 847 00e6 013B     		subs	r3, r3, #1
 848              	.LVL44:
 669:Drivers/display_ILI-93xx_sm/lcd.c **** }
 849              		.loc 1 669 13 view .LVU262
 850 00e8 FBE7     		b	.L37
 851              	.L44:
 852              	.LVL45:
 669:Drivers/display_ILI-93xx_sm/lcd.c **** }
 853              		.loc 1 669 13 view .LVU263
 854              	.LBE81:
 855              	.LBE82:
 869:Drivers/display_ILI-93xx_sm/lcd.c **** }
 856              		.loc 1 869 2 is_stmt 1 view .LVU264
 857 00ea 0223     		movs	r3, #2
 858 00ec 034A     		ldr	r2, .L46
 859 00ee 1361     		str	r3, [r2, #16]
 869:Drivers/display_ILI-93xx_sm/lcd.c **** }
 860              		.loc 1 869 2 view .LVU265
 861              	.LVL46:
 862              	.LBB83:
 863              	.LBI83:
ARM GAS  /tmp/cc47Teva.s 			page 34


 668:Drivers/display_ILI-93xx_sm/lcd.c **** 	for (; t; t--) __asm("nop");
 864              		.loc 1 668 13 view .LVU266
 865              	.L39:
 866              	.LBB84:
 669:Drivers/display_ILI-93xx_sm/lcd.c **** }
 867              		.loc 1 669 2 is_stmt 0 view .LVU267
 868 00f0 13B1     		cbz	r3, .L45
 669:Drivers/display_ILI-93xx_sm/lcd.c **** }
 869              		.loc 1 669 17 is_stmt 1 view .LVU268
 870              		.syntax unified
 871              	@ 669 "Drivers/display_ILI-93xx_sm/lcd.c" 1
 872 00f2 00BF     		nop
 873              	@ 0 "" 2
 669:Drivers/display_ILI-93xx_sm/lcd.c **** }
 874              		.loc 1 669 13 is_stmt 0 view .LVU269
 875              		.thumb
 876              		.syntax unified
 877 00f4 013B     		subs	r3, r3, #1
 878              	.LVL47:
 669:Drivers/display_ILI-93xx_sm/lcd.c **** }
 879              		.loc 1 669 13 view .LVU270
 880 00f6 FBE7     		b	.L39
 881              	.L45:
 669:Drivers/display_ILI-93xx_sm/lcd.c **** }
 882              		.loc 1 669 13 view .LVU271
 883              	.LBE84:
 884              	.LBE83:
 885              	.LBE78:
 886              	.LBE77:
 920:Drivers/display_ILI-93xx_sm/lcd.c **** }
 887              		.loc 1 920 1 view .LVU272
 888 00f8 70BC     		pop	{r4, r5, r6}
 889              	.LCFI6:
 890              		.cfi_restore 6
 891              		.cfi_restore 5
 892              		.cfi_restore 4
 893              		.cfi_def_cfa_offset 0
 894 00fa 7047     		bx	lr
 895              	.L47:
 896              		.align	2
 897              	.L46:
 898 00fc 00080140 		.word	1073809408
 899 0100 000C0140 		.word	1073810432
 900              		.cfi_endproc
 901              	.LFE72:
 903              		.section	.text.LCD_Write16Register8,"ax",%progbits
 904              		.align	1
 905              		.global	LCD_Write16Register8
 906              		.syntax unified
 907              		.thumb
 908              		.thumb_func
 909              		.fpu softvfp
 911              	LCD_Write16Register8:
 912              	.LVL48:
 913              	.LFB73:
 921:Drivers/display_ILI-93xx_sm/lcd.c **** 
 922:Drivers/display_ILI-93xx_sm/lcd.c **** /**
ARM GAS  /tmp/cc47Teva.s 			page 35


 923:Drivers/display_ILI-93xx_sm/lcd.c ****  * \brief Writes 16-Bit data to register (8-bit address)
 924:Drivers/display_ILI-93xx_sm/lcd.c ****  *
 925:Drivers/display_ILI-93xx_sm/lcd.c ****  * \param a		Register
 926:Drivers/display_ILI-93xx_sm/lcd.c ****  * \param d		Data
 927:Drivers/display_ILI-93xx_sm/lcd.c ****  *
 928:Drivers/display_ILI-93xx_sm/lcd.c ****  * \return void
 929:Drivers/display_ILI-93xx_sm/lcd.c ****  */
 930:Drivers/display_ILI-93xx_sm/lcd.c **** inline void LCD_Write16Register8(uint8_t a, uint16_t d) {
 914              		.loc 1 930 57 is_stmt 1 view -0
 915              		.cfi_startproc
 916              		@ args = 0, pretend = 0, frame = 0
 917              		@ frame_needed = 0, uses_anonymous_args = 0
 918              		@ link register save eliminated.
 919              		.loc 1 930 57 is_stmt 0 view .LVU274
 920 0000 70B4     		push	{r4, r5, r6}
 921              	.LCFI7:
 922              		.cfi_def_cfa_offset 12
 923              		.cfi_offset 4, -12
 924              		.cfi_offset 5, -8
 925              		.cfi_offset 6, -4
 931:Drivers/display_ILI-93xx_sm/lcd.c **** 	LCD_CD_COMMAND();
 926              		.loc 1 931 2 is_stmt 1 view .LVU275
 927 0002 5D4C     		ldr	r4, .L68
 928 0004 4FF48013 		mov	r3, #1048576
 929 0008 2361     		str	r3, [r4, #16]
 932:Drivers/display_ILI-93xx_sm/lcd.c **** 	LCD_Write8(a);
 930              		.loc 1 932 2 view .LVU276
 931              	.LVL49:
 932              	.LBB103:
 933              	.LBI103:
 847:Drivers/display_ILI-93xx_sm/lcd.c **** 	// ------ PORT -----     --- Data ----
 934              		.loc 1 847 13 view .LVU277
 935              	.LBB104:
 860:Drivers/display_ILI-93xx_sm/lcd.c **** 	GPIOB->ODR = (GPIOB->ODR & 0xFBC7) | (data & 0x08) | ((data & 0x10) << 1) | ((data & 0x20) >> 1) |
 936              		.loc 1 860 2 view .LVU278
 860:Drivers/display_ILI-93xx_sm/lcd.c **** 	GPIOB->ODR = (GPIOB->ODR & 0xFBC7) | (data & 0x08) | ((data & 0x10) << 1) | ((data & 0x20) >> 1) |
 937              		.loc 1 860 21 is_stmt 0 view .LVU279
 938 000a E268     		ldr	r2, [r4, #12]
 860:Drivers/display_ILI-93xx_sm/lcd.c **** 	GPIOB->ODR = (GPIOB->ODR & 0xFBC7) | (data & 0x08) | ((data & 0x10) << 1) | ((data & 0x20) >> 1) |
 939              		.loc 1 860 27 view .LVU280
 940 000c 22F4F062 		bic	r2, r2, #1920
 941 0010 1204     		lsls	r2, r2, #16
 942 0012 120C     		lsrs	r2, r2, #16
 860:Drivers/display_ILI-93xx_sm/lcd.c **** 	GPIOB->ODR = (GPIOB->ODR & 0xFBC7) | (data & 0x08) | ((data & 0x10) << 1) | ((data & 0x20) >> 1) |
 943              		.loc 1 860 54 view .LVU281
 944 0014 4302     		lsls	r3, r0, #9
 945 0016 03F40073 		and	r3, r3, #512
 860:Drivers/display_ILI-93xx_sm/lcd.c **** 	GPIOB->ODR = (GPIOB->ODR & 0xFBC7) | (data & 0x08) | ((data & 0x10) << 1) | ((data & 0x20) >> 1) |
 946              		.loc 1 860 37 view .LVU282
 947 001a 1A43     		orrs	r2, r2, r3
 860:Drivers/display_ILI-93xx_sm/lcd.c **** 	GPIOB->ODR = (GPIOB->ODR & 0xFBC7) | (data & 0x08) | ((data & 0x10) << 1) | ((data & 0x20) >> 1) |
 948              		.loc 1 860 77 view .LVU283
 949 001c 0302     		lsls	r3, r0, #8
 950 001e 03F48063 		and	r3, r3, #1024
 860:Drivers/display_ILI-93xx_sm/lcd.c **** 	GPIOB->ODR = (GPIOB->ODR & 0xFBC7) | (data & 0x08) | ((data & 0x10) << 1) | ((data & 0x20) >> 1) |
 951              		.loc 1 860 60 view .LVU284
 952 0022 1A43     		orrs	r2, r2, r3
ARM GAS  /tmp/cc47Teva.s 			page 36


 860:Drivers/display_ILI-93xx_sm/lcd.c **** 	GPIOB->ODR = (GPIOB->ODR & 0xFBC7) | (data & 0x08) | ((data & 0x10) << 1) | ((data & 0x20) >> 1) |
 953              		.loc 1 860 100 view .LVU285
 954 0024 4500     		lsls	r5, r0, #1
 955 0026 05F48073 		and	r3, r5, #256
 860:Drivers/display_ILI-93xx_sm/lcd.c **** 	GPIOB->ODR = (GPIOB->ODR & 0xFBC7) | (data & 0x08) | ((data & 0x10) << 1) | ((data & 0x20) >> 1) |
 956              		.loc 1 860 83 view .LVU286
 957 002a 1A43     		orrs	r2, r2, r3
 860:Drivers/display_ILI-93xx_sm/lcd.c **** 	GPIOB->ODR = (GPIOB->ODR & 0xFBC7) | (data & 0x08) | ((data & 0x10) << 1) | ((data & 0x20) >> 1) |
 958              		.loc 1 860 123 view .LVU287
 959 002c 8301     		lsls	r3, r0, #6
 960 002e 03F08003 		and	r3, r3, #128
 860:Drivers/display_ILI-93xx_sm/lcd.c **** 	GPIOB->ODR = (GPIOB->ODR & 0xFBC7) | (data & 0x08) | ((data & 0x10) << 1) | ((data & 0x20) >> 1) |
 961              		.loc 1 860 106 view .LVU288
 962 0032 1A43     		orrs	r2, r2, r3
 860:Drivers/display_ILI-93xx_sm/lcd.c **** 	GPIOB->ODR = (GPIOB->ODR & 0xFBC7) | (data & 0x08) | ((data & 0x10) << 1) | ((data & 0x20) >> 1) |
 963              		.loc 1 860 13 view .LVU289
 964 0034 E260     		str	r2, [r4, #12]
 861:Drivers/display_ILI-93xx_sm/lcd.c **** #else
 965              		.loc 1 861 2 is_stmt 1 view .LVU290
 861:Drivers/display_ILI-93xx_sm/lcd.c **** #else
 966              		.loc 1 861 21 is_stmt 0 view .LVU291
 967 0036 514A     		ldr	r2, .L68+4
 968 0038 D368     		ldr	r3, [r2, #12]
 861:Drivers/display_ILI-93xx_sm/lcd.c **** #else
 969              		.loc 1 861 27 view .LVU292
 970 003a 23F48763 		bic	r3, r3, #1080
 971 003e 1B04     		lsls	r3, r3, #16
 972 0040 1B0C     		lsrs	r3, r3, #16
 861:Drivers/display_ILI-93xx_sm/lcd.c **** #else
 973              		.loc 1 861 45 view .LVU293
 974 0042 00F00806 		and	r6, r0, #8
 861:Drivers/display_ILI-93xx_sm/lcd.c **** #else
 975              		.loc 1 861 37 view .LVU294
 976 0046 3343     		orrs	r3, r3, r6
 861:Drivers/display_ILI-93xx_sm/lcd.c **** #else
 977              		.loc 1 861 70 view .LVU295
 978 0048 05F02005 		and	r5, r5, #32
 861:Drivers/display_ILI-93xx_sm/lcd.c **** #else
 979              		.loc 1 861 53 view .LVU296
 980 004c 2B43     		orrs	r3, r3, r5
 861:Drivers/display_ILI-93xx_sm/lcd.c **** #else
 981              		.loc 1 861 93 view .LVU297
 982 004e 4510     		asrs	r5, r0, #1
 983 0050 05F01005 		and	r5, r5, #16
 861:Drivers/display_ILI-93xx_sm/lcd.c **** #else
 984              		.loc 1 861 76 view .LVU298
 985 0054 2B43     		orrs	r3, r3, r5
 861:Drivers/display_ILI-93xx_sm/lcd.c **** #else
 986              		.loc 1 861 116 view .LVU299
 987 0056 0001     		lsls	r0, r0, #4
 988              	.LVL50:
 861:Drivers/display_ILI-93xx_sm/lcd.c **** #else
 989              		.loc 1 861 116 view .LVU300
 990 0058 00F48060 		and	r0, r0, #1024
 861:Drivers/display_ILI-93xx_sm/lcd.c **** #else
 991              		.loc 1 861 99 view .LVU301
 992 005c 0343     		orrs	r3, r3, r0
ARM GAS  /tmp/cc47Teva.s 			page 37


 861:Drivers/display_ILI-93xx_sm/lcd.c **** #else
 993              		.loc 1 861 13 view .LVU302
 994 005e D360     		str	r3, [r2, #12]
 869:Drivers/display_ILI-93xx_sm/lcd.c **** }
 995              		.loc 1 869 2 is_stmt 1 view .LVU303
 869:Drivers/display_ILI-93xx_sm/lcd.c **** }
 996              		.loc 1 869 2 view .LVU304
 997 0060 4FF40033 		mov	r3, #131072
 998 0064 2361     		str	r3, [r4, #16]
 869:Drivers/display_ILI-93xx_sm/lcd.c **** }
 999              		.loc 1 869 2 view .LVU305
 1000              	.LVL51:
 1001              	.LBB105:
 1002              	.LBI105:
 668:Drivers/display_ILI-93xx_sm/lcd.c **** 	for (; t; t--) __asm("nop");
 1003              		.loc 1 668 13 view .LVU306
 1004              	.LBB106:
 669:Drivers/display_ILI-93xx_sm/lcd.c **** }
 1005              		.loc 1 669 2 view .LVU307
 1006              	.LBE106:
 1007              	.LBE105:
 869:Drivers/display_ILI-93xx_sm/lcd.c **** }
 1008              		.loc 1 869 2 is_stmt 0 view .LVU308
 1009 0066 0223     		movs	r3, #2
 1010              	.LVL52:
 1011              	.L49:
 1012              	.LBB108:
 1013              	.LBB107:
 669:Drivers/display_ILI-93xx_sm/lcd.c **** }
 1014              		.loc 1 669 2 view .LVU309
 1015 0068 13B1     		cbz	r3, .L62
 669:Drivers/display_ILI-93xx_sm/lcd.c **** }
 1016              		.loc 1 669 17 is_stmt 1 view .LVU310
 1017              		.syntax unified
 1018              	@ 669 "Drivers/display_ILI-93xx_sm/lcd.c" 1
 1019 006a 00BF     		nop
 1020              	@ 0 "" 2
 669:Drivers/display_ILI-93xx_sm/lcd.c **** }
 1021              		.loc 1 669 13 is_stmt 0 view .LVU311
 1022              		.thumb
 1023              		.syntax unified
 1024 006c 013B     		subs	r3, r3, #1
 1025              	.LVL53:
 669:Drivers/display_ILI-93xx_sm/lcd.c **** }
 1026              		.loc 1 669 13 view .LVU312
 1027 006e FBE7     		b	.L49
 1028              	.L62:
 1029              	.LVL54:
 669:Drivers/display_ILI-93xx_sm/lcd.c **** }
 1030              		.loc 1 669 13 view .LVU313
 1031              	.LBE107:
 1032              	.LBE108:
 869:Drivers/display_ILI-93xx_sm/lcd.c **** }
 1033              		.loc 1 869 2 is_stmt 1 view .LVU314
 1034 0070 0223     		movs	r3, #2
 1035 0072 414A     		ldr	r2, .L68
 1036 0074 1361     		str	r3, [r2, #16]
ARM GAS  /tmp/cc47Teva.s 			page 38


 869:Drivers/display_ILI-93xx_sm/lcd.c **** }
 1037              		.loc 1 869 2 view .LVU315
 1038              	.LVL55:
 1039              	.LBB109:
 1040              	.LBI109:
 668:Drivers/display_ILI-93xx_sm/lcd.c **** 	for (; t; t--) __asm("nop");
 1041              		.loc 1 668 13 view .LVU316
 1042              	.L51:
 1043              	.LBB110:
 669:Drivers/display_ILI-93xx_sm/lcd.c **** }
 1044              		.loc 1 669 2 is_stmt 0 view .LVU317
 1045 0076 13B1     		cbz	r3, .L63
 669:Drivers/display_ILI-93xx_sm/lcd.c **** }
 1046              		.loc 1 669 17 is_stmt 1 view .LVU318
 1047              		.syntax unified
 1048              	@ 669 "Drivers/display_ILI-93xx_sm/lcd.c" 1
 1049 0078 00BF     		nop
 1050              	@ 0 "" 2
 669:Drivers/display_ILI-93xx_sm/lcd.c **** }
 1051              		.loc 1 669 13 is_stmt 0 view .LVU319
 1052              		.thumb
 1053              		.syntax unified
 1054 007a 013B     		subs	r3, r3, #1
 1055              	.LVL56:
 669:Drivers/display_ILI-93xx_sm/lcd.c **** }
 1056              		.loc 1 669 13 view .LVU320
 1057 007c FBE7     		b	.L51
 1058              	.L63:
 1059              	.LVL57:
 669:Drivers/display_ILI-93xx_sm/lcd.c **** }
 1060              		.loc 1 669 13 view .LVU321
 1061              	.LBE110:
 1062              	.LBE109:
 1063              	.LBE104:
 1064              	.LBE103:
 933:Drivers/display_ILI-93xx_sm/lcd.c **** 	LCD_CD_DATA();
 1065              		.loc 1 933 2 is_stmt 1 view .LVU322
 1066 007e 3E4C     		ldr	r4, .L68
 1067 0080 1023     		movs	r3, #16
 1068 0082 2361     		str	r3, [r4, #16]
 934:Drivers/display_ILI-93xx_sm/lcd.c **** 	LCD_Write8(d >> 8);
 1069              		.loc 1 934 2 view .LVU323
 1070 0084 0B0A     		lsrs	r3, r1, #8
 1071              	.LBB111:
 1072              	.LBI111:
 847:Drivers/display_ILI-93xx_sm/lcd.c **** 	// ------ PORT -----     --- Data ----
 1073              		.loc 1 847 13 view .LVU324
 1074              	.LBB112:
 860:Drivers/display_ILI-93xx_sm/lcd.c **** 	GPIOB->ODR = (GPIOB->ODR & 0xFBC7) | (data & 0x08) | ((data & 0x10) << 1) | ((data & 0x20) >> 1) |
 1075              		.loc 1 860 2 view .LVU325
 860:Drivers/display_ILI-93xx_sm/lcd.c **** 	GPIOB->ODR = (GPIOB->ODR & 0xFBC7) | (data & 0x08) | ((data & 0x10) << 1) | ((data & 0x20) >> 1) |
 1076              		.loc 1 860 21 is_stmt 0 view .LVU326
 1077 0086 E068     		ldr	r0, [r4, #12]
 860:Drivers/display_ILI-93xx_sm/lcd.c **** 	GPIOB->ODR = (GPIOB->ODR & 0xFBC7) | (data & 0x08) | ((data & 0x10) << 1) | ((data & 0x20) >> 1) |
 1078              		.loc 1 860 27 view .LVU327
 1079 0088 20F4F060 		bic	r0, r0, #1920
 1080 008c 0004     		lsls	r0, r0, #16
ARM GAS  /tmp/cc47Teva.s 			page 39


 1081 008e 000C     		lsrs	r0, r0, #16
 860:Drivers/display_ILI-93xx_sm/lcd.c **** 	GPIOB->ODR = (GPIOB->ODR & 0xFBC7) | (data & 0x08) | ((data & 0x10) << 1) | ((data & 0x20) >> 1) |
 1082              		.loc 1 860 54 view .LVU328
 1083 0090 5A02     		lsls	r2, r3, #9
 1084 0092 02F40072 		and	r2, r2, #512
 860:Drivers/display_ILI-93xx_sm/lcd.c **** 	GPIOB->ODR = (GPIOB->ODR & 0xFBC7) | (data & 0x08) | ((data & 0x10) << 1) | ((data & 0x20) >> 1) |
 1085              		.loc 1 860 37 view .LVU329
 1086 0096 1043     		orrs	r0, r0, r2
 860:Drivers/display_ILI-93xx_sm/lcd.c **** 	GPIOB->ODR = (GPIOB->ODR & 0xFBC7) | (data & 0x08) | ((data & 0x10) << 1) | ((data & 0x20) >> 1) |
 1087              		.loc 1 860 77 view .LVU330
 1088 0098 1A02     		lsls	r2, r3, #8
 1089 009a 02F48062 		and	r2, r2, #1024
 860:Drivers/display_ILI-93xx_sm/lcd.c **** 	GPIOB->ODR = (GPIOB->ODR & 0xFBC7) | (data & 0x08) | ((data & 0x10) << 1) | ((data & 0x20) >> 1) |
 1090              		.loc 1 860 60 view .LVU331
 1091 009e 1043     		orrs	r0, r0, r2
 860:Drivers/display_ILI-93xx_sm/lcd.c **** 	GPIOB->ODR = (GPIOB->ODR & 0xFBC7) | (data & 0x08) | ((data & 0x10) << 1) | ((data & 0x20) >> 1) |
 1092              		.loc 1 860 100 view .LVU332
 1093 00a0 5D00     		lsls	r5, r3, #1
 1094 00a2 05F48072 		and	r2, r5, #256
 860:Drivers/display_ILI-93xx_sm/lcd.c **** 	GPIOB->ODR = (GPIOB->ODR & 0xFBC7) | (data & 0x08) | ((data & 0x10) << 1) | ((data & 0x20) >> 1) |
 1095              		.loc 1 860 83 view .LVU333
 1096 00a6 1043     		orrs	r0, r0, r2
 860:Drivers/display_ILI-93xx_sm/lcd.c **** 	GPIOB->ODR = (GPIOB->ODR & 0xFBC7) | (data & 0x08) | ((data & 0x10) << 1) | ((data & 0x20) >> 1) |
 1097              		.loc 1 860 123 view .LVU334
 1098 00a8 9A01     		lsls	r2, r3, #6
 1099 00aa 02F08002 		and	r2, r2, #128
 860:Drivers/display_ILI-93xx_sm/lcd.c **** 	GPIOB->ODR = (GPIOB->ODR & 0xFBC7) | (data & 0x08) | ((data & 0x10) << 1) | ((data & 0x20) >> 1) |
 1100              		.loc 1 860 106 view .LVU335
 1101 00ae 1043     		orrs	r0, r0, r2
 860:Drivers/display_ILI-93xx_sm/lcd.c **** 	GPIOB->ODR = (GPIOB->ODR & 0xFBC7) | (data & 0x08) | ((data & 0x10) << 1) | ((data & 0x20) >> 1) |
 1102              		.loc 1 860 13 view .LVU336
 1103 00b0 E060     		str	r0, [r4, #12]
 861:Drivers/display_ILI-93xx_sm/lcd.c **** #else
 1104              		.loc 1 861 2 is_stmt 1 view .LVU337
 861:Drivers/display_ILI-93xx_sm/lcd.c **** #else
 1105              		.loc 1 861 21 is_stmt 0 view .LVU338
 1106 00b2 3248     		ldr	r0, .L68+4
 1107 00b4 C268     		ldr	r2, [r0, #12]
 861:Drivers/display_ILI-93xx_sm/lcd.c **** #else
 1108              		.loc 1 861 27 view .LVU339
 1109 00b6 22F48762 		bic	r2, r2, #1080
 1110 00ba 1204     		lsls	r2, r2, #16
 1111 00bc 120C     		lsrs	r2, r2, #16
 861:Drivers/display_ILI-93xx_sm/lcd.c **** #else
 1112              		.loc 1 861 45 view .LVU340
 1113 00be 03F00806 		and	r6, r3, #8
 861:Drivers/display_ILI-93xx_sm/lcd.c **** #else
 1114              		.loc 1 861 37 view .LVU341
 1115 00c2 3243     		orrs	r2, r2, r6
 861:Drivers/display_ILI-93xx_sm/lcd.c **** #else
 1116              		.loc 1 861 70 view .LVU342
 1117 00c4 05F02005 		and	r5, r5, #32
 861:Drivers/display_ILI-93xx_sm/lcd.c **** #else
 1118              		.loc 1 861 53 view .LVU343
 1119 00c8 2A43     		orrs	r2, r2, r5
 861:Drivers/display_ILI-93xx_sm/lcd.c **** #else
 1120              		.loc 1 861 93 view .LVU344
ARM GAS  /tmp/cc47Teva.s 			page 40


 1121 00ca 5D10     		asrs	r5, r3, #1
 1122 00cc 05F01005 		and	r5, r5, #16
 861:Drivers/display_ILI-93xx_sm/lcd.c **** #else
 1123              		.loc 1 861 76 view .LVU345
 1124 00d0 2A43     		orrs	r2, r2, r5
 861:Drivers/display_ILI-93xx_sm/lcd.c **** #else
 1125              		.loc 1 861 116 view .LVU346
 1126 00d2 1B01     		lsls	r3, r3, #4
 1127 00d4 03F48063 		and	r3, r3, #1024
 861:Drivers/display_ILI-93xx_sm/lcd.c **** #else
 1128              		.loc 1 861 99 view .LVU347
 1129 00d8 1A43     		orrs	r2, r2, r3
 861:Drivers/display_ILI-93xx_sm/lcd.c **** #else
 1130              		.loc 1 861 13 view .LVU348
 1131 00da C260     		str	r2, [r0, #12]
 869:Drivers/display_ILI-93xx_sm/lcd.c **** }
 1132              		.loc 1 869 2 is_stmt 1 view .LVU349
 869:Drivers/display_ILI-93xx_sm/lcd.c **** }
 1133              		.loc 1 869 2 view .LVU350
 1134 00dc 4FF40033 		mov	r3, #131072
 1135 00e0 2361     		str	r3, [r4, #16]
 869:Drivers/display_ILI-93xx_sm/lcd.c **** }
 1136              		.loc 1 869 2 view .LVU351
 1137              	.LVL58:
 1138              	.LBB113:
 1139              	.LBI113:
 668:Drivers/display_ILI-93xx_sm/lcd.c **** 	for (; t; t--) __asm("nop");
 1140              		.loc 1 668 13 view .LVU352
 1141              	.LBB114:
 669:Drivers/display_ILI-93xx_sm/lcd.c **** }
 1142              		.loc 1 669 2 view .LVU353
 1143              	.LBE114:
 1144              	.LBE113:
 869:Drivers/display_ILI-93xx_sm/lcd.c **** }
 1145              		.loc 1 869 2 is_stmt 0 view .LVU354
 1146 00e2 0223     		movs	r3, #2
 1147              	.LVL59:
 1148              	.L53:
 1149              	.LBB116:
 1150              	.LBB115:
 669:Drivers/display_ILI-93xx_sm/lcd.c **** }
 1151              		.loc 1 669 2 view .LVU355
 1152 00e4 13B1     		cbz	r3, .L64
 669:Drivers/display_ILI-93xx_sm/lcd.c **** }
 1153              		.loc 1 669 17 is_stmt 1 view .LVU356
 1154              		.syntax unified
 1155              	@ 669 "Drivers/display_ILI-93xx_sm/lcd.c" 1
 1156 00e6 00BF     		nop
 1157              	@ 0 "" 2
 669:Drivers/display_ILI-93xx_sm/lcd.c **** }
 1158              		.loc 1 669 13 is_stmt 0 view .LVU357
 1159              		.thumb
 1160              		.syntax unified
 1161 00e8 013B     		subs	r3, r3, #1
 1162              	.LVL60:
 669:Drivers/display_ILI-93xx_sm/lcd.c **** }
 1163              		.loc 1 669 13 view .LVU358
ARM GAS  /tmp/cc47Teva.s 			page 41


 1164 00ea FBE7     		b	.L53
 1165              	.L64:
 1166              	.LVL61:
 669:Drivers/display_ILI-93xx_sm/lcd.c **** }
 1167              		.loc 1 669 13 view .LVU359
 1168              	.LBE115:
 1169              	.LBE116:
 869:Drivers/display_ILI-93xx_sm/lcd.c **** }
 1170              		.loc 1 869 2 is_stmt 1 view .LVU360
 1171 00ec 0223     		movs	r3, #2
 1172 00ee 224A     		ldr	r2, .L68
 1173 00f0 1361     		str	r3, [r2, #16]
 869:Drivers/display_ILI-93xx_sm/lcd.c **** }
 1174              		.loc 1 869 2 view .LVU361
 1175              	.LVL62:
 1176              	.LBB117:
 1177              	.LBI117:
 668:Drivers/display_ILI-93xx_sm/lcd.c **** 	for (; t; t--) __asm("nop");
 1178              		.loc 1 668 13 view .LVU362
 1179              	.L55:
 1180              	.LBB118:
 669:Drivers/display_ILI-93xx_sm/lcd.c **** }
 1181              		.loc 1 669 2 is_stmt 0 view .LVU363
 1182 00f2 13B1     		cbz	r3, .L65
 669:Drivers/display_ILI-93xx_sm/lcd.c **** }
 1183              		.loc 1 669 17 is_stmt 1 view .LVU364
 1184              		.syntax unified
 1185              	@ 669 "Drivers/display_ILI-93xx_sm/lcd.c" 1
 1186 00f4 00BF     		nop
 1187              	@ 0 "" 2
 669:Drivers/display_ILI-93xx_sm/lcd.c **** }
 1188              		.loc 1 669 13 is_stmt 0 view .LVU365
 1189              		.thumb
 1190              		.syntax unified
 1191 00f6 013B     		subs	r3, r3, #1
 1192              	.LVL63:
 669:Drivers/display_ILI-93xx_sm/lcd.c **** }
 1193              		.loc 1 669 13 view .LVU366
 1194 00f8 FBE7     		b	.L55
 1195              	.L65:
 1196              	.LVL64:
 669:Drivers/display_ILI-93xx_sm/lcd.c **** }
 1197              		.loc 1 669 13 view .LVU367
 1198              	.LBE118:
 1199              	.LBE117:
 1200              	.LBE112:
 1201              	.LBE111:
 935:Drivers/display_ILI-93xx_sm/lcd.c **** 	LCD_Write8(d);
 1202              		.loc 1 935 2 is_stmt 1 view .LVU368
 1203 00fa C9B2     		uxtb	r1, r1
 1204              	.LVL65:
 1205              	.LBB119:
 1206              	.LBI119:
 847:Drivers/display_ILI-93xx_sm/lcd.c **** 	// ------ PORT -----     --- Data ----
 1207              		.loc 1 847 13 view .LVU369
 1208              	.LBB120:
 860:Drivers/display_ILI-93xx_sm/lcd.c **** 	GPIOB->ODR = (GPIOB->ODR & 0xFBC7) | (data & 0x08) | ((data & 0x10) << 1) | ((data & 0x20) >> 1) |
ARM GAS  /tmp/cc47Teva.s 			page 42


 1209              		.loc 1 860 2 view .LVU370
 860:Drivers/display_ILI-93xx_sm/lcd.c **** 	GPIOB->ODR = (GPIOB->ODR & 0xFBC7) | (data & 0x08) | ((data & 0x10) << 1) | ((data & 0x20) >> 1) |
 1210              		.loc 1 860 21 is_stmt 0 view .LVU371
 1211 00fc 1E48     		ldr	r0, .L68
 1212 00fe C268     		ldr	r2, [r0, #12]
 860:Drivers/display_ILI-93xx_sm/lcd.c **** 	GPIOB->ODR = (GPIOB->ODR & 0xFBC7) | (data & 0x08) | ((data & 0x10) << 1) | ((data & 0x20) >> 1) |
 1213              		.loc 1 860 27 view .LVU372
 1214 0100 22F4F062 		bic	r2, r2, #1920
 1215 0104 1204     		lsls	r2, r2, #16
 1216 0106 120C     		lsrs	r2, r2, #16
 860:Drivers/display_ILI-93xx_sm/lcd.c **** 	GPIOB->ODR = (GPIOB->ODR & 0xFBC7) | (data & 0x08) | ((data & 0x10) << 1) | ((data & 0x20) >> 1) |
 1217              		.loc 1 860 54 view .LVU373
 1218 0108 4B02     		lsls	r3, r1, #9
 1219 010a 03F40073 		and	r3, r3, #512
 860:Drivers/display_ILI-93xx_sm/lcd.c **** 	GPIOB->ODR = (GPIOB->ODR & 0xFBC7) | (data & 0x08) | ((data & 0x10) << 1) | ((data & 0x20) >> 1) |
 1220              		.loc 1 860 37 view .LVU374
 1221 010e 1A43     		orrs	r2, r2, r3
 860:Drivers/display_ILI-93xx_sm/lcd.c **** 	GPIOB->ODR = (GPIOB->ODR & 0xFBC7) | (data & 0x08) | ((data & 0x10) << 1) | ((data & 0x20) >> 1) |
 1222              		.loc 1 860 77 view .LVU375
 1223 0110 0B02     		lsls	r3, r1, #8
 1224 0112 03F48063 		and	r3, r3, #1024
 860:Drivers/display_ILI-93xx_sm/lcd.c **** 	GPIOB->ODR = (GPIOB->ODR & 0xFBC7) | (data & 0x08) | ((data & 0x10) << 1) | ((data & 0x20) >> 1) |
 1225              		.loc 1 860 60 view .LVU376
 1226 0116 1A43     		orrs	r2, r2, r3
 860:Drivers/display_ILI-93xx_sm/lcd.c **** 	GPIOB->ODR = (GPIOB->ODR & 0xFBC7) | (data & 0x08) | ((data & 0x10) << 1) | ((data & 0x20) >> 1) |
 1227              		.loc 1 860 100 view .LVU377
 1228 0118 4C00     		lsls	r4, r1, #1
 1229 011a 04F48073 		and	r3, r4, #256
 860:Drivers/display_ILI-93xx_sm/lcd.c **** 	GPIOB->ODR = (GPIOB->ODR & 0xFBC7) | (data & 0x08) | ((data & 0x10) << 1) | ((data & 0x20) >> 1) |
 1230              		.loc 1 860 83 view .LVU378
 1231 011e 1A43     		orrs	r2, r2, r3
 860:Drivers/display_ILI-93xx_sm/lcd.c **** 	GPIOB->ODR = (GPIOB->ODR & 0xFBC7) | (data & 0x08) | ((data & 0x10) << 1) | ((data & 0x20) >> 1) |
 1232              		.loc 1 860 123 view .LVU379
 1233 0120 8B01     		lsls	r3, r1, #6
 1234 0122 03F08003 		and	r3, r3, #128
 860:Drivers/display_ILI-93xx_sm/lcd.c **** 	GPIOB->ODR = (GPIOB->ODR & 0xFBC7) | (data & 0x08) | ((data & 0x10) << 1) | ((data & 0x20) >> 1) |
 1235              		.loc 1 860 106 view .LVU380
 1236 0126 1A43     		orrs	r2, r2, r3
 860:Drivers/display_ILI-93xx_sm/lcd.c **** 	GPIOB->ODR = (GPIOB->ODR & 0xFBC7) | (data & 0x08) | ((data & 0x10) << 1) | ((data & 0x20) >> 1) |
 1237              		.loc 1 860 13 view .LVU381
 1238 0128 C260     		str	r2, [r0, #12]
 861:Drivers/display_ILI-93xx_sm/lcd.c **** #else
 1239              		.loc 1 861 2 is_stmt 1 view .LVU382
 861:Drivers/display_ILI-93xx_sm/lcd.c **** #else
 1240              		.loc 1 861 21 is_stmt 0 view .LVU383
 1241 012a 144D     		ldr	r5, .L68+4
 1242 012c EB68     		ldr	r3, [r5, #12]
 861:Drivers/display_ILI-93xx_sm/lcd.c **** #else
 1243              		.loc 1 861 27 view .LVU384
 1244 012e 23F48763 		bic	r3, r3, #1080
 1245 0132 1B04     		lsls	r3, r3, #16
 1246 0134 1B0C     		lsrs	r3, r3, #16
 861:Drivers/display_ILI-93xx_sm/lcd.c **** #else
 1247              		.loc 1 861 45 view .LVU385
 1248 0136 01F00802 		and	r2, r1, #8
 861:Drivers/display_ILI-93xx_sm/lcd.c **** #else
 1249              		.loc 1 861 37 view .LVU386
ARM GAS  /tmp/cc47Teva.s 			page 43


 1250 013a 1343     		orrs	r3, r3, r2
 861:Drivers/display_ILI-93xx_sm/lcd.c **** #else
 1251              		.loc 1 861 70 view .LVU387
 1252 013c 04F02004 		and	r4, r4, #32
 861:Drivers/display_ILI-93xx_sm/lcd.c **** #else
 1253              		.loc 1 861 53 view .LVU388
 1254 0140 2343     		orrs	r3, r3, r4
 861:Drivers/display_ILI-93xx_sm/lcd.c **** #else
 1255              		.loc 1 861 93 view .LVU389
 1256 0142 4A10     		asrs	r2, r1, #1
 1257 0144 02F01002 		and	r2, r2, #16
 861:Drivers/display_ILI-93xx_sm/lcd.c **** #else
 1258              		.loc 1 861 76 view .LVU390
 1259 0148 1343     		orrs	r3, r3, r2
 861:Drivers/display_ILI-93xx_sm/lcd.c **** #else
 1260              		.loc 1 861 116 view .LVU391
 1261 014a 0901     		lsls	r1, r1, #4
 1262              	.LVL66:
 861:Drivers/display_ILI-93xx_sm/lcd.c **** #else
 1263              		.loc 1 861 116 view .LVU392
 1264 014c 01F48061 		and	r1, r1, #1024
 861:Drivers/display_ILI-93xx_sm/lcd.c **** #else
 1265              		.loc 1 861 99 view .LVU393
 1266 0150 0B43     		orrs	r3, r3, r1
 861:Drivers/display_ILI-93xx_sm/lcd.c **** #else
 1267              		.loc 1 861 13 view .LVU394
 1268 0152 EB60     		str	r3, [r5, #12]
 869:Drivers/display_ILI-93xx_sm/lcd.c **** }
 1269              		.loc 1 869 2 is_stmt 1 view .LVU395
 869:Drivers/display_ILI-93xx_sm/lcd.c **** }
 1270              		.loc 1 869 2 view .LVU396
 1271 0154 4FF40033 		mov	r3, #131072
 1272 0158 0361     		str	r3, [r0, #16]
 869:Drivers/display_ILI-93xx_sm/lcd.c **** }
 1273              		.loc 1 869 2 view .LVU397
 1274              	.LVL67:
 1275              	.LBB121:
 1276              	.LBI121:
 668:Drivers/display_ILI-93xx_sm/lcd.c **** 	for (; t; t--) __asm("nop");
 1277              		.loc 1 668 13 view .LVU398
 1278              	.LBB122:
 669:Drivers/display_ILI-93xx_sm/lcd.c **** }
 1279              		.loc 1 669 2 view .LVU399
 1280              	.LBE122:
 1281              	.LBE121:
 869:Drivers/display_ILI-93xx_sm/lcd.c **** }
 1282              		.loc 1 869 2 is_stmt 0 view .LVU400
 1283 015a 0223     		movs	r3, #2
 1284              	.LVL68:
 1285              	.L57:
 1286              	.LBB124:
 1287              	.LBB123:
 669:Drivers/display_ILI-93xx_sm/lcd.c **** }
 1288              		.loc 1 669 2 view .LVU401
 1289 015c 13B1     		cbz	r3, .L66
 669:Drivers/display_ILI-93xx_sm/lcd.c **** }
 1290              		.loc 1 669 17 is_stmt 1 view .LVU402
ARM GAS  /tmp/cc47Teva.s 			page 44


 1291              		.syntax unified
 1292              	@ 669 "Drivers/display_ILI-93xx_sm/lcd.c" 1
 1293 015e 00BF     		nop
 1294              	@ 0 "" 2
 669:Drivers/display_ILI-93xx_sm/lcd.c **** }
 1295              		.loc 1 669 13 is_stmt 0 view .LVU403
 1296              		.thumb
 1297              		.syntax unified
 1298 0160 013B     		subs	r3, r3, #1
 1299              	.LVL69:
 669:Drivers/display_ILI-93xx_sm/lcd.c **** }
 1300              		.loc 1 669 13 view .LVU404
 1301 0162 FBE7     		b	.L57
 1302              	.L66:
 1303              	.LVL70:
 669:Drivers/display_ILI-93xx_sm/lcd.c **** }
 1304              		.loc 1 669 13 view .LVU405
 1305              	.LBE123:
 1306              	.LBE124:
 869:Drivers/display_ILI-93xx_sm/lcd.c **** }
 1307              		.loc 1 869 2 is_stmt 1 view .LVU406
 1308 0164 0223     		movs	r3, #2
 1309 0166 044A     		ldr	r2, .L68
 1310 0168 1361     		str	r3, [r2, #16]
 869:Drivers/display_ILI-93xx_sm/lcd.c **** }
 1311              		.loc 1 869 2 view .LVU407
 1312              	.LVL71:
 1313              	.LBB125:
 1314              	.LBI125:
 668:Drivers/display_ILI-93xx_sm/lcd.c **** 	for (; t; t--) __asm("nop");
 1315              		.loc 1 668 13 view .LVU408
 1316              	.L59:
 1317              	.LBB126:
 669:Drivers/display_ILI-93xx_sm/lcd.c **** }
 1318              		.loc 1 669 2 is_stmt 0 view .LVU409
 1319 016a 13B1     		cbz	r3, .L67
 669:Drivers/display_ILI-93xx_sm/lcd.c **** }
 1320              		.loc 1 669 17 is_stmt 1 view .LVU410
 1321              		.syntax unified
 1322              	@ 669 "Drivers/display_ILI-93xx_sm/lcd.c" 1
 1323 016c 00BF     		nop
 1324              	@ 0 "" 2
 669:Drivers/display_ILI-93xx_sm/lcd.c **** }
 1325              		.loc 1 669 13 is_stmt 0 view .LVU411
 1326              		.thumb
 1327              		.syntax unified
 1328 016e 013B     		subs	r3, r3, #1
 1329              	.LVL72:
 669:Drivers/display_ILI-93xx_sm/lcd.c **** }
 1330              		.loc 1 669 13 view .LVU412
 1331 0170 FBE7     		b	.L59
 1332              	.L67:
 669:Drivers/display_ILI-93xx_sm/lcd.c **** }
 1333              		.loc 1 669 13 view .LVU413
 1334              	.LBE126:
 1335              	.LBE125:
 1336              	.LBE120:
ARM GAS  /tmp/cc47Teva.s 			page 45


 1337              	.LBE119:
 936:Drivers/display_ILI-93xx_sm/lcd.c **** }
 1338              		.loc 1 936 1 view .LVU414
 1339 0172 70BC     		pop	{r4, r5, r6}
 1340              	.LCFI8:
 1341              		.cfi_restore 6
 1342              		.cfi_restore 5
 1343              		.cfi_restore 4
 1344              		.cfi_def_cfa_offset 0
 1345 0174 7047     		bx	lr
 1346              	.L69:
 1347 0176 00BF     		.align	2
 1348              	.L68:
 1349 0178 00080140 		.word	1073809408
 1350 017c 000C0140 		.word	1073810432
 1351              		.cfi_endproc
 1352              	.LFE73:
 1354              		.section	.text.LCD_Write24Register8,"ax",%progbits
 1355              		.align	1
 1356              		.global	LCD_Write24Register8
 1357              		.syntax unified
 1358              		.thumb
 1359              		.thumb_func
 1360              		.fpu softvfp
 1362              	LCD_Write24Register8:
 1363              	.LVL73:
 1364              	.LFB74:
 937:Drivers/display_ILI-93xx_sm/lcd.c **** 
 938:Drivers/display_ILI-93xx_sm/lcd.c **** /**
 939:Drivers/display_ILI-93xx_sm/lcd.c ****  * \brief Writes 24-Bit data to register (8-bit address)
 940:Drivers/display_ILI-93xx_sm/lcd.c ****  *
 941:Drivers/display_ILI-93xx_sm/lcd.c ****  * \param a		Register
 942:Drivers/display_ILI-93xx_sm/lcd.c ****  * \param d		Data
 943:Drivers/display_ILI-93xx_sm/lcd.c ****  *
 944:Drivers/display_ILI-93xx_sm/lcd.c ****  * \return void
 945:Drivers/display_ILI-93xx_sm/lcd.c ****  */
 946:Drivers/display_ILI-93xx_sm/lcd.c **** inline void LCD_Write24Register8(uint8_t a, uint32_t d) {
 1365              		.loc 1 946 57 is_stmt 1 view -0
 1366              		.cfi_startproc
 1367              		@ args = 0, pretend = 0, frame = 0
 1368              		@ frame_needed = 0, uses_anonymous_args = 0
 1369              		@ link register save eliminated.
 1370              		.loc 1 946 57 is_stmt 0 view .LVU416
 1371 0000 70B4     		push	{r4, r5, r6}
 1372              	.LCFI9:
 1373              		.cfi_def_cfa_offset 12
 1374              		.cfi_offset 4, -12
 1375              		.cfi_offset 5, -8
 1376              		.cfi_offset 6, -4
 947:Drivers/display_ILI-93xx_sm/lcd.c **** 	LCD_CD_COMMAND();
 1377              		.loc 1 947 2 is_stmt 1 view .LVU417
 1378 0002 7C4C     		ldr	r4, .L95
 1379 0004 4FF48013 		mov	r3, #1048576
 1380 0008 2361     		str	r3, [r4, #16]
 948:Drivers/display_ILI-93xx_sm/lcd.c **** 	LCD_Write8(a);
 1381              		.loc 1 948 2 view .LVU418
 1382              	.LVL74:
ARM GAS  /tmp/cc47Teva.s 			page 46


 1383              	.LBB151:
 1384              	.LBI151:
 847:Drivers/display_ILI-93xx_sm/lcd.c **** 	// ------ PORT -----     --- Data ----
 1385              		.loc 1 847 13 view .LVU419
 1386              	.LBB152:
 860:Drivers/display_ILI-93xx_sm/lcd.c **** 	GPIOB->ODR = (GPIOB->ODR & 0xFBC7) | (data & 0x08) | ((data & 0x10) << 1) | ((data & 0x20) >> 1) |
 1387              		.loc 1 860 2 view .LVU420
 860:Drivers/display_ILI-93xx_sm/lcd.c **** 	GPIOB->ODR = (GPIOB->ODR & 0xFBC7) | (data & 0x08) | ((data & 0x10) << 1) | ((data & 0x20) >> 1) |
 1388              		.loc 1 860 21 is_stmt 0 view .LVU421
 1389 000a E268     		ldr	r2, [r4, #12]
 860:Drivers/display_ILI-93xx_sm/lcd.c **** 	GPIOB->ODR = (GPIOB->ODR & 0xFBC7) | (data & 0x08) | ((data & 0x10) << 1) | ((data & 0x20) >> 1) |
 1390              		.loc 1 860 27 view .LVU422
 1391 000c 22F4F062 		bic	r2, r2, #1920
 1392 0010 1204     		lsls	r2, r2, #16
 1393 0012 120C     		lsrs	r2, r2, #16
 860:Drivers/display_ILI-93xx_sm/lcd.c **** 	GPIOB->ODR = (GPIOB->ODR & 0xFBC7) | (data & 0x08) | ((data & 0x10) << 1) | ((data & 0x20) >> 1) |
 1394              		.loc 1 860 54 view .LVU423
 1395 0014 4302     		lsls	r3, r0, #9
 1396 0016 03F40073 		and	r3, r3, #512
 860:Drivers/display_ILI-93xx_sm/lcd.c **** 	GPIOB->ODR = (GPIOB->ODR & 0xFBC7) | (data & 0x08) | ((data & 0x10) << 1) | ((data & 0x20) >> 1) |
 1397              		.loc 1 860 37 view .LVU424
 1398 001a 1A43     		orrs	r2, r2, r3
 860:Drivers/display_ILI-93xx_sm/lcd.c **** 	GPIOB->ODR = (GPIOB->ODR & 0xFBC7) | (data & 0x08) | ((data & 0x10) << 1) | ((data & 0x20) >> 1) |
 1399              		.loc 1 860 77 view .LVU425
 1400 001c 0302     		lsls	r3, r0, #8
 1401 001e 03F48063 		and	r3, r3, #1024
 860:Drivers/display_ILI-93xx_sm/lcd.c **** 	GPIOB->ODR = (GPIOB->ODR & 0xFBC7) | (data & 0x08) | ((data & 0x10) << 1) | ((data & 0x20) >> 1) |
 1402              		.loc 1 860 60 view .LVU426
 1403 0022 1A43     		orrs	r2, r2, r3
 860:Drivers/display_ILI-93xx_sm/lcd.c **** 	GPIOB->ODR = (GPIOB->ODR & 0xFBC7) | (data & 0x08) | ((data & 0x10) << 1) | ((data & 0x20) >> 1) |
 1404              		.loc 1 860 100 view .LVU427
 1405 0024 4500     		lsls	r5, r0, #1
 1406 0026 05F48073 		and	r3, r5, #256
 860:Drivers/display_ILI-93xx_sm/lcd.c **** 	GPIOB->ODR = (GPIOB->ODR & 0xFBC7) | (data & 0x08) | ((data & 0x10) << 1) | ((data & 0x20) >> 1) |
 1407              		.loc 1 860 83 view .LVU428
 1408 002a 1A43     		orrs	r2, r2, r3
 860:Drivers/display_ILI-93xx_sm/lcd.c **** 	GPIOB->ODR = (GPIOB->ODR & 0xFBC7) | (data & 0x08) | ((data & 0x10) << 1) | ((data & 0x20) >> 1) |
 1409              		.loc 1 860 123 view .LVU429
 1410 002c 8301     		lsls	r3, r0, #6
 1411 002e 03F08003 		and	r3, r3, #128
 860:Drivers/display_ILI-93xx_sm/lcd.c **** 	GPIOB->ODR = (GPIOB->ODR & 0xFBC7) | (data & 0x08) | ((data & 0x10) << 1) | ((data & 0x20) >> 1) |
 1412              		.loc 1 860 106 view .LVU430
 1413 0032 1A43     		orrs	r2, r2, r3
 860:Drivers/display_ILI-93xx_sm/lcd.c **** 	GPIOB->ODR = (GPIOB->ODR & 0xFBC7) | (data & 0x08) | ((data & 0x10) << 1) | ((data & 0x20) >> 1) |
 1414              		.loc 1 860 13 view .LVU431
 1415 0034 E260     		str	r2, [r4, #12]
 861:Drivers/display_ILI-93xx_sm/lcd.c **** #else
 1416              		.loc 1 861 2 is_stmt 1 view .LVU432
 861:Drivers/display_ILI-93xx_sm/lcd.c **** #else
 1417              		.loc 1 861 21 is_stmt 0 view .LVU433
 1418 0036 704A     		ldr	r2, .L95+4
 1419 0038 D368     		ldr	r3, [r2, #12]
 861:Drivers/display_ILI-93xx_sm/lcd.c **** #else
 1420              		.loc 1 861 27 view .LVU434
 1421 003a 23F48763 		bic	r3, r3, #1080
 1422 003e 1B04     		lsls	r3, r3, #16
 1423 0040 1B0C     		lsrs	r3, r3, #16
ARM GAS  /tmp/cc47Teva.s 			page 47


 861:Drivers/display_ILI-93xx_sm/lcd.c **** #else
 1424              		.loc 1 861 45 view .LVU435
 1425 0042 00F00806 		and	r6, r0, #8
 861:Drivers/display_ILI-93xx_sm/lcd.c **** #else
 1426              		.loc 1 861 37 view .LVU436
 1427 0046 3343     		orrs	r3, r3, r6
 861:Drivers/display_ILI-93xx_sm/lcd.c **** #else
 1428              		.loc 1 861 70 view .LVU437
 1429 0048 05F02005 		and	r5, r5, #32
 861:Drivers/display_ILI-93xx_sm/lcd.c **** #else
 1430              		.loc 1 861 53 view .LVU438
 1431 004c 2B43     		orrs	r3, r3, r5
 861:Drivers/display_ILI-93xx_sm/lcd.c **** #else
 1432              		.loc 1 861 93 view .LVU439
 1433 004e 4510     		asrs	r5, r0, #1
 1434 0050 05F01005 		and	r5, r5, #16
 861:Drivers/display_ILI-93xx_sm/lcd.c **** #else
 1435              		.loc 1 861 76 view .LVU440
 1436 0054 2B43     		orrs	r3, r3, r5
 861:Drivers/display_ILI-93xx_sm/lcd.c **** #else
 1437              		.loc 1 861 116 view .LVU441
 1438 0056 0001     		lsls	r0, r0, #4
 1439              	.LVL75:
 861:Drivers/display_ILI-93xx_sm/lcd.c **** #else
 1440              		.loc 1 861 116 view .LVU442
 1441 0058 00F48060 		and	r0, r0, #1024
 861:Drivers/display_ILI-93xx_sm/lcd.c **** #else
 1442              		.loc 1 861 99 view .LVU443
 1443 005c 0343     		orrs	r3, r3, r0
 861:Drivers/display_ILI-93xx_sm/lcd.c **** #else
 1444              		.loc 1 861 13 view .LVU444
 1445 005e D360     		str	r3, [r2, #12]
 869:Drivers/display_ILI-93xx_sm/lcd.c **** }
 1446              		.loc 1 869 2 is_stmt 1 view .LVU445
 869:Drivers/display_ILI-93xx_sm/lcd.c **** }
 1447              		.loc 1 869 2 view .LVU446
 1448 0060 4FF40033 		mov	r3, #131072
 1449 0064 2361     		str	r3, [r4, #16]
 869:Drivers/display_ILI-93xx_sm/lcd.c **** }
 1450              		.loc 1 869 2 view .LVU447
 1451              	.LVL76:
 1452              	.LBB153:
 1453              	.LBI153:
 668:Drivers/display_ILI-93xx_sm/lcd.c **** 	for (; t; t--) __asm("nop");
 1454              		.loc 1 668 13 view .LVU448
 1455              	.LBB154:
 669:Drivers/display_ILI-93xx_sm/lcd.c **** }
 1456              		.loc 1 669 2 view .LVU449
 1457              	.LBE154:
 1458              	.LBE153:
 869:Drivers/display_ILI-93xx_sm/lcd.c **** }
 1459              		.loc 1 869 2 is_stmt 0 view .LVU450
 1460 0066 0223     		movs	r3, #2
 1461              	.LVL77:
 1462              	.L71:
 1463              	.LBB156:
 1464              	.LBB155:
ARM GAS  /tmp/cc47Teva.s 			page 48


 669:Drivers/display_ILI-93xx_sm/lcd.c **** }
 1465              		.loc 1 669 2 view .LVU451
 1466 0068 13B1     		cbz	r3, .L88
 669:Drivers/display_ILI-93xx_sm/lcd.c **** }
 1467              		.loc 1 669 17 is_stmt 1 view .LVU452
 1468              		.syntax unified
 1469              	@ 669 "Drivers/display_ILI-93xx_sm/lcd.c" 1
 1470 006a 00BF     		nop
 1471              	@ 0 "" 2
 669:Drivers/display_ILI-93xx_sm/lcd.c **** }
 1472              		.loc 1 669 13 is_stmt 0 view .LVU453
 1473              		.thumb
 1474              		.syntax unified
 1475 006c 013B     		subs	r3, r3, #1
 1476              	.LVL78:
 669:Drivers/display_ILI-93xx_sm/lcd.c **** }
 1477              		.loc 1 669 13 view .LVU454
 1478 006e FBE7     		b	.L71
 1479              	.L88:
 1480              	.LVL79:
 669:Drivers/display_ILI-93xx_sm/lcd.c **** }
 1481              		.loc 1 669 13 view .LVU455
 1482              	.LBE155:
 1483              	.LBE156:
 869:Drivers/display_ILI-93xx_sm/lcd.c **** }
 1484              		.loc 1 869 2 is_stmt 1 view .LVU456
 1485 0070 0223     		movs	r3, #2
 1486 0072 604A     		ldr	r2, .L95
 1487 0074 1361     		str	r3, [r2, #16]
 869:Drivers/display_ILI-93xx_sm/lcd.c **** }
 1488              		.loc 1 869 2 view .LVU457
 1489              	.LVL80:
 1490              	.LBB157:
 1491              	.LBI157:
 668:Drivers/display_ILI-93xx_sm/lcd.c **** 	for (; t; t--) __asm("nop");
 1492              		.loc 1 668 13 view .LVU458
 1493              	.L73:
 1494              	.LBB158:
 669:Drivers/display_ILI-93xx_sm/lcd.c **** }
 1495              		.loc 1 669 2 is_stmt 0 view .LVU459
 1496 0076 13B1     		cbz	r3, .L89
 669:Drivers/display_ILI-93xx_sm/lcd.c **** }
 1497              		.loc 1 669 17 is_stmt 1 view .LVU460
 1498              		.syntax unified
 1499              	@ 669 "Drivers/display_ILI-93xx_sm/lcd.c" 1
 1500 0078 00BF     		nop
 1501              	@ 0 "" 2
 669:Drivers/display_ILI-93xx_sm/lcd.c **** }
 1502              		.loc 1 669 13 is_stmt 0 view .LVU461
 1503              		.thumb
 1504              		.syntax unified
 1505 007a 013B     		subs	r3, r3, #1
 1506              	.LVL81:
 669:Drivers/display_ILI-93xx_sm/lcd.c **** }
 1507              		.loc 1 669 13 view .LVU462
 1508 007c FBE7     		b	.L73
 1509              	.L89:
ARM GAS  /tmp/cc47Teva.s 			page 49


 1510              	.LVL82:
 669:Drivers/display_ILI-93xx_sm/lcd.c **** }
 1511              		.loc 1 669 13 view .LVU463
 1512              	.LBE158:
 1513              	.LBE157:
 1514              	.LBE152:
 1515              	.LBE151:
 949:Drivers/display_ILI-93xx_sm/lcd.c **** 	LCD_CD_DATA();
 1516              		.loc 1 949 2 is_stmt 1 view .LVU464
 1517 007e 5D4C     		ldr	r4, .L95
 1518 0080 1023     		movs	r3, #16
 1519 0082 2361     		str	r3, [r4, #16]
 950:Drivers/display_ILI-93xx_sm/lcd.c **** 	LCD_Write8(d >> 16);
 1520              		.loc 1 950 2 view .LVU465
 1521 0084 C1F30743 		ubfx	r3, r1, #16, #8
 1522              	.LBB159:
 1523              	.LBI159:
 847:Drivers/display_ILI-93xx_sm/lcd.c **** 	// ------ PORT -----     --- Data ----
 1524              		.loc 1 847 13 view .LVU466
 1525              	.LBB160:
 860:Drivers/display_ILI-93xx_sm/lcd.c **** 	GPIOB->ODR = (GPIOB->ODR & 0xFBC7) | (data & 0x08) | ((data & 0x10) << 1) | ((data & 0x20) >> 1) |
 1526              		.loc 1 860 2 view .LVU467
 860:Drivers/display_ILI-93xx_sm/lcd.c **** 	GPIOB->ODR = (GPIOB->ODR & 0xFBC7) | (data & 0x08) | ((data & 0x10) << 1) | ((data & 0x20) >> 1) |
 1527              		.loc 1 860 21 is_stmt 0 view .LVU468
 1528 0088 E068     		ldr	r0, [r4, #12]
 860:Drivers/display_ILI-93xx_sm/lcd.c **** 	GPIOB->ODR = (GPIOB->ODR & 0xFBC7) | (data & 0x08) | ((data & 0x10) << 1) | ((data & 0x20) >> 1) |
 1529              		.loc 1 860 27 view .LVU469
 1530 008a 20F4F060 		bic	r0, r0, #1920
 1531 008e 0004     		lsls	r0, r0, #16
 1532 0090 000C     		lsrs	r0, r0, #16
 860:Drivers/display_ILI-93xx_sm/lcd.c **** 	GPIOB->ODR = (GPIOB->ODR & 0xFBC7) | (data & 0x08) | ((data & 0x10) << 1) | ((data & 0x20) >> 1) |
 1533              		.loc 1 860 54 view .LVU470
 1534 0092 5A02     		lsls	r2, r3, #9
 1535 0094 02F40072 		and	r2, r2, #512
 860:Drivers/display_ILI-93xx_sm/lcd.c **** 	GPIOB->ODR = (GPIOB->ODR & 0xFBC7) | (data & 0x08) | ((data & 0x10) << 1) | ((data & 0x20) >> 1) |
 1536              		.loc 1 860 37 view .LVU471
 1537 0098 1043     		orrs	r0, r0, r2
 860:Drivers/display_ILI-93xx_sm/lcd.c **** 	GPIOB->ODR = (GPIOB->ODR & 0xFBC7) | (data & 0x08) | ((data & 0x10) << 1) | ((data & 0x20) >> 1) |
 1538              		.loc 1 860 77 view .LVU472
 1539 009a 1A02     		lsls	r2, r3, #8
 1540 009c 02F48062 		and	r2, r2, #1024
 860:Drivers/display_ILI-93xx_sm/lcd.c **** 	GPIOB->ODR = (GPIOB->ODR & 0xFBC7) | (data & 0x08) | ((data & 0x10) << 1) | ((data & 0x20) >> 1) |
 1541              		.loc 1 860 60 view .LVU473
 1542 00a0 1043     		orrs	r0, r0, r2
 860:Drivers/display_ILI-93xx_sm/lcd.c **** 	GPIOB->ODR = (GPIOB->ODR & 0xFBC7) | (data & 0x08) | ((data & 0x10) << 1) | ((data & 0x20) >> 1) |
 1543              		.loc 1 860 100 view .LVU474
 1544 00a2 5D00     		lsls	r5, r3, #1
 1545 00a4 05F48072 		and	r2, r5, #256
 860:Drivers/display_ILI-93xx_sm/lcd.c **** 	GPIOB->ODR = (GPIOB->ODR & 0xFBC7) | (data & 0x08) | ((data & 0x10) << 1) | ((data & 0x20) >> 1) |
 1546              		.loc 1 860 83 view .LVU475
 1547 00a8 1043     		orrs	r0, r0, r2
 860:Drivers/display_ILI-93xx_sm/lcd.c **** 	GPIOB->ODR = (GPIOB->ODR & 0xFBC7) | (data & 0x08) | ((data & 0x10) << 1) | ((data & 0x20) >> 1) |
 1548              		.loc 1 860 123 view .LVU476
 1549 00aa 9A01     		lsls	r2, r3, #6
 1550 00ac 02F08002 		and	r2, r2, #128
 860:Drivers/display_ILI-93xx_sm/lcd.c **** 	GPIOB->ODR = (GPIOB->ODR & 0xFBC7) | (data & 0x08) | ((data & 0x10) << 1) | ((data & 0x20) >> 1) |
 1551              		.loc 1 860 106 view .LVU477
ARM GAS  /tmp/cc47Teva.s 			page 50


 1552 00b0 1043     		orrs	r0, r0, r2
 860:Drivers/display_ILI-93xx_sm/lcd.c **** 	GPIOB->ODR = (GPIOB->ODR & 0xFBC7) | (data & 0x08) | ((data & 0x10) << 1) | ((data & 0x20) >> 1) |
 1553              		.loc 1 860 13 view .LVU478
 1554 00b2 E060     		str	r0, [r4, #12]
 861:Drivers/display_ILI-93xx_sm/lcd.c **** #else
 1555              		.loc 1 861 2 is_stmt 1 view .LVU479
 861:Drivers/display_ILI-93xx_sm/lcd.c **** #else
 1556              		.loc 1 861 21 is_stmt 0 view .LVU480
 1557 00b4 5048     		ldr	r0, .L95+4
 1558 00b6 C268     		ldr	r2, [r0, #12]
 861:Drivers/display_ILI-93xx_sm/lcd.c **** #else
 1559              		.loc 1 861 27 view .LVU481
 1560 00b8 22F48762 		bic	r2, r2, #1080
 1561 00bc 1204     		lsls	r2, r2, #16
 1562 00be 120C     		lsrs	r2, r2, #16
 861:Drivers/display_ILI-93xx_sm/lcd.c **** #else
 1563              		.loc 1 861 45 view .LVU482
 1564 00c0 03F00806 		and	r6, r3, #8
 861:Drivers/display_ILI-93xx_sm/lcd.c **** #else
 1565              		.loc 1 861 37 view .LVU483
 1566 00c4 3243     		orrs	r2, r2, r6
 861:Drivers/display_ILI-93xx_sm/lcd.c **** #else
 1567              		.loc 1 861 70 view .LVU484
 1568 00c6 05F02005 		and	r5, r5, #32
 861:Drivers/display_ILI-93xx_sm/lcd.c **** #else
 1569              		.loc 1 861 53 view .LVU485
 1570 00ca 2A43     		orrs	r2, r2, r5
 861:Drivers/display_ILI-93xx_sm/lcd.c **** #else
 1571              		.loc 1 861 93 view .LVU486
 1572 00cc 5D10     		asrs	r5, r3, #1
 1573 00ce 05F01005 		and	r5, r5, #16
 861:Drivers/display_ILI-93xx_sm/lcd.c **** #else
 1574              		.loc 1 861 76 view .LVU487
 1575 00d2 2A43     		orrs	r2, r2, r5
 861:Drivers/display_ILI-93xx_sm/lcd.c **** #else
 1576              		.loc 1 861 116 view .LVU488
 1577 00d4 1B01     		lsls	r3, r3, #4
 1578 00d6 03F48063 		and	r3, r3, #1024
 861:Drivers/display_ILI-93xx_sm/lcd.c **** #else
 1579              		.loc 1 861 99 view .LVU489
 1580 00da 1343     		orrs	r3, r3, r2
 861:Drivers/display_ILI-93xx_sm/lcd.c **** #else
 1581              		.loc 1 861 13 view .LVU490
 1582 00dc C360     		str	r3, [r0, #12]
 869:Drivers/display_ILI-93xx_sm/lcd.c **** }
 1583              		.loc 1 869 2 is_stmt 1 view .LVU491
 869:Drivers/display_ILI-93xx_sm/lcd.c **** }
 1584              		.loc 1 869 2 view .LVU492
 1585 00de 4FF40033 		mov	r3, #131072
 1586 00e2 2361     		str	r3, [r4, #16]
 869:Drivers/display_ILI-93xx_sm/lcd.c **** }
 1587              		.loc 1 869 2 view .LVU493
 1588              	.LVL83:
 1589              	.LBB161:
 1590              	.LBI161:
 668:Drivers/display_ILI-93xx_sm/lcd.c **** 	for (; t; t--) __asm("nop");
 1591              		.loc 1 668 13 view .LVU494
ARM GAS  /tmp/cc47Teva.s 			page 51


 1592              	.LBB162:
 669:Drivers/display_ILI-93xx_sm/lcd.c **** }
 1593              		.loc 1 669 2 view .LVU495
 1594              	.LBE162:
 1595              	.LBE161:
 869:Drivers/display_ILI-93xx_sm/lcd.c **** }
 1596              		.loc 1 869 2 is_stmt 0 view .LVU496
 1597 00e4 0223     		movs	r3, #2
 1598              	.LVL84:
 1599              	.L75:
 1600              	.LBB164:
 1601              	.LBB163:
 669:Drivers/display_ILI-93xx_sm/lcd.c **** }
 1602              		.loc 1 669 2 view .LVU497
 1603 00e6 13B1     		cbz	r3, .L90
 669:Drivers/display_ILI-93xx_sm/lcd.c **** }
 1604              		.loc 1 669 17 is_stmt 1 view .LVU498
 1605              		.syntax unified
 1606              	@ 669 "Drivers/display_ILI-93xx_sm/lcd.c" 1
 1607 00e8 00BF     		nop
 1608              	@ 0 "" 2
 669:Drivers/display_ILI-93xx_sm/lcd.c **** }
 1609              		.loc 1 669 13 is_stmt 0 view .LVU499
 1610              		.thumb
 1611              		.syntax unified
 1612 00ea 013B     		subs	r3, r3, #1
 1613              	.LVL85:
 669:Drivers/display_ILI-93xx_sm/lcd.c **** }
 1614              		.loc 1 669 13 view .LVU500
 1615 00ec FBE7     		b	.L75
 1616              	.L90:
 1617              	.LVL86:
 669:Drivers/display_ILI-93xx_sm/lcd.c **** }
 1618              		.loc 1 669 13 view .LVU501
 1619              	.LBE163:
 1620              	.LBE164:
 869:Drivers/display_ILI-93xx_sm/lcd.c **** }
 1621              		.loc 1 869 2 is_stmt 1 view .LVU502
 1622 00ee 0223     		movs	r3, #2
 1623 00f0 404A     		ldr	r2, .L95
 1624 00f2 1361     		str	r3, [r2, #16]
 869:Drivers/display_ILI-93xx_sm/lcd.c **** }
 1625              		.loc 1 869 2 view .LVU503
 1626              	.LVL87:
 1627              	.LBB165:
 1628              	.LBI165:
 668:Drivers/display_ILI-93xx_sm/lcd.c **** 	for (; t; t--) __asm("nop");
 1629              		.loc 1 668 13 view .LVU504
 1630              	.L77:
 1631              	.LBB166:
 669:Drivers/display_ILI-93xx_sm/lcd.c **** }
 1632              		.loc 1 669 2 is_stmt 0 view .LVU505
 1633 00f4 13B1     		cbz	r3, .L91
 669:Drivers/display_ILI-93xx_sm/lcd.c **** }
 1634              		.loc 1 669 17 is_stmt 1 view .LVU506
 1635              		.syntax unified
 1636              	@ 669 "Drivers/display_ILI-93xx_sm/lcd.c" 1
ARM GAS  /tmp/cc47Teva.s 			page 52


 1637 00f6 00BF     		nop
 1638              	@ 0 "" 2
 669:Drivers/display_ILI-93xx_sm/lcd.c **** }
 1639              		.loc 1 669 13 is_stmt 0 view .LVU507
 1640              		.thumb
 1641              		.syntax unified
 1642 00f8 013B     		subs	r3, r3, #1
 1643              	.LVL88:
 669:Drivers/display_ILI-93xx_sm/lcd.c **** }
 1644              		.loc 1 669 13 view .LVU508
 1645 00fa FBE7     		b	.L77
 1646              	.L91:
 1647              	.LVL89:
 669:Drivers/display_ILI-93xx_sm/lcd.c **** }
 1648              		.loc 1 669 13 view .LVU509
 1649              	.LBE166:
 1650              	.LBE165:
 1651              	.LBE160:
 1652              	.LBE159:
 951:Drivers/display_ILI-93xx_sm/lcd.c **** 	LCD_Write8(d >> 8);
 1653              		.loc 1 951 2 is_stmt 1 view .LVU510
 1654 00fc C1F30723 		ubfx	r3, r1, #8, #8
 1655              	.LBB167:
 1656              	.LBI167:
 847:Drivers/display_ILI-93xx_sm/lcd.c **** 	// ------ PORT -----     --- Data ----
 1657              		.loc 1 847 13 view .LVU511
 1658              	.LBB168:
 860:Drivers/display_ILI-93xx_sm/lcd.c **** 	GPIOB->ODR = (GPIOB->ODR & 0xFBC7) | (data & 0x08) | ((data & 0x10) << 1) | ((data & 0x20) >> 1) |
 1659              		.loc 1 860 2 view .LVU512
 860:Drivers/display_ILI-93xx_sm/lcd.c **** 	GPIOB->ODR = (GPIOB->ODR & 0xFBC7) | (data & 0x08) | ((data & 0x10) << 1) | ((data & 0x20) >> 1) |
 1660              		.loc 1 860 21 is_stmt 0 view .LVU513
 1661 0100 3C4C     		ldr	r4, .L95
 1662 0102 E068     		ldr	r0, [r4, #12]
 860:Drivers/display_ILI-93xx_sm/lcd.c **** 	GPIOB->ODR = (GPIOB->ODR & 0xFBC7) | (data & 0x08) | ((data & 0x10) << 1) | ((data & 0x20) >> 1) |
 1663              		.loc 1 860 27 view .LVU514
 1664 0104 20F4F060 		bic	r0, r0, #1920
 1665 0108 0004     		lsls	r0, r0, #16
 1666 010a 000C     		lsrs	r0, r0, #16
 860:Drivers/display_ILI-93xx_sm/lcd.c **** 	GPIOB->ODR = (GPIOB->ODR & 0xFBC7) | (data & 0x08) | ((data & 0x10) << 1) | ((data & 0x20) >> 1) |
 1667              		.loc 1 860 54 view .LVU515
 1668 010c 5A02     		lsls	r2, r3, #9
 1669 010e 02F40072 		and	r2, r2, #512
 860:Drivers/display_ILI-93xx_sm/lcd.c **** 	GPIOB->ODR = (GPIOB->ODR & 0xFBC7) | (data & 0x08) | ((data & 0x10) << 1) | ((data & 0x20) >> 1) |
 1670              		.loc 1 860 37 view .LVU516
 1671 0112 1043     		orrs	r0, r0, r2
 860:Drivers/display_ILI-93xx_sm/lcd.c **** 	GPIOB->ODR = (GPIOB->ODR & 0xFBC7) | (data & 0x08) | ((data & 0x10) << 1) | ((data & 0x20) >> 1) |
 1672              		.loc 1 860 77 view .LVU517
 1673 0114 1A02     		lsls	r2, r3, #8
 1674 0116 02F48062 		and	r2, r2, #1024
 860:Drivers/display_ILI-93xx_sm/lcd.c **** 	GPIOB->ODR = (GPIOB->ODR & 0xFBC7) | (data & 0x08) | ((data & 0x10) << 1) | ((data & 0x20) >> 1) |
 1675              		.loc 1 860 60 view .LVU518
 1676 011a 1043     		orrs	r0, r0, r2
 860:Drivers/display_ILI-93xx_sm/lcd.c **** 	GPIOB->ODR = (GPIOB->ODR & 0xFBC7) | (data & 0x08) | ((data & 0x10) << 1) | ((data & 0x20) >> 1) |
 1677              		.loc 1 860 100 view .LVU519
 1678 011c 5D00     		lsls	r5, r3, #1
 1679 011e 05F48072 		and	r2, r5, #256
 860:Drivers/display_ILI-93xx_sm/lcd.c **** 	GPIOB->ODR = (GPIOB->ODR & 0xFBC7) | (data & 0x08) | ((data & 0x10) << 1) | ((data & 0x20) >> 1) |
ARM GAS  /tmp/cc47Teva.s 			page 53


 1680              		.loc 1 860 83 view .LVU520
 1681 0122 1043     		orrs	r0, r0, r2
 860:Drivers/display_ILI-93xx_sm/lcd.c **** 	GPIOB->ODR = (GPIOB->ODR & 0xFBC7) | (data & 0x08) | ((data & 0x10) << 1) | ((data & 0x20) >> 1) |
 1682              		.loc 1 860 123 view .LVU521
 1683 0124 9A01     		lsls	r2, r3, #6
 1684 0126 02F08002 		and	r2, r2, #128
 860:Drivers/display_ILI-93xx_sm/lcd.c **** 	GPIOB->ODR = (GPIOB->ODR & 0xFBC7) | (data & 0x08) | ((data & 0x10) << 1) | ((data & 0x20) >> 1) |
 1685              		.loc 1 860 106 view .LVU522
 1686 012a 1043     		orrs	r0, r0, r2
 860:Drivers/display_ILI-93xx_sm/lcd.c **** 	GPIOB->ODR = (GPIOB->ODR & 0xFBC7) | (data & 0x08) | ((data & 0x10) << 1) | ((data & 0x20) >> 1) |
 1687              		.loc 1 860 13 view .LVU523
 1688 012c E060     		str	r0, [r4, #12]
 861:Drivers/display_ILI-93xx_sm/lcd.c **** #else
 1689              		.loc 1 861 2 is_stmt 1 view .LVU524
 861:Drivers/display_ILI-93xx_sm/lcd.c **** #else
 1690              		.loc 1 861 21 is_stmt 0 view .LVU525
 1691 012e 3248     		ldr	r0, .L95+4
 1692 0130 C268     		ldr	r2, [r0, #12]
 861:Drivers/display_ILI-93xx_sm/lcd.c **** #else
 1693              		.loc 1 861 27 view .LVU526
 1694 0132 22F48762 		bic	r2, r2, #1080
 1695 0136 1204     		lsls	r2, r2, #16
 1696 0138 120C     		lsrs	r2, r2, #16
 861:Drivers/display_ILI-93xx_sm/lcd.c **** #else
 1697              		.loc 1 861 45 view .LVU527
 1698 013a 03F00806 		and	r6, r3, #8
 861:Drivers/display_ILI-93xx_sm/lcd.c **** #else
 1699              		.loc 1 861 37 view .LVU528
 1700 013e 3243     		orrs	r2, r2, r6
 861:Drivers/display_ILI-93xx_sm/lcd.c **** #else
 1701              		.loc 1 861 70 view .LVU529
 1702 0140 05F02005 		and	r5, r5, #32
 861:Drivers/display_ILI-93xx_sm/lcd.c **** #else
 1703              		.loc 1 861 53 view .LVU530
 1704 0144 2A43     		orrs	r2, r2, r5
 861:Drivers/display_ILI-93xx_sm/lcd.c **** #else
 1705              		.loc 1 861 93 view .LVU531
 1706 0146 5D10     		asrs	r5, r3, #1
 1707 0148 05F01005 		and	r5, r5, #16
 861:Drivers/display_ILI-93xx_sm/lcd.c **** #else
 1708              		.loc 1 861 76 view .LVU532
 1709 014c 2A43     		orrs	r2, r2, r5
 861:Drivers/display_ILI-93xx_sm/lcd.c **** #else
 1710              		.loc 1 861 116 view .LVU533
 1711 014e 1B01     		lsls	r3, r3, #4
 1712 0150 03F48063 		and	r3, r3, #1024
 861:Drivers/display_ILI-93xx_sm/lcd.c **** #else
 1713              		.loc 1 861 99 view .LVU534
 1714 0154 1343     		orrs	r3, r3, r2
 861:Drivers/display_ILI-93xx_sm/lcd.c **** #else
 1715              		.loc 1 861 13 view .LVU535
 1716 0156 C360     		str	r3, [r0, #12]
 869:Drivers/display_ILI-93xx_sm/lcd.c **** }
 1717              		.loc 1 869 2 is_stmt 1 view .LVU536
 869:Drivers/display_ILI-93xx_sm/lcd.c **** }
 1718              		.loc 1 869 2 view .LVU537
 1719 0158 4FF40033 		mov	r3, #131072
ARM GAS  /tmp/cc47Teva.s 			page 54


 1720 015c 2361     		str	r3, [r4, #16]
 869:Drivers/display_ILI-93xx_sm/lcd.c **** }
 1721              		.loc 1 869 2 view .LVU538
 1722              	.LVL90:
 1723              	.LBB169:
 1724              	.LBI169:
 668:Drivers/display_ILI-93xx_sm/lcd.c **** 	for (; t; t--) __asm("nop");
 1725              		.loc 1 668 13 view .LVU539
 1726              	.LBB170:
 669:Drivers/display_ILI-93xx_sm/lcd.c **** }
 1727              		.loc 1 669 2 view .LVU540
 1728              	.LBE170:
 1729              	.LBE169:
 869:Drivers/display_ILI-93xx_sm/lcd.c **** }
 1730              		.loc 1 869 2 is_stmt 0 view .LVU541
 1731 015e 0223     		movs	r3, #2
 1732              	.LVL91:
 1733              	.L79:
 1734              	.LBB172:
 1735              	.LBB171:
 669:Drivers/display_ILI-93xx_sm/lcd.c **** }
 1736              		.loc 1 669 2 view .LVU542
 1737 0160 13B1     		cbz	r3, .L92
 669:Drivers/display_ILI-93xx_sm/lcd.c **** }
 1738              		.loc 1 669 17 is_stmt 1 view .LVU543
 1739              		.syntax unified
 1740              	@ 669 "Drivers/display_ILI-93xx_sm/lcd.c" 1
 1741 0162 00BF     		nop
 1742              	@ 0 "" 2
 669:Drivers/display_ILI-93xx_sm/lcd.c **** }
 1743              		.loc 1 669 13 is_stmt 0 view .LVU544
 1744              		.thumb
 1745              		.syntax unified
 1746 0164 013B     		subs	r3, r3, #1
 1747              	.LVL92:
 669:Drivers/display_ILI-93xx_sm/lcd.c **** }
 1748              		.loc 1 669 13 view .LVU545
 1749 0166 FBE7     		b	.L79
 1750              	.L92:
 1751              	.LVL93:
 669:Drivers/display_ILI-93xx_sm/lcd.c **** }
 1752              		.loc 1 669 13 view .LVU546
 1753              	.LBE171:
 1754              	.LBE172:
 869:Drivers/display_ILI-93xx_sm/lcd.c **** }
 1755              		.loc 1 869 2 is_stmt 1 view .LVU547
 1756 0168 0223     		movs	r3, #2
 1757 016a 224A     		ldr	r2, .L95
 1758 016c 1361     		str	r3, [r2, #16]
 869:Drivers/display_ILI-93xx_sm/lcd.c **** }
 1759              		.loc 1 869 2 view .LVU548
 1760              	.LVL94:
 1761              	.LBB173:
 1762              	.LBI173:
 668:Drivers/display_ILI-93xx_sm/lcd.c **** 	for (; t; t--) __asm("nop");
 1763              		.loc 1 668 13 view .LVU549
 1764              	.L81:
ARM GAS  /tmp/cc47Teva.s 			page 55


 1765              	.LBB174:
 669:Drivers/display_ILI-93xx_sm/lcd.c **** }
 1766              		.loc 1 669 2 is_stmt 0 view .LVU550
 1767 016e 13B1     		cbz	r3, .L93
 669:Drivers/display_ILI-93xx_sm/lcd.c **** }
 1768              		.loc 1 669 17 is_stmt 1 view .LVU551
 1769              		.syntax unified
 1770              	@ 669 "Drivers/display_ILI-93xx_sm/lcd.c" 1
 1771 0170 00BF     		nop
 1772              	@ 0 "" 2
 669:Drivers/display_ILI-93xx_sm/lcd.c **** }
 1773              		.loc 1 669 13 is_stmt 0 view .LVU552
 1774              		.thumb
 1775              		.syntax unified
 1776 0172 013B     		subs	r3, r3, #1
 1777              	.LVL95:
 669:Drivers/display_ILI-93xx_sm/lcd.c **** }
 1778              		.loc 1 669 13 view .LVU553
 1779 0174 FBE7     		b	.L81
 1780              	.L93:
 1781              	.LVL96:
 669:Drivers/display_ILI-93xx_sm/lcd.c **** }
 1782              		.loc 1 669 13 view .LVU554
 1783              	.LBE174:
 1784              	.LBE173:
 1785              	.LBE168:
 1786              	.LBE167:
 952:Drivers/display_ILI-93xx_sm/lcd.c **** 	LCD_Write8(d);
 1787              		.loc 1 952 2 is_stmt 1 view .LVU555
 1788 0176 C9B2     		uxtb	r1, r1
 1789              	.LVL97:
 1790              	.LBB175:
 1791              	.LBI175:
 847:Drivers/display_ILI-93xx_sm/lcd.c **** 	// ------ PORT -----     --- Data ----
 1792              		.loc 1 847 13 view .LVU556
 1793              	.LBB176:
 860:Drivers/display_ILI-93xx_sm/lcd.c **** 	GPIOB->ODR = (GPIOB->ODR & 0xFBC7) | (data & 0x08) | ((data & 0x10) << 1) | ((data & 0x20) >> 1) |
 1794              		.loc 1 860 2 view .LVU557
 860:Drivers/display_ILI-93xx_sm/lcd.c **** 	GPIOB->ODR = (GPIOB->ODR & 0xFBC7) | (data & 0x08) | ((data & 0x10) << 1) | ((data & 0x20) >> 1) |
 1795              		.loc 1 860 21 is_stmt 0 view .LVU558
 1796 0178 1E48     		ldr	r0, .L95
 1797 017a C268     		ldr	r2, [r0, #12]
 860:Drivers/display_ILI-93xx_sm/lcd.c **** 	GPIOB->ODR = (GPIOB->ODR & 0xFBC7) | (data & 0x08) | ((data & 0x10) << 1) | ((data & 0x20) >> 1) |
 1798              		.loc 1 860 27 view .LVU559
 1799 017c 22F4F062 		bic	r2, r2, #1920
 1800 0180 1204     		lsls	r2, r2, #16
 1801 0182 120C     		lsrs	r2, r2, #16
 860:Drivers/display_ILI-93xx_sm/lcd.c **** 	GPIOB->ODR = (GPIOB->ODR & 0xFBC7) | (data & 0x08) | ((data & 0x10) << 1) | ((data & 0x20) >> 1) |
 1802              		.loc 1 860 54 view .LVU560
 1803 0184 4B02     		lsls	r3, r1, #9
 1804 0186 03F40073 		and	r3, r3, #512
 860:Drivers/display_ILI-93xx_sm/lcd.c **** 	GPIOB->ODR = (GPIOB->ODR & 0xFBC7) | (data & 0x08) | ((data & 0x10) << 1) | ((data & 0x20) >> 1) |
 1805              		.loc 1 860 37 view .LVU561
 1806 018a 1A43     		orrs	r2, r2, r3
 860:Drivers/display_ILI-93xx_sm/lcd.c **** 	GPIOB->ODR = (GPIOB->ODR & 0xFBC7) | (data & 0x08) | ((data & 0x10) << 1) | ((data & 0x20) >> 1) |
 1807              		.loc 1 860 77 view .LVU562
 1808 018c 0B02     		lsls	r3, r1, #8
ARM GAS  /tmp/cc47Teva.s 			page 56


 1809 018e 03F48063 		and	r3, r3, #1024
 860:Drivers/display_ILI-93xx_sm/lcd.c **** 	GPIOB->ODR = (GPIOB->ODR & 0xFBC7) | (data & 0x08) | ((data & 0x10) << 1) | ((data & 0x20) >> 1) |
 1810              		.loc 1 860 60 view .LVU563
 1811 0192 1A43     		orrs	r2, r2, r3
 860:Drivers/display_ILI-93xx_sm/lcd.c **** 	GPIOB->ODR = (GPIOB->ODR & 0xFBC7) | (data & 0x08) | ((data & 0x10) << 1) | ((data & 0x20) >> 1) |
 1812              		.loc 1 860 100 view .LVU564
 1813 0194 4C00     		lsls	r4, r1, #1
 1814 0196 04F48073 		and	r3, r4, #256
 860:Drivers/display_ILI-93xx_sm/lcd.c **** 	GPIOB->ODR = (GPIOB->ODR & 0xFBC7) | (data & 0x08) | ((data & 0x10) << 1) | ((data & 0x20) >> 1) |
 1815              		.loc 1 860 83 view .LVU565
 1816 019a 1A43     		orrs	r2, r2, r3
 860:Drivers/display_ILI-93xx_sm/lcd.c **** 	GPIOB->ODR = (GPIOB->ODR & 0xFBC7) | (data & 0x08) | ((data & 0x10) << 1) | ((data & 0x20) >> 1) |
 1817              		.loc 1 860 123 view .LVU566
 1818 019c 8B01     		lsls	r3, r1, #6
 1819 019e 03F08003 		and	r3, r3, #128
 860:Drivers/display_ILI-93xx_sm/lcd.c **** 	GPIOB->ODR = (GPIOB->ODR & 0xFBC7) | (data & 0x08) | ((data & 0x10) << 1) | ((data & 0x20) >> 1) |
 1820              		.loc 1 860 106 view .LVU567
 1821 01a2 1A43     		orrs	r2, r2, r3
 860:Drivers/display_ILI-93xx_sm/lcd.c **** 	GPIOB->ODR = (GPIOB->ODR & 0xFBC7) | (data & 0x08) | ((data & 0x10) << 1) | ((data & 0x20) >> 1) |
 1822              		.loc 1 860 13 view .LVU568
 1823 01a4 C260     		str	r2, [r0, #12]
 861:Drivers/display_ILI-93xx_sm/lcd.c **** #else
 1824              		.loc 1 861 2 is_stmt 1 view .LVU569
 861:Drivers/display_ILI-93xx_sm/lcd.c **** #else
 1825              		.loc 1 861 21 is_stmt 0 view .LVU570
 1826 01a6 144D     		ldr	r5, .L95+4
 1827 01a8 EB68     		ldr	r3, [r5, #12]
 861:Drivers/display_ILI-93xx_sm/lcd.c **** #else
 1828              		.loc 1 861 27 view .LVU571
 1829 01aa 23F48763 		bic	r3, r3, #1080
 1830 01ae 1B04     		lsls	r3, r3, #16
 1831 01b0 1B0C     		lsrs	r3, r3, #16
 861:Drivers/display_ILI-93xx_sm/lcd.c **** #else
 1832              		.loc 1 861 45 view .LVU572
 1833 01b2 01F00802 		and	r2, r1, #8
 861:Drivers/display_ILI-93xx_sm/lcd.c **** #else
 1834              		.loc 1 861 37 view .LVU573
 1835 01b6 1343     		orrs	r3, r3, r2
 861:Drivers/display_ILI-93xx_sm/lcd.c **** #else
 1836              		.loc 1 861 70 view .LVU574
 1837 01b8 04F02004 		and	r4, r4, #32
 861:Drivers/display_ILI-93xx_sm/lcd.c **** #else
 1838              		.loc 1 861 53 view .LVU575
 1839 01bc 2343     		orrs	r3, r3, r4
 861:Drivers/display_ILI-93xx_sm/lcd.c **** #else
 1840              		.loc 1 861 93 view .LVU576
 1841 01be 4A10     		asrs	r2, r1, #1
 1842 01c0 02F01002 		and	r2, r2, #16
 861:Drivers/display_ILI-93xx_sm/lcd.c **** #else
 1843              		.loc 1 861 76 view .LVU577
 1844 01c4 1343     		orrs	r3, r3, r2
 861:Drivers/display_ILI-93xx_sm/lcd.c **** #else
 1845              		.loc 1 861 116 view .LVU578
 1846 01c6 0901     		lsls	r1, r1, #4
 1847              	.LVL98:
 861:Drivers/display_ILI-93xx_sm/lcd.c **** #else
 1848              		.loc 1 861 116 view .LVU579
ARM GAS  /tmp/cc47Teva.s 			page 57


 1849 01c8 01F48061 		and	r1, r1, #1024
 861:Drivers/display_ILI-93xx_sm/lcd.c **** #else
 1850              		.loc 1 861 99 view .LVU580
 1851 01cc 1943     		orrs	r1, r1, r3
 861:Drivers/display_ILI-93xx_sm/lcd.c **** #else
 1852              		.loc 1 861 13 view .LVU581
 1853 01ce E960     		str	r1, [r5, #12]
 869:Drivers/display_ILI-93xx_sm/lcd.c **** }
 1854              		.loc 1 869 2 is_stmt 1 view .LVU582
 869:Drivers/display_ILI-93xx_sm/lcd.c **** }
 1855              		.loc 1 869 2 view .LVU583
 1856 01d0 4FF40033 		mov	r3, #131072
 1857 01d4 0361     		str	r3, [r0, #16]
 869:Drivers/display_ILI-93xx_sm/lcd.c **** }
 1858              		.loc 1 869 2 view .LVU584
 1859              	.LVL99:
 1860              	.LBB177:
 1861              	.LBI177:
 668:Drivers/display_ILI-93xx_sm/lcd.c **** 	for (; t; t--) __asm("nop");
 1862              		.loc 1 668 13 view .LVU585
 1863              	.LBB178:
 669:Drivers/display_ILI-93xx_sm/lcd.c **** }
 1864              		.loc 1 669 2 view .LVU586
 1865              	.LBE178:
 1866              	.LBE177:
 869:Drivers/display_ILI-93xx_sm/lcd.c **** }
 1867              		.loc 1 869 2 is_stmt 0 view .LVU587
 1868 01d6 0223     		movs	r3, #2
 1869              	.LVL100:
 1870              	.L83:
 1871              	.LBB180:
 1872              	.LBB179:
 669:Drivers/display_ILI-93xx_sm/lcd.c **** }
 1873              		.loc 1 669 2 view .LVU588
 1874 01d8 13B1     		cbz	r3, .L94
 669:Drivers/display_ILI-93xx_sm/lcd.c **** }
 1875              		.loc 1 669 17 is_stmt 1 view .LVU589
 1876              		.syntax unified
 1877              	@ 669 "Drivers/display_ILI-93xx_sm/lcd.c" 1
 1878 01da 00BF     		nop
 1879              	@ 0 "" 2
 669:Drivers/display_ILI-93xx_sm/lcd.c **** }
 1880              		.loc 1 669 13 is_stmt 0 view .LVU590
 1881              		.thumb
 1882              		.syntax unified
 1883 01dc 013B     		subs	r3, r3, #1
 1884              	.LVL101:
 669:Drivers/display_ILI-93xx_sm/lcd.c **** }
 1885              		.loc 1 669 13 view .LVU591
 1886 01de FBE7     		b	.L83
 1887              	.L94:
 1888              	.LVL102:
 669:Drivers/display_ILI-93xx_sm/lcd.c **** }
 1889              		.loc 1 669 13 view .LVU592
 1890              	.LBE179:
 1891              	.LBE180:
 869:Drivers/display_ILI-93xx_sm/lcd.c **** }
ARM GAS  /tmp/cc47Teva.s 			page 58


 1892              		.loc 1 869 2 is_stmt 1 view .LVU593
 1893 01e0 0223     		movs	r3, #2
 1894 01e2 044A     		ldr	r2, .L95
 1895 01e4 1361     		str	r3, [r2, #16]
 869:Drivers/display_ILI-93xx_sm/lcd.c **** }
 1896              		.loc 1 869 2 view .LVU594
 1897              	.LVL103:
 1898              	.LBB181:
 1899              	.LBI181:
 668:Drivers/display_ILI-93xx_sm/lcd.c **** 	for (; t; t--) __asm("nop");
 1900              		.loc 1 668 13 view .LVU595
 1901 01e6 01E0     		b	.L85
 1902              	.LVL104:
 1903              	.L86:
 1904              	.LBB182:
 669:Drivers/display_ILI-93xx_sm/lcd.c **** }
 1905              		.loc 1 669 17 view .LVU596
 1906              		.syntax unified
 1907              	@ 669 "Drivers/display_ILI-93xx_sm/lcd.c" 1
 1908 01e8 00BF     		nop
 1909              	@ 0 "" 2
 669:Drivers/display_ILI-93xx_sm/lcd.c **** }
 1910              		.loc 1 669 13 is_stmt 0 view .LVU597
 1911              		.thumb
 1912              		.syntax unified
 1913 01ea 013B     		subs	r3, r3, #1
 1914              	.LVL105:
 1915              	.L85:
 669:Drivers/display_ILI-93xx_sm/lcd.c **** }
 1916              		.loc 1 669 2 view .LVU598
 1917 01ec 002B     		cmp	r3, #0
 1918 01ee FBD1     		bne	.L86
 1919              	.LBE182:
 1920              	.LBE181:
 1921              	.LBE176:
 1922              	.LBE175:
 953:Drivers/display_ILI-93xx_sm/lcd.c **** }
 1923              		.loc 1 953 1 view .LVU599
 1924 01f0 70BC     		pop	{r4, r5, r6}
 1925              	.LCFI10:
 1926              		.cfi_restore 6
 1927              		.cfi_restore 5
 1928              		.cfi_restore 4
 1929              		.cfi_def_cfa_offset 0
 1930 01f2 7047     		bx	lr
 1931              	.L96:
 1932              		.align	2
 1933              	.L95:
 1934 01f4 00080140 		.word	1073809408
 1935 01f8 000C0140 		.word	1073810432
 1936              		.cfi_endproc
 1937              	.LFE74:
 1939              		.section	.text.LCD_Write32Register8,"ax",%progbits
 1940              		.align	1
 1941              		.global	LCD_Write32Register8
 1942              		.syntax unified
 1943              		.thumb
ARM GAS  /tmp/cc47Teva.s 			page 59


 1944              		.thumb_func
 1945              		.fpu softvfp
 1947              	LCD_Write32Register8:
 1948              	.LVL106:
 1949              	.LFB75:
 954:Drivers/display_ILI-93xx_sm/lcd.c **** 
 955:Drivers/display_ILI-93xx_sm/lcd.c **** /**
 956:Drivers/display_ILI-93xx_sm/lcd.c ****  * \brief Writes 32-Bit data to register (8-bit address)
 957:Drivers/display_ILI-93xx_sm/lcd.c ****  *
 958:Drivers/display_ILI-93xx_sm/lcd.c ****  * \param a		Register
 959:Drivers/display_ILI-93xx_sm/lcd.c ****  * \param d		Data
 960:Drivers/display_ILI-93xx_sm/lcd.c ****  *
 961:Drivers/display_ILI-93xx_sm/lcd.c ****  * \return void
 962:Drivers/display_ILI-93xx_sm/lcd.c ****  */
 963:Drivers/display_ILI-93xx_sm/lcd.c **** inline void LCD_Write32Register8(uint8_t a, uint32_t d) {
 1950              		.loc 1 963 57 is_stmt 1 view -0
 1951              		.cfi_startproc
 1952              		@ args = 0, pretend = 0, frame = 0
 1953              		@ frame_needed = 0, uses_anonymous_args = 0
 1954              		@ link register save eliminated.
 1955              		.loc 1 963 57 is_stmt 0 view .LVU601
 1956 0000 70B4     		push	{r4, r5, r6}
 1957              	.LCFI11:
 1958              		.cfi_def_cfa_offset 12
 1959              		.cfi_offset 4, -12
 1960              		.cfi_offset 5, -8
 1961              		.cfi_offset 6, -4
 964:Drivers/display_ILI-93xx_sm/lcd.c **** 	LCD_CD_COMMAND();
 1962              		.loc 1 964 2 is_stmt 1 view .LVU602
 1963 0002 9A4C     		ldr	r4, .L128
 1964 0004 4FF48013 		mov	r3, #1048576
 1965 0008 2361     		str	r3, [r4, #16]
 965:Drivers/display_ILI-93xx_sm/lcd.c **** 	LCD_Write8(a);
 1966              		.loc 1 965 2 view .LVU603
 1967              	.LVL107:
 1968              	.LBB213:
 1969              	.LBI213:
 847:Drivers/display_ILI-93xx_sm/lcd.c **** 	// ------ PORT -----     --- Data ----
 1970              		.loc 1 847 13 view .LVU604
 1971              	.LBB214:
 860:Drivers/display_ILI-93xx_sm/lcd.c **** 	GPIOB->ODR = (GPIOB->ODR & 0xFBC7) | (data & 0x08) | ((data & 0x10) << 1) | ((data & 0x20) >> 1) |
 1972              		.loc 1 860 2 view .LVU605
 860:Drivers/display_ILI-93xx_sm/lcd.c **** 	GPIOB->ODR = (GPIOB->ODR & 0xFBC7) | (data & 0x08) | ((data & 0x10) << 1) | ((data & 0x20) >> 1) |
 1973              		.loc 1 860 21 is_stmt 0 view .LVU606
 1974 000a E268     		ldr	r2, [r4, #12]
 860:Drivers/display_ILI-93xx_sm/lcd.c **** 	GPIOB->ODR = (GPIOB->ODR & 0xFBC7) | (data & 0x08) | ((data & 0x10) << 1) | ((data & 0x20) >> 1) |
 1975              		.loc 1 860 27 view .LVU607
 1976 000c 22F4F062 		bic	r2, r2, #1920
 1977 0010 1204     		lsls	r2, r2, #16
 1978 0012 120C     		lsrs	r2, r2, #16
 860:Drivers/display_ILI-93xx_sm/lcd.c **** 	GPIOB->ODR = (GPIOB->ODR & 0xFBC7) | (data & 0x08) | ((data & 0x10) << 1) | ((data & 0x20) >> 1) |
 1979              		.loc 1 860 54 view .LVU608
 1980 0014 4302     		lsls	r3, r0, #9
 1981 0016 03F40073 		and	r3, r3, #512
 860:Drivers/display_ILI-93xx_sm/lcd.c **** 	GPIOB->ODR = (GPIOB->ODR & 0xFBC7) | (data & 0x08) | ((data & 0x10) << 1) | ((data & 0x20) >> 1) |
 1982              		.loc 1 860 37 view .LVU609
 1983 001a 1A43     		orrs	r2, r2, r3
ARM GAS  /tmp/cc47Teva.s 			page 60


 860:Drivers/display_ILI-93xx_sm/lcd.c **** 	GPIOB->ODR = (GPIOB->ODR & 0xFBC7) | (data & 0x08) | ((data & 0x10) << 1) | ((data & 0x20) >> 1) |
 1984              		.loc 1 860 77 view .LVU610
 1985 001c 0302     		lsls	r3, r0, #8
 1986 001e 03F48063 		and	r3, r3, #1024
 860:Drivers/display_ILI-93xx_sm/lcd.c **** 	GPIOB->ODR = (GPIOB->ODR & 0xFBC7) | (data & 0x08) | ((data & 0x10) << 1) | ((data & 0x20) >> 1) |
 1987              		.loc 1 860 60 view .LVU611
 1988 0022 1A43     		orrs	r2, r2, r3
 860:Drivers/display_ILI-93xx_sm/lcd.c **** 	GPIOB->ODR = (GPIOB->ODR & 0xFBC7) | (data & 0x08) | ((data & 0x10) << 1) | ((data & 0x20) >> 1) |
 1989              		.loc 1 860 100 view .LVU612
 1990 0024 4500     		lsls	r5, r0, #1
 1991 0026 05F48073 		and	r3, r5, #256
 860:Drivers/display_ILI-93xx_sm/lcd.c **** 	GPIOB->ODR = (GPIOB->ODR & 0xFBC7) | (data & 0x08) | ((data & 0x10) << 1) | ((data & 0x20) >> 1) |
 1992              		.loc 1 860 83 view .LVU613
 1993 002a 1A43     		orrs	r2, r2, r3
 860:Drivers/display_ILI-93xx_sm/lcd.c **** 	GPIOB->ODR = (GPIOB->ODR & 0xFBC7) | (data & 0x08) | ((data & 0x10) << 1) | ((data & 0x20) >> 1) |
 1994              		.loc 1 860 123 view .LVU614
 1995 002c 8301     		lsls	r3, r0, #6
 1996 002e 03F08003 		and	r3, r3, #128
 860:Drivers/display_ILI-93xx_sm/lcd.c **** 	GPIOB->ODR = (GPIOB->ODR & 0xFBC7) | (data & 0x08) | ((data & 0x10) << 1) | ((data & 0x20) >> 1) |
 1997              		.loc 1 860 106 view .LVU615
 1998 0032 1A43     		orrs	r2, r2, r3
 860:Drivers/display_ILI-93xx_sm/lcd.c **** 	GPIOB->ODR = (GPIOB->ODR & 0xFBC7) | (data & 0x08) | ((data & 0x10) << 1) | ((data & 0x20) >> 1) |
 1999              		.loc 1 860 13 view .LVU616
 2000 0034 E260     		str	r2, [r4, #12]
 861:Drivers/display_ILI-93xx_sm/lcd.c **** #else
 2001              		.loc 1 861 2 is_stmt 1 view .LVU617
 861:Drivers/display_ILI-93xx_sm/lcd.c **** #else
 2002              		.loc 1 861 21 is_stmt 0 view .LVU618
 2003 0036 8E4A     		ldr	r2, .L128+4
 2004 0038 D368     		ldr	r3, [r2, #12]
 861:Drivers/display_ILI-93xx_sm/lcd.c **** #else
 2005              		.loc 1 861 27 view .LVU619
 2006 003a 23F48763 		bic	r3, r3, #1080
 2007 003e 1B04     		lsls	r3, r3, #16
 2008 0040 1B0C     		lsrs	r3, r3, #16
 861:Drivers/display_ILI-93xx_sm/lcd.c **** #else
 2009              		.loc 1 861 45 view .LVU620
 2010 0042 00F00806 		and	r6, r0, #8
 861:Drivers/display_ILI-93xx_sm/lcd.c **** #else
 2011              		.loc 1 861 37 view .LVU621
 2012 0046 3343     		orrs	r3, r3, r6
 861:Drivers/display_ILI-93xx_sm/lcd.c **** #else
 2013              		.loc 1 861 70 view .LVU622
 2014 0048 05F02005 		and	r5, r5, #32
 861:Drivers/display_ILI-93xx_sm/lcd.c **** #else
 2015              		.loc 1 861 53 view .LVU623
 2016 004c 2B43     		orrs	r3, r3, r5
 861:Drivers/display_ILI-93xx_sm/lcd.c **** #else
 2017              		.loc 1 861 93 view .LVU624
 2018 004e 4510     		asrs	r5, r0, #1
 2019 0050 05F01005 		and	r5, r5, #16
 861:Drivers/display_ILI-93xx_sm/lcd.c **** #else
 2020              		.loc 1 861 76 view .LVU625
 2021 0054 2B43     		orrs	r3, r3, r5
 861:Drivers/display_ILI-93xx_sm/lcd.c **** #else
 2022              		.loc 1 861 116 view .LVU626
 2023 0056 0001     		lsls	r0, r0, #4
ARM GAS  /tmp/cc47Teva.s 			page 61


 2024              	.LVL108:
 861:Drivers/display_ILI-93xx_sm/lcd.c **** #else
 2025              		.loc 1 861 116 view .LVU627
 2026 0058 00F48060 		and	r0, r0, #1024
 861:Drivers/display_ILI-93xx_sm/lcd.c **** #else
 2027              		.loc 1 861 99 view .LVU628
 2028 005c 0343     		orrs	r3, r3, r0
 861:Drivers/display_ILI-93xx_sm/lcd.c **** #else
 2029              		.loc 1 861 13 view .LVU629
 2030 005e D360     		str	r3, [r2, #12]
 869:Drivers/display_ILI-93xx_sm/lcd.c **** }
 2031              		.loc 1 869 2 is_stmt 1 view .LVU630
 869:Drivers/display_ILI-93xx_sm/lcd.c **** }
 2032              		.loc 1 869 2 view .LVU631
 2033 0060 4FF40033 		mov	r3, #131072
 2034 0064 2361     		str	r3, [r4, #16]
 869:Drivers/display_ILI-93xx_sm/lcd.c **** }
 2035              		.loc 1 869 2 view .LVU632
 2036              	.LVL109:
 2037              	.LBB215:
 2038              	.LBI215:
 668:Drivers/display_ILI-93xx_sm/lcd.c **** 	for (; t; t--) __asm("nop");
 2039              		.loc 1 668 13 view .LVU633
 2040              	.LBB216:
 669:Drivers/display_ILI-93xx_sm/lcd.c **** }
 2041              		.loc 1 669 2 view .LVU634
 2042              	.LBE216:
 2043              	.LBE215:
 869:Drivers/display_ILI-93xx_sm/lcd.c **** }
 2044              		.loc 1 869 2 is_stmt 0 view .LVU635
 2045 0066 0223     		movs	r3, #2
 2046              	.LVL110:
 2047              	.L98:
 2048              	.LBB218:
 2049              	.LBB217:
 669:Drivers/display_ILI-93xx_sm/lcd.c **** }
 2050              		.loc 1 669 2 view .LVU636
 2051 0068 13B1     		cbz	r3, .L119
 669:Drivers/display_ILI-93xx_sm/lcd.c **** }
 2052              		.loc 1 669 17 is_stmt 1 view .LVU637
 2053              		.syntax unified
 2054              	@ 669 "Drivers/display_ILI-93xx_sm/lcd.c" 1
 2055 006a 00BF     		nop
 2056              	@ 0 "" 2
 669:Drivers/display_ILI-93xx_sm/lcd.c **** }
 2057              		.loc 1 669 13 is_stmt 0 view .LVU638
 2058              		.thumb
 2059              		.syntax unified
 2060 006c 013B     		subs	r3, r3, #1
 2061              	.LVL111:
 669:Drivers/display_ILI-93xx_sm/lcd.c **** }
 2062              		.loc 1 669 13 view .LVU639
 2063 006e FBE7     		b	.L98
 2064              	.L119:
 2065              	.LVL112:
 669:Drivers/display_ILI-93xx_sm/lcd.c **** }
 2066              		.loc 1 669 13 view .LVU640
ARM GAS  /tmp/cc47Teva.s 			page 62


 2067              	.LBE217:
 2068              	.LBE218:
 869:Drivers/display_ILI-93xx_sm/lcd.c **** }
 2069              		.loc 1 869 2 is_stmt 1 view .LVU641
 2070 0070 0223     		movs	r3, #2
 2071 0072 7E4A     		ldr	r2, .L128
 2072 0074 1361     		str	r3, [r2, #16]
 869:Drivers/display_ILI-93xx_sm/lcd.c **** }
 2073              		.loc 1 869 2 view .LVU642
 2074              	.LVL113:
 2075              	.LBB219:
 2076              	.LBI219:
 668:Drivers/display_ILI-93xx_sm/lcd.c **** 	for (; t; t--) __asm("nop");
 2077              		.loc 1 668 13 view .LVU643
 2078              	.L100:
 2079              	.LBB220:
 669:Drivers/display_ILI-93xx_sm/lcd.c **** }
 2080              		.loc 1 669 2 is_stmt 0 view .LVU644
 2081 0076 13B1     		cbz	r3, .L120
 669:Drivers/display_ILI-93xx_sm/lcd.c **** }
 2082              		.loc 1 669 17 is_stmt 1 view .LVU645
 2083              		.syntax unified
 2084              	@ 669 "Drivers/display_ILI-93xx_sm/lcd.c" 1
 2085 0078 00BF     		nop
 2086              	@ 0 "" 2
 669:Drivers/display_ILI-93xx_sm/lcd.c **** }
 2087              		.loc 1 669 13 is_stmt 0 view .LVU646
 2088              		.thumb
 2089              		.syntax unified
 2090 007a 013B     		subs	r3, r3, #1
 2091              	.LVL114:
 669:Drivers/display_ILI-93xx_sm/lcd.c **** }
 2092              		.loc 1 669 13 view .LVU647
 2093 007c FBE7     		b	.L100
 2094              	.L120:
 2095              	.LVL115:
 669:Drivers/display_ILI-93xx_sm/lcd.c **** }
 2096              		.loc 1 669 13 view .LVU648
 2097              	.LBE220:
 2098              	.LBE219:
 2099              	.LBE214:
 2100              	.LBE213:
 966:Drivers/display_ILI-93xx_sm/lcd.c **** 	LCD_CD_DATA();
 2101              		.loc 1 966 2 is_stmt 1 view .LVU649
 2102 007e 7B4C     		ldr	r4, .L128
 2103 0080 1023     		movs	r3, #16
 2104 0082 2361     		str	r3, [r4, #16]
 967:Drivers/display_ILI-93xx_sm/lcd.c **** 	LCD_Write8(d >> 24);
 2105              		.loc 1 967 2 view .LVU650
 2106 0084 0B0E     		lsrs	r3, r1, #24
 2107              	.LBB221:
 2108              	.LBI221:
 847:Drivers/display_ILI-93xx_sm/lcd.c **** 	// ------ PORT -----     --- Data ----
 2109              		.loc 1 847 13 view .LVU651
 2110              	.LBB222:
 860:Drivers/display_ILI-93xx_sm/lcd.c **** 	GPIOB->ODR = (GPIOB->ODR & 0xFBC7) | (data & 0x08) | ((data & 0x10) << 1) | ((data & 0x20) >> 1) |
 2111              		.loc 1 860 2 view .LVU652
ARM GAS  /tmp/cc47Teva.s 			page 63


 860:Drivers/display_ILI-93xx_sm/lcd.c **** 	GPIOB->ODR = (GPIOB->ODR & 0xFBC7) | (data & 0x08) | ((data & 0x10) << 1) | ((data & 0x20) >> 1) |
 2112              		.loc 1 860 21 is_stmt 0 view .LVU653
 2113 0086 E068     		ldr	r0, [r4, #12]
 860:Drivers/display_ILI-93xx_sm/lcd.c **** 	GPIOB->ODR = (GPIOB->ODR & 0xFBC7) | (data & 0x08) | ((data & 0x10) << 1) | ((data & 0x20) >> 1) |
 2114              		.loc 1 860 27 view .LVU654
 2115 0088 20F4F060 		bic	r0, r0, #1920
 2116 008c 0004     		lsls	r0, r0, #16
 2117 008e 000C     		lsrs	r0, r0, #16
 860:Drivers/display_ILI-93xx_sm/lcd.c **** 	GPIOB->ODR = (GPIOB->ODR & 0xFBC7) | (data & 0x08) | ((data & 0x10) << 1) | ((data & 0x20) >> 1) |
 2118              		.loc 1 860 54 view .LVU655
 2119 0090 5A02     		lsls	r2, r3, #9
 2120 0092 02F40072 		and	r2, r2, #512
 860:Drivers/display_ILI-93xx_sm/lcd.c **** 	GPIOB->ODR = (GPIOB->ODR & 0xFBC7) | (data & 0x08) | ((data & 0x10) << 1) | ((data & 0x20) >> 1) |
 2121              		.loc 1 860 37 view .LVU656
 2122 0096 1043     		orrs	r0, r0, r2
 860:Drivers/display_ILI-93xx_sm/lcd.c **** 	GPIOB->ODR = (GPIOB->ODR & 0xFBC7) | (data & 0x08) | ((data & 0x10) << 1) | ((data & 0x20) >> 1) |
 2123              		.loc 1 860 77 view .LVU657
 2124 0098 1A02     		lsls	r2, r3, #8
 2125 009a 02F48062 		and	r2, r2, #1024
 860:Drivers/display_ILI-93xx_sm/lcd.c **** 	GPIOB->ODR = (GPIOB->ODR & 0xFBC7) | (data & 0x08) | ((data & 0x10) << 1) | ((data & 0x20) >> 1) |
 2126              		.loc 1 860 60 view .LVU658
 2127 009e 1043     		orrs	r0, r0, r2
 860:Drivers/display_ILI-93xx_sm/lcd.c **** 	GPIOB->ODR = (GPIOB->ODR & 0xFBC7) | (data & 0x08) | ((data & 0x10) << 1) | ((data & 0x20) >> 1) |
 2128              		.loc 1 860 100 view .LVU659
 2129 00a0 5D00     		lsls	r5, r3, #1
 2130 00a2 05F48072 		and	r2, r5, #256
 860:Drivers/display_ILI-93xx_sm/lcd.c **** 	GPIOB->ODR = (GPIOB->ODR & 0xFBC7) | (data & 0x08) | ((data & 0x10) << 1) | ((data & 0x20) >> 1) |
 2131              		.loc 1 860 83 view .LVU660
 2132 00a6 1043     		orrs	r0, r0, r2
 860:Drivers/display_ILI-93xx_sm/lcd.c **** 	GPIOB->ODR = (GPIOB->ODR & 0xFBC7) | (data & 0x08) | ((data & 0x10) << 1) | ((data & 0x20) >> 1) |
 2133              		.loc 1 860 123 view .LVU661
 2134 00a8 9A01     		lsls	r2, r3, #6
 2135 00aa 02F08002 		and	r2, r2, #128
 860:Drivers/display_ILI-93xx_sm/lcd.c **** 	GPIOB->ODR = (GPIOB->ODR & 0xFBC7) | (data & 0x08) | ((data & 0x10) << 1) | ((data & 0x20) >> 1) |
 2136              		.loc 1 860 106 view .LVU662
 2137 00ae 1043     		orrs	r0, r0, r2
 860:Drivers/display_ILI-93xx_sm/lcd.c **** 	GPIOB->ODR = (GPIOB->ODR & 0xFBC7) | (data & 0x08) | ((data & 0x10) << 1) | ((data & 0x20) >> 1) |
 2138              		.loc 1 860 13 view .LVU663
 2139 00b0 E060     		str	r0, [r4, #12]
 861:Drivers/display_ILI-93xx_sm/lcd.c **** #else
 2140              		.loc 1 861 2 is_stmt 1 view .LVU664
 861:Drivers/display_ILI-93xx_sm/lcd.c **** #else
 2141              		.loc 1 861 21 is_stmt 0 view .LVU665
 2142 00b2 6F48     		ldr	r0, .L128+4
 2143 00b4 C268     		ldr	r2, [r0, #12]
 861:Drivers/display_ILI-93xx_sm/lcd.c **** #else
 2144              		.loc 1 861 27 view .LVU666
 2145 00b6 22F48762 		bic	r2, r2, #1080
 2146 00ba 1204     		lsls	r2, r2, #16
 2147 00bc 120C     		lsrs	r2, r2, #16
 861:Drivers/display_ILI-93xx_sm/lcd.c **** #else
 2148              		.loc 1 861 45 view .LVU667
 2149 00be 03F00806 		and	r6, r3, #8
 861:Drivers/display_ILI-93xx_sm/lcd.c **** #else
 2150              		.loc 1 861 37 view .LVU668
 2151 00c2 3243     		orrs	r2, r2, r6
 861:Drivers/display_ILI-93xx_sm/lcd.c **** #else
ARM GAS  /tmp/cc47Teva.s 			page 64


 2152              		.loc 1 861 70 view .LVU669
 2153 00c4 05F02005 		and	r5, r5, #32
 861:Drivers/display_ILI-93xx_sm/lcd.c **** #else
 2154              		.loc 1 861 53 view .LVU670
 2155 00c8 2A43     		orrs	r2, r2, r5
 861:Drivers/display_ILI-93xx_sm/lcd.c **** #else
 2156              		.loc 1 861 93 view .LVU671
 2157 00ca 5D10     		asrs	r5, r3, #1
 2158 00cc 05F01005 		and	r5, r5, #16
 861:Drivers/display_ILI-93xx_sm/lcd.c **** #else
 2159              		.loc 1 861 76 view .LVU672
 2160 00d0 2A43     		orrs	r2, r2, r5
 861:Drivers/display_ILI-93xx_sm/lcd.c **** #else
 2161              		.loc 1 861 116 view .LVU673
 2162 00d2 1B01     		lsls	r3, r3, #4
 2163 00d4 03F48063 		and	r3, r3, #1024
 861:Drivers/display_ILI-93xx_sm/lcd.c **** #else
 2164              		.loc 1 861 99 view .LVU674
 2165 00d8 1343     		orrs	r3, r3, r2
 861:Drivers/display_ILI-93xx_sm/lcd.c **** #else
 2166              		.loc 1 861 13 view .LVU675
 2167 00da C360     		str	r3, [r0, #12]
 869:Drivers/display_ILI-93xx_sm/lcd.c **** }
 2168              		.loc 1 869 2 is_stmt 1 view .LVU676
 869:Drivers/display_ILI-93xx_sm/lcd.c **** }
 2169              		.loc 1 869 2 view .LVU677
 2170 00dc 4FF40033 		mov	r3, #131072
 2171 00e0 2361     		str	r3, [r4, #16]
 869:Drivers/display_ILI-93xx_sm/lcd.c **** }
 2172              		.loc 1 869 2 view .LVU678
 2173              	.LVL116:
 2174              	.LBB223:
 2175              	.LBI223:
 668:Drivers/display_ILI-93xx_sm/lcd.c **** 	for (; t; t--) __asm("nop");
 2176              		.loc 1 668 13 view .LVU679
 2177              	.LBB224:
 669:Drivers/display_ILI-93xx_sm/lcd.c **** }
 2178              		.loc 1 669 2 view .LVU680
 2179              	.LBE224:
 2180              	.LBE223:
 869:Drivers/display_ILI-93xx_sm/lcd.c **** }
 2181              		.loc 1 869 2 is_stmt 0 view .LVU681
 2182 00e2 0223     		movs	r3, #2
 2183              	.LVL117:
 2184              	.L102:
 2185              	.LBB226:
 2186              	.LBB225:
 669:Drivers/display_ILI-93xx_sm/lcd.c **** }
 2187              		.loc 1 669 2 view .LVU682
 2188 00e4 13B1     		cbz	r3, .L121
 669:Drivers/display_ILI-93xx_sm/lcd.c **** }
 2189              		.loc 1 669 17 is_stmt 1 view .LVU683
 2190              		.syntax unified
 2191              	@ 669 "Drivers/display_ILI-93xx_sm/lcd.c" 1
 2192 00e6 00BF     		nop
 2193              	@ 0 "" 2
 669:Drivers/display_ILI-93xx_sm/lcd.c **** }
ARM GAS  /tmp/cc47Teva.s 			page 65


 2194              		.loc 1 669 13 is_stmt 0 view .LVU684
 2195              		.thumb
 2196              		.syntax unified
 2197 00e8 013B     		subs	r3, r3, #1
 2198              	.LVL118:
 669:Drivers/display_ILI-93xx_sm/lcd.c **** }
 2199              		.loc 1 669 13 view .LVU685
 2200 00ea FBE7     		b	.L102
 2201              	.L121:
 2202              	.LVL119:
 669:Drivers/display_ILI-93xx_sm/lcd.c **** }
 2203              		.loc 1 669 13 view .LVU686
 2204              	.LBE225:
 2205              	.LBE226:
 869:Drivers/display_ILI-93xx_sm/lcd.c **** }
 2206              		.loc 1 869 2 is_stmt 1 view .LVU687
 2207 00ec 0223     		movs	r3, #2
 2208 00ee 5F4A     		ldr	r2, .L128
 2209 00f0 1361     		str	r3, [r2, #16]
 869:Drivers/display_ILI-93xx_sm/lcd.c **** }
 2210              		.loc 1 869 2 view .LVU688
 2211              	.LVL120:
 2212              	.LBB227:
 2213              	.LBI227:
 668:Drivers/display_ILI-93xx_sm/lcd.c **** 	for (; t; t--) __asm("nop");
 2214              		.loc 1 668 13 view .LVU689
 2215              	.L104:
 2216              	.LBB228:
 669:Drivers/display_ILI-93xx_sm/lcd.c **** }
 2217              		.loc 1 669 2 is_stmt 0 view .LVU690
 2218 00f2 13B1     		cbz	r3, .L122
 669:Drivers/display_ILI-93xx_sm/lcd.c **** }
 2219              		.loc 1 669 17 is_stmt 1 view .LVU691
 2220              		.syntax unified
 2221              	@ 669 "Drivers/display_ILI-93xx_sm/lcd.c" 1
 2222 00f4 00BF     		nop
 2223              	@ 0 "" 2
 669:Drivers/display_ILI-93xx_sm/lcd.c **** }
 2224              		.loc 1 669 13 is_stmt 0 view .LVU692
 2225              		.thumb
 2226              		.syntax unified
 2227 00f6 013B     		subs	r3, r3, #1
 2228              	.LVL121:
 669:Drivers/display_ILI-93xx_sm/lcd.c **** }
 2229              		.loc 1 669 13 view .LVU693
 2230 00f8 FBE7     		b	.L104
 2231              	.L122:
 2232              	.LVL122:
 669:Drivers/display_ILI-93xx_sm/lcd.c **** }
 2233              		.loc 1 669 13 view .LVU694
 2234              	.LBE228:
 2235              	.LBE227:
 2236              	.LBE222:
 2237              	.LBE221:
 968:Drivers/display_ILI-93xx_sm/lcd.c **** 	LCD_Write8(d >> 16);
 2238              		.loc 1 968 2 is_stmt 1 view .LVU695
 2239 00fa C1F30743 		ubfx	r3, r1, #16, #8
ARM GAS  /tmp/cc47Teva.s 			page 66


 2240              	.LBB229:
 2241              	.LBI229:
 847:Drivers/display_ILI-93xx_sm/lcd.c **** 	// ------ PORT -----     --- Data ----
 2242              		.loc 1 847 13 view .LVU696
 2243              	.LBB230:
 860:Drivers/display_ILI-93xx_sm/lcd.c **** 	GPIOB->ODR = (GPIOB->ODR & 0xFBC7) | (data & 0x08) | ((data & 0x10) << 1) | ((data & 0x20) >> 1) |
 2244              		.loc 1 860 2 view .LVU697
 860:Drivers/display_ILI-93xx_sm/lcd.c **** 	GPIOB->ODR = (GPIOB->ODR & 0xFBC7) | (data & 0x08) | ((data & 0x10) << 1) | ((data & 0x20) >> 1) |
 2245              		.loc 1 860 21 is_stmt 0 view .LVU698
 2246 00fe 5B4C     		ldr	r4, .L128
 2247 0100 E068     		ldr	r0, [r4, #12]
 860:Drivers/display_ILI-93xx_sm/lcd.c **** 	GPIOB->ODR = (GPIOB->ODR & 0xFBC7) | (data & 0x08) | ((data & 0x10) << 1) | ((data & 0x20) >> 1) |
 2248              		.loc 1 860 27 view .LVU699
 2249 0102 20F4F060 		bic	r0, r0, #1920
 2250 0106 0004     		lsls	r0, r0, #16
 2251 0108 000C     		lsrs	r0, r0, #16
 860:Drivers/display_ILI-93xx_sm/lcd.c **** 	GPIOB->ODR = (GPIOB->ODR & 0xFBC7) | (data & 0x08) | ((data & 0x10) << 1) | ((data & 0x20) >> 1) |
 2252              		.loc 1 860 54 view .LVU700
 2253 010a 5A02     		lsls	r2, r3, #9
 2254 010c 02F40072 		and	r2, r2, #512
 860:Drivers/display_ILI-93xx_sm/lcd.c **** 	GPIOB->ODR = (GPIOB->ODR & 0xFBC7) | (data & 0x08) | ((data & 0x10) << 1) | ((data & 0x20) >> 1) |
 2255              		.loc 1 860 37 view .LVU701
 2256 0110 1043     		orrs	r0, r0, r2
 860:Drivers/display_ILI-93xx_sm/lcd.c **** 	GPIOB->ODR = (GPIOB->ODR & 0xFBC7) | (data & 0x08) | ((data & 0x10) << 1) | ((data & 0x20) >> 1) |
 2257              		.loc 1 860 77 view .LVU702
 2258 0112 1A02     		lsls	r2, r3, #8
 2259 0114 02F48062 		and	r2, r2, #1024
 860:Drivers/display_ILI-93xx_sm/lcd.c **** 	GPIOB->ODR = (GPIOB->ODR & 0xFBC7) | (data & 0x08) | ((data & 0x10) << 1) | ((data & 0x20) >> 1) |
 2260              		.loc 1 860 60 view .LVU703
 2261 0118 1043     		orrs	r0, r0, r2
 860:Drivers/display_ILI-93xx_sm/lcd.c **** 	GPIOB->ODR = (GPIOB->ODR & 0xFBC7) | (data & 0x08) | ((data & 0x10) << 1) | ((data & 0x20) >> 1) |
 2262              		.loc 1 860 100 view .LVU704
 2263 011a 5D00     		lsls	r5, r3, #1
 2264 011c 05F48072 		and	r2, r5, #256
 860:Drivers/display_ILI-93xx_sm/lcd.c **** 	GPIOB->ODR = (GPIOB->ODR & 0xFBC7) | (data & 0x08) | ((data & 0x10) << 1) | ((data & 0x20) >> 1) |
 2265              		.loc 1 860 83 view .LVU705
 2266 0120 1043     		orrs	r0, r0, r2
 860:Drivers/display_ILI-93xx_sm/lcd.c **** 	GPIOB->ODR = (GPIOB->ODR & 0xFBC7) | (data & 0x08) | ((data & 0x10) << 1) | ((data & 0x20) >> 1) |
 2267              		.loc 1 860 123 view .LVU706
 2268 0122 9A01     		lsls	r2, r3, #6
 2269 0124 02F08002 		and	r2, r2, #128
 860:Drivers/display_ILI-93xx_sm/lcd.c **** 	GPIOB->ODR = (GPIOB->ODR & 0xFBC7) | (data & 0x08) | ((data & 0x10) << 1) | ((data & 0x20) >> 1) |
 2270              		.loc 1 860 106 view .LVU707
 2271 0128 1043     		orrs	r0, r0, r2
 860:Drivers/display_ILI-93xx_sm/lcd.c **** 	GPIOB->ODR = (GPIOB->ODR & 0xFBC7) | (data & 0x08) | ((data & 0x10) << 1) | ((data & 0x20) >> 1) |
 2272              		.loc 1 860 13 view .LVU708
 2273 012a E060     		str	r0, [r4, #12]
 861:Drivers/display_ILI-93xx_sm/lcd.c **** #else
 2274              		.loc 1 861 2 is_stmt 1 view .LVU709
 861:Drivers/display_ILI-93xx_sm/lcd.c **** #else
 2275              		.loc 1 861 21 is_stmt 0 view .LVU710
 2276 012c 5048     		ldr	r0, .L128+4
 2277 012e C268     		ldr	r2, [r0, #12]
 861:Drivers/display_ILI-93xx_sm/lcd.c **** #else
 2278              		.loc 1 861 27 view .LVU711
 2279 0130 22F48762 		bic	r2, r2, #1080
 2280 0134 1204     		lsls	r2, r2, #16
ARM GAS  /tmp/cc47Teva.s 			page 67


 2281 0136 120C     		lsrs	r2, r2, #16
 861:Drivers/display_ILI-93xx_sm/lcd.c **** #else
 2282              		.loc 1 861 45 view .LVU712
 2283 0138 03F00806 		and	r6, r3, #8
 861:Drivers/display_ILI-93xx_sm/lcd.c **** #else
 2284              		.loc 1 861 37 view .LVU713
 2285 013c 3243     		orrs	r2, r2, r6
 861:Drivers/display_ILI-93xx_sm/lcd.c **** #else
 2286              		.loc 1 861 70 view .LVU714
 2287 013e 05F02005 		and	r5, r5, #32
 861:Drivers/display_ILI-93xx_sm/lcd.c **** #else
 2288              		.loc 1 861 53 view .LVU715
 2289 0142 2A43     		orrs	r2, r2, r5
 861:Drivers/display_ILI-93xx_sm/lcd.c **** #else
 2290              		.loc 1 861 93 view .LVU716
 2291 0144 5D10     		asrs	r5, r3, #1
 2292 0146 05F01005 		and	r5, r5, #16
 861:Drivers/display_ILI-93xx_sm/lcd.c **** #else
 2293              		.loc 1 861 76 view .LVU717
 2294 014a 2A43     		orrs	r2, r2, r5
 861:Drivers/display_ILI-93xx_sm/lcd.c **** #else
 2295              		.loc 1 861 116 view .LVU718
 2296 014c 1B01     		lsls	r3, r3, #4
 2297 014e 03F48063 		and	r3, r3, #1024
 861:Drivers/display_ILI-93xx_sm/lcd.c **** #else
 2298              		.loc 1 861 99 view .LVU719
 2299 0152 1343     		orrs	r3, r3, r2
 861:Drivers/display_ILI-93xx_sm/lcd.c **** #else
 2300              		.loc 1 861 13 view .LVU720
 2301 0154 C360     		str	r3, [r0, #12]
 869:Drivers/display_ILI-93xx_sm/lcd.c **** }
 2302              		.loc 1 869 2 is_stmt 1 view .LVU721
 869:Drivers/display_ILI-93xx_sm/lcd.c **** }
 2303              		.loc 1 869 2 view .LVU722
 2304 0156 4FF40033 		mov	r3, #131072
 2305 015a 2361     		str	r3, [r4, #16]
 869:Drivers/display_ILI-93xx_sm/lcd.c **** }
 2306              		.loc 1 869 2 view .LVU723
 2307              	.LVL123:
 2308              	.LBB231:
 2309              	.LBI231:
 668:Drivers/display_ILI-93xx_sm/lcd.c **** 	for (; t; t--) __asm("nop");
 2310              		.loc 1 668 13 view .LVU724
 2311              	.LBB232:
 669:Drivers/display_ILI-93xx_sm/lcd.c **** }
 2312              		.loc 1 669 2 view .LVU725
 2313              	.LBE232:
 2314              	.LBE231:
 869:Drivers/display_ILI-93xx_sm/lcd.c **** }
 2315              		.loc 1 869 2 is_stmt 0 view .LVU726
 2316 015c 0223     		movs	r3, #2
 2317              	.LVL124:
 2318              	.L106:
 2319              	.LBB234:
 2320              	.LBB233:
 669:Drivers/display_ILI-93xx_sm/lcd.c **** }
 2321              		.loc 1 669 2 view .LVU727
ARM GAS  /tmp/cc47Teva.s 			page 68


 2322 015e 13B1     		cbz	r3, .L123
 669:Drivers/display_ILI-93xx_sm/lcd.c **** }
 2323              		.loc 1 669 17 is_stmt 1 view .LVU728
 2324              		.syntax unified
 2325              	@ 669 "Drivers/display_ILI-93xx_sm/lcd.c" 1
 2326 0160 00BF     		nop
 2327              	@ 0 "" 2
 669:Drivers/display_ILI-93xx_sm/lcd.c **** }
 2328              		.loc 1 669 13 is_stmt 0 view .LVU729
 2329              		.thumb
 2330              		.syntax unified
 2331 0162 013B     		subs	r3, r3, #1
 2332              	.LVL125:
 669:Drivers/display_ILI-93xx_sm/lcd.c **** }
 2333              		.loc 1 669 13 view .LVU730
 2334 0164 FBE7     		b	.L106
 2335              	.L123:
 2336              	.LVL126:
 669:Drivers/display_ILI-93xx_sm/lcd.c **** }
 2337              		.loc 1 669 13 view .LVU731
 2338              	.LBE233:
 2339              	.LBE234:
 869:Drivers/display_ILI-93xx_sm/lcd.c **** }
 2340              		.loc 1 869 2 is_stmt 1 view .LVU732
 2341 0166 0223     		movs	r3, #2
 2342 0168 404A     		ldr	r2, .L128
 2343 016a 1361     		str	r3, [r2, #16]
 869:Drivers/display_ILI-93xx_sm/lcd.c **** }
 2344              		.loc 1 869 2 view .LVU733
 2345              	.LVL127:
 2346              	.LBB235:
 2347              	.LBI235:
 668:Drivers/display_ILI-93xx_sm/lcd.c **** 	for (; t; t--) __asm("nop");
 2348              		.loc 1 668 13 view .LVU734
 2349              	.L108:
 2350              	.LBB236:
 669:Drivers/display_ILI-93xx_sm/lcd.c **** }
 2351              		.loc 1 669 2 is_stmt 0 view .LVU735
 2352 016c 13B1     		cbz	r3, .L124
 669:Drivers/display_ILI-93xx_sm/lcd.c **** }
 2353              		.loc 1 669 17 is_stmt 1 view .LVU736
 2354              		.syntax unified
 2355              	@ 669 "Drivers/display_ILI-93xx_sm/lcd.c" 1
 2356 016e 00BF     		nop
 2357              	@ 0 "" 2
 669:Drivers/display_ILI-93xx_sm/lcd.c **** }
 2358              		.loc 1 669 13 is_stmt 0 view .LVU737
 2359              		.thumb
 2360              		.syntax unified
 2361 0170 013B     		subs	r3, r3, #1
 2362              	.LVL128:
 669:Drivers/display_ILI-93xx_sm/lcd.c **** }
 2363              		.loc 1 669 13 view .LVU738
 2364 0172 FBE7     		b	.L108
 2365              	.L124:
 2366              	.LVL129:
 669:Drivers/display_ILI-93xx_sm/lcd.c **** }
ARM GAS  /tmp/cc47Teva.s 			page 69


 2367              		.loc 1 669 13 view .LVU739
 2368              	.LBE236:
 2369              	.LBE235:
 2370              	.LBE230:
 2371              	.LBE229:
 969:Drivers/display_ILI-93xx_sm/lcd.c **** 	LCD_Write8(d >> 8);
 2372              		.loc 1 969 2 is_stmt 1 view .LVU740
 2373 0174 C1F30723 		ubfx	r3, r1, #8, #8
 2374              	.LBB237:
 2375              	.LBI237:
 847:Drivers/display_ILI-93xx_sm/lcd.c **** 	// ------ PORT -----     --- Data ----
 2376              		.loc 1 847 13 view .LVU741
 2377              	.LBB238:
 860:Drivers/display_ILI-93xx_sm/lcd.c **** 	GPIOB->ODR = (GPIOB->ODR & 0xFBC7) | (data & 0x08) | ((data & 0x10) << 1) | ((data & 0x20) >> 1) |
 2378              		.loc 1 860 2 view .LVU742
 860:Drivers/display_ILI-93xx_sm/lcd.c **** 	GPIOB->ODR = (GPIOB->ODR & 0xFBC7) | (data & 0x08) | ((data & 0x10) << 1) | ((data & 0x20) >> 1) |
 2379              		.loc 1 860 21 is_stmt 0 view .LVU743
 2380 0178 3C4C     		ldr	r4, .L128
 2381 017a E068     		ldr	r0, [r4, #12]
 860:Drivers/display_ILI-93xx_sm/lcd.c **** 	GPIOB->ODR = (GPIOB->ODR & 0xFBC7) | (data & 0x08) | ((data & 0x10) << 1) | ((data & 0x20) >> 1) |
 2382              		.loc 1 860 27 view .LVU744
 2383 017c 20F4F060 		bic	r0, r0, #1920
 2384 0180 0004     		lsls	r0, r0, #16
 2385 0182 000C     		lsrs	r0, r0, #16
 860:Drivers/display_ILI-93xx_sm/lcd.c **** 	GPIOB->ODR = (GPIOB->ODR & 0xFBC7) | (data & 0x08) | ((data & 0x10) << 1) | ((data & 0x20) >> 1) |
 2386              		.loc 1 860 54 view .LVU745
 2387 0184 5A02     		lsls	r2, r3, #9
 2388 0186 02F40072 		and	r2, r2, #512
 860:Drivers/display_ILI-93xx_sm/lcd.c **** 	GPIOB->ODR = (GPIOB->ODR & 0xFBC7) | (data & 0x08) | ((data & 0x10) << 1) | ((data & 0x20) >> 1) |
 2389              		.loc 1 860 37 view .LVU746
 2390 018a 1043     		orrs	r0, r0, r2
 860:Drivers/display_ILI-93xx_sm/lcd.c **** 	GPIOB->ODR = (GPIOB->ODR & 0xFBC7) | (data & 0x08) | ((data & 0x10) << 1) | ((data & 0x20) >> 1) |
 2391              		.loc 1 860 77 view .LVU747
 2392 018c 1A02     		lsls	r2, r3, #8
 2393 018e 02F48062 		and	r2, r2, #1024
 860:Drivers/display_ILI-93xx_sm/lcd.c **** 	GPIOB->ODR = (GPIOB->ODR & 0xFBC7) | (data & 0x08) | ((data & 0x10) << 1) | ((data & 0x20) >> 1) |
 2394              		.loc 1 860 60 view .LVU748
 2395 0192 1043     		orrs	r0, r0, r2
 860:Drivers/display_ILI-93xx_sm/lcd.c **** 	GPIOB->ODR = (GPIOB->ODR & 0xFBC7) | (data & 0x08) | ((data & 0x10) << 1) | ((data & 0x20) >> 1) |
 2396              		.loc 1 860 100 view .LVU749
 2397 0194 5D00     		lsls	r5, r3, #1
 2398 0196 05F48072 		and	r2, r5, #256
 860:Drivers/display_ILI-93xx_sm/lcd.c **** 	GPIOB->ODR = (GPIOB->ODR & 0xFBC7) | (data & 0x08) | ((data & 0x10) << 1) | ((data & 0x20) >> 1) |
 2399              		.loc 1 860 83 view .LVU750
 2400 019a 1043     		orrs	r0, r0, r2
 860:Drivers/display_ILI-93xx_sm/lcd.c **** 	GPIOB->ODR = (GPIOB->ODR & 0xFBC7) | (data & 0x08) | ((data & 0x10) << 1) | ((data & 0x20) >> 1) |
 2401              		.loc 1 860 123 view .LVU751
 2402 019c 9A01     		lsls	r2, r3, #6
 2403 019e 02F08002 		and	r2, r2, #128
 860:Drivers/display_ILI-93xx_sm/lcd.c **** 	GPIOB->ODR = (GPIOB->ODR & 0xFBC7) | (data & 0x08) | ((data & 0x10) << 1) | ((data & 0x20) >> 1) |
 2404              		.loc 1 860 106 view .LVU752
 2405 01a2 1043     		orrs	r0, r0, r2
 860:Drivers/display_ILI-93xx_sm/lcd.c **** 	GPIOB->ODR = (GPIOB->ODR & 0xFBC7) | (data & 0x08) | ((data & 0x10) << 1) | ((data & 0x20) >> 1) |
 2406              		.loc 1 860 13 view .LVU753
 2407 01a4 E060     		str	r0, [r4, #12]
 861:Drivers/display_ILI-93xx_sm/lcd.c **** #else
 2408              		.loc 1 861 2 is_stmt 1 view .LVU754
ARM GAS  /tmp/cc47Teva.s 			page 70


 861:Drivers/display_ILI-93xx_sm/lcd.c **** #else
 2409              		.loc 1 861 21 is_stmt 0 view .LVU755
 2410 01a6 3248     		ldr	r0, .L128+4
 2411 01a8 C268     		ldr	r2, [r0, #12]
 861:Drivers/display_ILI-93xx_sm/lcd.c **** #else
 2412              		.loc 1 861 27 view .LVU756
 2413 01aa 22F48762 		bic	r2, r2, #1080
 2414 01ae 1204     		lsls	r2, r2, #16
 2415 01b0 120C     		lsrs	r2, r2, #16
 861:Drivers/display_ILI-93xx_sm/lcd.c **** #else
 2416              		.loc 1 861 45 view .LVU757
 2417 01b2 03F00806 		and	r6, r3, #8
 861:Drivers/display_ILI-93xx_sm/lcd.c **** #else
 2418              		.loc 1 861 37 view .LVU758
 2419 01b6 3243     		orrs	r2, r2, r6
 861:Drivers/display_ILI-93xx_sm/lcd.c **** #else
 2420              		.loc 1 861 70 view .LVU759
 2421 01b8 05F02005 		and	r5, r5, #32
 861:Drivers/display_ILI-93xx_sm/lcd.c **** #else
 2422              		.loc 1 861 53 view .LVU760
 2423 01bc 2A43     		orrs	r2, r2, r5
 861:Drivers/display_ILI-93xx_sm/lcd.c **** #else
 2424              		.loc 1 861 93 view .LVU761
 2425 01be 5D10     		asrs	r5, r3, #1
 2426 01c0 05F01005 		and	r5, r5, #16
 861:Drivers/display_ILI-93xx_sm/lcd.c **** #else
 2427              		.loc 1 861 76 view .LVU762
 2428 01c4 2A43     		orrs	r2, r2, r5
 861:Drivers/display_ILI-93xx_sm/lcd.c **** #else
 2429              		.loc 1 861 116 view .LVU763
 2430 01c6 1B01     		lsls	r3, r3, #4
 2431 01c8 03F48063 		and	r3, r3, #1024
 861:Drivers/display_ILI-93xx_sm/lcd.c **** #else
 2432              		.loc 1 861 99 view .LVU764
 2433 01cc 1343     		orrs	r3, r3, r2
 861:Drivers/display_ILI-93xx_sm/lcd.c **** #else
 2434              		.loc 1 861 13 view .LVU765
 2435 01ce C360     		str	r3, [r0, #12]
 869:Drivers/display_ILI-93xx_sm/lcd.c **** }
 2436              		.loc 1 869 2 is_stmt 1 view .LVU766
 869:Drivers/display_ILI-93xx_sm/lcd.c **** }
 2437              		.loc 1 869 2 view .LVU767
 2438 01d0 4FF40033 		mov	r3, #131072
 2439 01d4 2361     		str	r3, [r4, #16]
 869:Drivers/display_ILI-93xx_sm/lcd.c **** }
 2440              		.loc 1 869 2 view .LVU768
 2441              	.LVL130:
 2442              	.LBB239:
 2443              	.LBI239:
 668:Drivers/display_ILI-93xx_sm/lcd.c **** 	for (; t; t--) __asm("nop");
 2444              		.loc 1 668 13 view .LVU769
 2445              	.LBB240:
 669:Drivers/display_ILI-93xx_sm/lcd.c **** }
 2446              		.loc 1 669 2 view .LVU770
 2447              	.LBE240:
 2448              	.LBE239:
 869:Drivers/display_ILI-93xx_sm/lcd.c **** }
ARM GAS  /tmp/cc47Teva.s 			page 71


 2449              		.loc 1 869 2 is_stmt 0 view .LVU771
 2450 01d6 0223     		movs	r3, #2
 2451              	.LVL131:
 2452              	.L110:
 2453              	.LBB242:
 2454              	.LBB241:
 669:Drivers/display_ILI-93xx_sm/lcd.c **** }
 2455              		.loc 1 669 2 view .LVU772
 2456 01d8 13B1     		cbz	r3, .L125
 669:Drivers/display_ILI-93xx_sm/lcd.c **** }
 2457              		.loc 1 669 17 is_stmt 1 view .LVU773
 2458              		.syntax unified
 2459              	@ 669 "Drivers/display_ILI-93xx_sm/lcd.c" 1
 2460 01da 00BF     		nop
 2461              	@ 0 "" 2
 669:Drivers/display_ILI-93xx_sm/lcd.c **** }
 2462              		.loc 1 669 13 is_stmt 0 view .LVU774
 2463              		.thumb
 2464              		.syntax unified
 2465 01dc 013B     		subs	r3, r3, #1
 2466              	.LVL132:
 669:Drivers/display_ILI-93xx_sm/lcd.c **** }
 2467              		.loc 1 669 13 view .LVU775
 2468 01de FBE7     		b	.L110
 2469              	.L125:
 2470              	.LVL133:
 669:Drivers/display_ILI-93xx_sm/lcd.c **** }
 2471              		.loc 1 669 13 view .LVU776
 2472              	.LBE241:
 2473              	.LBE242:
 869:Drivers/display_ILI-93xx_sm/lcd.c **** }
 2474              		.loc 1 869 2 is_stmt 1 view .LVU777
 2475 01e0 0223     		movs	r3, #2
 2476 01e2 224A     		ldr	r2, .L128
 2477 01e4 1361     		str	r3, [r2, #16]
 869:Drivers/display_ILI-93xx_sm/lcd.c **** }
 2478              		.loc 1 869 2 view .LVU778
 2479              	.LVL134:
 2480              	.LBB243:
 2481              	.LBI243:
 668:Drivers/display_ILI-93xx_sm/lcd.c **** 	for (; t; t--) __asm("nop");
 2482              		.loc 1 668 13 view .LVU779
 2483 01e6 01E0     		b	.L112
 2484              	.LVL135:
 2485              	.L113:
 2486              	.LBB244:
 669:Drivers/display_ILI-93xx_sm/lcd.c **** }
 2487              		.loc 1 669 17 view .LVU780
 2488              		.syntax unified
 2489              	@ 669 "Drivers/display_ILI-93xx_sm/lcd.c" 1
 2490 01e8 00BF     		nop
 2491              	@ 0 "" 2
 669:Drivers/display_ILI-93xx_sm/lcd.c **** }
 2492              		.loc 1 669 13 is_stmt 0 view .LVU781
 2493              		.thumb
 2494              		.syntax unified
 2495 01ea 013B     		subs	r3, r3, #1
ARM GAS  /tmp/cc47Teva.s 			page 72


 2496              	.LVL136:
 2497              	.L112:
 669:Drivers/display_ILI-93xx_sm/lcd.c **** }
 2498              		.loc 1 669 2 view .LVU782
 2499 01ec 002B     		cmp	r3, #0
 2500 01ee FBD1     		bne	.L113
 2501              	.LVL137:
 669:Drivers/display_ILI-93xx_sm/lcd.c **** }
 2502              		.loc 1 669 2 view .LVU783
 2503              	.LBE244:
 2504              	.LBE243:
 2505              	.LBE238:
 2506              	.LBE237:
 970:Drivers/display_ILI-93xx_sm/lcd.c **** 	LCD_Write8(d);
 2507              		.loc 1 970 2 is_stmt 1 view .LVU784
 2508 01f0 C9B2     		uxtb	r1, r1
 2509              	.LVL138:
 2510              	.LBB245:
 2511              	.LBI245:
 847:Drivers/display_ILI-93xx_sm/lcd.c **** 	// ------ PORT -----     --- Data ----
 2512              		.loc 1 847 13 view .LVU785
 2513              	.LBB246:
 860:Drivers/display_ILI-93xx_sm/lcd.c **** 	GPIOB->ODR = (GPIOB->ODR & 0xFBC7) | (data & 0x08) | ((data & 0x10) << 1) | ((data & 0x20) >> 1) |
 2514              		.loc 1 860 2 view .LVU786
 860:Drivers/display_ILI-93xx_sm/lcd.c **** 	GPIOB->ODR = (GPIOB->ODR & 0xFBC7) | (data & 0x08) | ((data & 0x10) << 1) | ((data & 0x20) >> 1) |
 2515              		.loc 1 860 21 is_stmt 0 view .LVU787
 2516 01f2 1E48     		ldr	r0, .L128
 2517 01f4 C268     		ldr	r2, [r0, #12]
 860:Drivers/display_ILI-93xx_sm/lcd.c **** 	GPIOB->ODR = (GPIOB->ODR & 0xFBC7) | (data & 0x08) | ((data & 0x10) << 1) | ((data & 0x20) >> 1) |
 2518              		.loc 1 860 27 view .LVU788
 2519 01f6 22F4F062 		bic	r2, r2, #1920
 2520 01fa 1204     		lsls	r2, r2, #16
 2521 01fc 120C     		lsrs	r2, r2, #16
 860:Drivers/display_ILI-93xx_sm/lcd.c **** 	GPIOB->ODR = (GPIOB->ODR & 0xFBC7) | (data & 0x08) | ((data & 0x10) << 1) | ((data & 0x20) >> 1) |
 2522              		.loc 1 860 54 view .LVU789
 2523 01fe 4B02     		lsls	r3, r1, #9
 2524 0200 03F40073 		and	r3, r3, #512
 860:Drivers/display_ILI-93xx_sm/lcd.c **** 	GPIOB->ODR = (GPIOB->ODR & 0xFBC7) | (data & 0x08) | ((data & 0x10) << 1) | ((data & 0x20) >> 1) |
 2525              		.loc 1 860 37 view .LVU790
 2526 0204 1A43     		orrs	r2, r2, r3
 860:Drivers/display_ILI-93xx_sm/lcd.c **** 	GPIOB->ODR = (GPIOB->ODR & 0xFBC7) | (data & 0x08) | ((data & 0x10) << 1) | ((data & 0x20) >> 1) |
 2527              		.loc 1 860 77 view .LVU791
 2528 0206 0B02     		lsls	r3, r1, #8
 2529 0208 03F48063 		and	r3, r3, #1024
 860:Drivers/display_ILI-93xx_sm/lcd.c **** 	GPIOB->ODR = (GPIOB->ODR & 0xFBC7) | (data & 0x08) | ((data & 0x10) << 1) | ((data & 0x20) >> 1) |
 2530              		.loc 1 860 60 view .LVU792
 2531 020c 1A43     		orrs	r2, r2, r3
 860:Drivers/display_ILI-93xx_sm/lcd.c **** 	GPIOB->ODR = (GPIOB->ODR & 0xFBC7) | (data & 0x08) | ((data & 0x10) << 1) | ((data & 0x20) >> 1) |
 2532              		.loc 1 860 100 view .LVU793
 2533 020e 4C00     		lsls	r4, r1, #1
 2534 0210 04F48073 		and	r3, r4, #256
 860:Drivers/display_ILI-93xx_sm/lcd.c **** 	GPIOB->ODR = (GPIOB->ODR & 0xFBC7) | (data & 0x08) | ((data & 0x10) << 1) | ((data & 0x20) >> 1) |
 2535              		.loc 1 860 83 view .LVU794
 2536 0214 1A43     		orrs	r2, r2, r3
 860:Drivers/display_ILI-93xx_sm/lcd.c **** 	GPIOB->ODR = (GPIOB->ODR & 0xFBC7) | (data & 0x08) | ((data & 0x10) << 1) | ((data & 0x20) >> 1) |
 2537              		.loc 1 860 123 view .LVU795
 2538 0216 8B01     		lsls	r3, r1, #6
ARM GAS  /tmp/cc47Teva.s 			page 73


 2539 0218 03F08003 		and	r3, r3, #128
 860:Drivers/display_ILI-93xx_sm/lcd.c **** 	GPIOB->ODR = (GPIOB->ODR & 0xFBC7) | (data & 0x08) | ((data & 0x10) << 1) | ((data & 0x20) >> 1) |
 2540              		.loc 1 860 106 view .LVU796
 2541 021c 1A43     		orrs	r2, r2, r3
 860:Drivers/display_ILI-93xx_sm/lcd.c **** 	GPIOB->ODR = (GPIOB->ODR & 0xFBC7) | (data & 0x08) | ((data & 0x10) << 1) | ((data & 0x20) >> 1) |
 2542              		.loc 1 860 13 view .LVU797
 2543 021e C260     		str	r2, [r0, #12]
 861:Drivers/display_ILI-93xx_sm/lcd.c **** #else
 2544              		.loc 1 861 2 is_stmt 1 view .LVU798
 861:Drivers/display_ILI-93xx_sm/lcd.c **** #else
 2545              		.loc 1 861 21 is_stmt 0 view .LVU799
 2546 0220 134D     		ldr	r5, .L128+4
 2547 0222 EB68     		ldr	r3, [r5, #12]
 861:Drivers/display_ILI-93xx_sm/lcd.c **** #else
 2548              		.loc 1 861 27 view .LVU800
 2549 0224 23F48763 		bic	r3, r3, #1080
 2550 0228 1B04     		lsls	r3, r3, #16
 2551 022a 1B0C     		lsrs	r3, r3, #16
 861:Drivers/display_ILI-93xx_sm/lcd.c **** #else
 2552              		.loc 1 861 45 view .LVU801
 2553 022c 01F00802 		and	r2, r1, #8
 861:Drivers/display_ILI-93xx_sm/lcd.c **** #else
 2554              		.loc 1 861 37 view .LVU802
 2555 0230 1343     		orrs	r3, r3, r2
 861:Drivers/display_ILI-93xx_sm/lcd.c **** #else
 2556              		.loc 1 861 70 view .LVU803
 2557 0232 04F02004 		and	r4, r4, #32
 861:Drivers/display_ILI-93xx_sm/lcd.c **** #else
 2558              		.loc 1 861 53 view .LVU804
 2559 0236 2343     		orrs	r3, r3, r4
 861:Drivers/display_ILI-93xx_sm/lcd.c **** #else
 2560              		.loc 1 861 93 view .LVU805
 2561 0238 4A10     		asrs	r2, r1, #1
 2562 023a 02F01002 		and	r2, r2, #16
 861:Drivers/display_ILI-93xx_sm/lcd.c **** #else
 2563              		.loc 1 861 76 view .LVU806
 2564 023e 1343     		orrs	r3, r3, r2
 861:Drivers/display_ILI-93xx_sm/lcd.c **** #else
 2565              		.loc 1 861 116 view .LVU807
 2566 0240 0901     		lsls	r1, r1, #4
 2567              	.LVL139:
 861:Drivers/display_ILI-93xx_sm/lcd.c **** #else
 2568              		.loc 1 861 116 view .LVU808
 2569 0242 01F48061 		and	r1, r1, #1024
 861:Drivers/display_ILI-93xx_sm/lcd.c **** #else
 2570              		.loc 1 861 99 view .LVU809
 2571 0246 1943     		orrs	r1, r1, r3
 861:Drivers/display_ILI-93xx_sm/lcd.c **** #else
 2572              		.loc 1 861 13 view .LVU810
 2573 0248 E960     		str	r1, [r5, #12]
 869:Drivers/display_ILI-93xx_sm/lcd.c **** }
 2574              		.loc 1 869 2 is_stmt 1 view .LVU811
 869:Drivers/display_ILI-93xx_sm/lcd.c **** }
 2575              		.loc 1 869 2 view .LVU812
 2576 024a 4FF40033 		mov	r3, #131072
 2577 024e 0361     		str	r3, [r0, #16]
 869:Drivers/display_ILI-93xx_sm/lcd.c **** }
ARM GAS  /tmp/cc47Teva.s 			page 74


 2578              		.loc 1 869 2 view .LVU813
 2579              	.LVL140:
 2580              	.LBB247:
 2581              	.LBI247:
 668:Drivers/display_ILI-93xx_sm/lcd.c **** 	for (; t; t--) __asm("nop");
 2582              		.loc 1 668 13 view .LVU814
 2583              	.LBB248:
 669:Drivers/display_ILI-93xx_sm/lcd.c **** }
 2584              		.loc 1 669 2 view .LVU815
 2585              	.LBE248:
 2586              	.LBE247:
 869:Drivers/display_ILI-93xx_sm/lcd.c **** }
 2587              		.loc 1 869 2 is_stmt 0 view .LVU816
 2588 0250 0223     		movs	r3, #2
 2589              	.LVL141:
 2590              	.L114:
 2591              	.LBB250:
 2592              	.LBB249:
 669:Drivers/display_ILI-93xx_sm/lcd.c **** }
 2593              		.loc 1 669 2 view .LVU817
 2594 0252 13B1     		cbz	r3, .L126
 669:Drivers/display_ILI-93xx_sm/lcd.c **** }
 2595              		.loc 1 669 17 is_stmt 1 view .LVU818
 2596              		.syntax unified
 2597              	@ 669 "Drivers/display_ILI-93xx_sm/lcd.c" 1
 2598 0254 00BF     		nop
 2599              	@ 0 "" 2
 669:Drivers/display_ILI-93xx_sm/lcd.c **** }
 2600              		.loc 1 669 13 is_stmt 0 view .LVU819
 2601              		.thumb
 2602              		.syntax unified
 2603 0256 013B     		subs	r3, r3, #1
 2604              	.LVL142:
 669:Drivers/display_ILI-93xx_sm/lcd.c **** }
 2605              		.loc 1 669 13 view .LVU820
 2606 0258 FBE7     		b	.L114
 2607              	.L126:
 2608              	.LVL143:
 669:Drivers/display_ILI-93xx_sm/lcd.c **** }
 2609              		.loc 1 669 13 view .LVU821
 2610              	.LBE249:
 2611              	.LBE250:
 869:Drivers/display_ILI-93xx_sm/lcd.c **** }
 2612              		.loc 1 869 2 is_stmt 1 view .LVU822
 2613 025a 0223     		movs	r3, #2
 2614 025c 034A     		ldr	r2, .L128
 2615 025e 1361     		str	r3, [r2, #16]
 869:Drivers/display_ILI-93xx_sm/lcd.c **** }
 2616              		.loc 1 869 2 view .LVU823
 2617              	.LVL144:
 2618              	.LBB251:
 2619              	.LBI251:
 668:Drivers/display_ILI-93xx_sm/lcd.c **** 	for (; t; t--) __asm("nop");
 2620              		.loc 1 668 13 view .LVU824
 2621              	.L116:
 2622              	.LBB252:
 669:Drivers/display_ILI-93xx_sm/lcd.c **** }
ARM GAS  /tmp/cc47Teva.s 			page 75


 2623              		.loc 1 669 2 is_stmt 0 view .LVU825
 2624 0260 13B1     		cbz	r3, .L127
 669:Drivers/display_ILI-93xx_sm/lcd.c **** }
 2625              		.loc 1 669 17 is_stmt 1 view .LVU826
 2626              		.syntax unified
 2627              	@ 669 "Drivers/display_ILI-93xx_sm/lcd.c" 1
 2628 0262 00BF     		nop
 2629              	@ 0 "" 2
 669:Drivers/display_ILI-93xx_sm/lcd.c **** }
 2630              		.loc 1 669 13 is_stmt 0 view .LVU827
 2631              		.thumb
 2632              		.syntax unified
 2633 0264 013B     		subs	r3, r3, #1
 2634              	.LVL145:
 669:Drivers/display_ILI-93xx_sm/lcd.c **** }
 2635              		.loc 1 669 13 view .LVU828
 2636 0266 FBE7     		b	.L116
 2637              	.L127:
 669:Drivers/display_ILI-93xx_sm/lcd.c **** }
 2638              		.loc 1 669 13 view .LVU829
 2639              	.LBE252:
 2640              	.LBE251:
 2641              	.LBE246:
 2642              	.LBE245:
 971:Drivers/display_ILI-93xx_sm/lcd.c **** }
 2643              		.loc 1 971 1 view .LVU830
 2644 0268 70BC     		pop	{r4, r5, r6}
 2645              	.LCFI12:
 2646              		.cfi_restore 6
 2647              		.cfi_restore 5
 2648              		.cfi_restore 4
 2649              		.cfi_def_cfa_offset 0
 2650 026a 7047     		bx	lr
 2651              	.L129:
 2652              		.align	2
 2653              	.L128:
 2654 026c 00080140 		.word	1073809408
 2655 0270 000C0140 		.word	1073810432
 2656              		.cfi_endproc
 2657              	.LFE75:
 2659              		.section	.text.LCD_Write16Register16,"ax",%progbits
 2660              		.align	1
 2661              		.global	LCD_Write16Register16
 2662              		.syntax unified
 2663              		.thumb
 2664              		.thumb_func
 2665              		.fpu softvfp
 2667              	LCD_Write16Register16:
 2668              	.LVL146:
 2669              	.LFB76:
 972:Drivers/display_ILI-93xx_sm/lcd.c **** 
 973:Drivers/display_ILI-93xx_sm/lcd.c **** /**
 974:Drivers/display_ILI-93xx_sm/lcd.c ****  * \brief Writes 16-Bit data to register (16-bit address)
 975:Drivers/display_ILI-93xx_sm/lcd.c ****  *
 976:Drivers/display_ILI-93xx_sm/lcd.c ****  * \param a		Register
 977:Drivers/display_ILI-93xx_sm/lcd.c ****  * \param d		Data
 978:Drivers/display_ILI-93xx_sm/lcd.c ****  *
ARM GAS  /tmp/cc47Teva.s 			page 76


 979:Drivers/display_ILI-93xx_sm/lcd.c ****  * \return void
 980:Drivers/display_ILI-93xx_sm/lcd.c ****  */
 981:Drivers/display_ILI-93xx_sm/lcd.c **** inline void LCD_Write16Register16(uint16_t a, uint16_t d) {
 2670              		.loc 1 981 59 is_stmt 1 view -0
 2671              		.cfi_startproc
 2672              		@ args = 0, pretend = 0, frame = 0
 2673              		@ frame_needed = 0, uses_anonymous_args = 0
 2674              		@ link register save eliminated.
 2675              		.loc 1 981 59 is_stmt 0 view .LVU832
 2676 0000 F0B4     		push	{r4, r5, r6, r7}
 2677              	.LCFI13:
 2678              		.cfi_def_cfa_offset 16
 2679              		.cfi_offset 4, -16
 2680              		.cfi_offset 5, -12
 2681              		.cfi_offset 6, -8
 2682              		.cfi_offset 7, -4
 982:Drivers/display_ILI-93xx_sm/lcd.c **** 	LCD_CD_COMMAND();
 2683              		.loc 1 982 2 is_stmt 1 view .LVU833
 2684 0002 7C4D     		ldr	r5, .L155
 2685 0004 4FF48013 		mov	r3, #1048576
 2686 0008 2B61     		str	r3, [r5, #16]
 983:Drivers/display_ILI-93xx_sm/lcd.c **** 	LCD_Write8(a >> 8);
 2687              		.loc 1 983 2 view .LVU834
 2688 000a 020A     		lsrs	r2, r0, #8
 2689              	.LVL147:
 2690              	.LBB277:
 2691              	.LBI277:
 847:Drivers/display_ILI-93xx_sm/lcd.c **** 	// ------ PORT -----     --- Data ----
 2692              		.loc 1 847 13 view .LVU835
 2693              	.LBB278:
 860:Drivers/display_ILI-93xx_sm/lcd.c **** 	GPIOB->ODR = (GPIOB->ODR & 0xFBC7) | (data & 0x08) | ((data & 0x10) << 1) | ((data & 0x20) >> 1) |
 2694              		.loc 1 860 2 view .LVU836
 860:Drivers/display_ILI-93xx_sm/lcd.c **** 	GPIOB->ODR = (GPIOB->ODR & 0xFBC7) | (data & 0x08) | ((data & 0x10) << 1) | ((data & 0x20) >> 1) |
 2695              		.loc 1 860 21 is_stmt 0 view .LVU837
 2696 000c EC68     		ldr	r4, [r5, #12]
 860:Drivers/display_ILI-93xx_sm/lcd.c **** 	GPIOB->ODR = (GPIOB->ODR & 0xFBC7) | (data & 0x08) | ((data & 0x10) << 1) | ((data & 0x20) >> 1) |
 2697              		.loc 1 860 27 view .LVU838
 2698 000e 24F4F064 		bic	r4, r4, #1920
 2699 0012 2404     		lsls	r4, r4, #16
 2700 0014 240C     		lsrs	r4, r4, #16
 860:Drivers/display_ILI-93xx_sm/lcd.c **** 	GPIOB->ODR = (GPIOB->ODR & 0xFBC7) | (data & 0x08) | ((data & 0x10) << 1) | ((data & 0x20) >> 1) |
 2701              		.loc 1 860 54 view .LVU839
 2702 0016 5302     		lsls	r3, r2, #9
 2703 0018 03F40073 		and	r3, r3, #512
 860:Drivers/display_ILI-93xx_sm/lcd.c **** 	GPIOB->ODR = (GPIOB->ODR & 0xFBC7) | (data & 0x08) | ((data & 0x10) << 1) | ((data & 0x20) >> 1) |
 2704              		.loc 1 860 37 view .LVU840
 2705 001c 1C43     		orrs	r4, r4, r3
 860:Drivers/display_ILI-93xx_sm/lcd.c **** 	GPIOB->ODR = (GPIOB->ODR & 0xFBC7) | (data & 0x08) | ((data & 0x10) << 1) | ((data & 0x20) >> 1) |
 2706              		.loc 1 860 77 view .LVU841
 2707 001e 1302     		lsls	r3, r2, #8
 2708 0020 03F48063 		and	r3, r3, #1024
 860:Drivers/display_ILI-93xx_sm/lcd.c **** 	GPIOB->ODR = (GPIOB->ODR & 0xFBC7) | (data & 0x08) | ((data & 0x10) << 1) | ((data & 0x20) >> 1) |
 2709              		.loc 1 860 60 view .LVU842
 2710 0024 1C43     		orrs	r4, r4, r3
 860:Drivers/display_ILI-93xx_sm/lcd.c **** 	GPIOB->ODR = (GPIOB->ODR & 0xFBC7) | (data & 0x08) | ((data & 0x10) << 1) | ((data & 0x20) >> 1) |
 2711              		.loc 1 860 100 view .LVU843
 2712 0026 5600     		lsls	r6, r2, #1
ARM GAS  /tmp/cc47Teva.s 			page 77


 2713 0028 06F48073 		and	r3, r6, #256
 860:Drivers/display_ILI-93xx_sm/lcd.c **** 	GPIOB->ODR = (GPIOB->ODR & 0xFBC7) | (data & 0x08) | ((data & 0x10) << 1) | ((data & 0x20) >> 1) |
 2714              		.loc 1 860 83 view .LVU844
 2715 002c 1C43     		orrs	r4, r4, r3
 860:Drivers/display_ILI-93xx_sm/lcd.c **** 	GPIOB->ODR = (GPIOB->ODR & 0xFBC7) | (data & 0x08) | ((data & 0x10) << 1) | ((data & 0x20) >> 1) |
 2716              		.loc 1 860 123 view .LVU845
 2717 002e 9301     		lsls	r3, r2, #6
 2718 0030 03F08003 		and	r3, r3, #128
 860:Drivers/display_ILI-93xx_sm/lcd.c **** 	GPIOB->ODR = (GPIOB->ODR & 0xFBC7) | (data & 0x08) | ((data & 0x10) << 1) | ((data & 0x20) >> 1) |
 2719              		.loc 1 860 106 view .LVU846
 2720 0034 1C43     		orrs	r4, r4, r3
 860:Drivers/display_ILI-93xx_sm/lcd.c **** 	GPIOB->ODR = (GPIOB->ODR & 0xFBC7) | (data & 0x08) | ((data & 0x10) << 1) | ((data & 0x20) >> 1) |
 2721              		.loc 1 860 13 view .LVU847
 2722 0036 EC60     		str	r4, [r5, #12]
 861:Drivers/display_ILI-93xx_sm/lcd.c **** #else
 2723              		.loc 1 861 2 is_stmt 1 view .LVU848
 861:Drivers/display_ILI-93xx_sm/lcd.c **** #else
 2724              		.loc 1 861 21 is_stmt 0 view .LVU849
 2725 0038 6F4C     		ldr	r4, .L155+4
 2726 003a E368     		ldr	r3, [r4, #12]
 861:Drivers/display_ILI-93xx_sm/lcd.c **** #else
 2727              		.loc 1 861 27 view .LVU850
 2728 003c 23F48763 		bic	r3, r3, #1080
 2729 0040 1B04     		lsls	r3, r3, #16
 2730 0042 1B0C     		lsrs	r3, r3, #16
 861:Drivers/display_ILI-93xx_sm/lcd.c **** #else
 2731              		.loc 1 861 45 view .LVU851
 2732 0044 02F00807 		and	r7, r2, #8
 861:Drivers/display_ILI-93xx_sm/lcd.c **** #else
 2733              		.loc 1 861 37 view .LVU852
 2734 0048 3B43     		orrs	r3, r3, r7
 861:Drivers/display_ILI-93xx_sm/lcd.c **** #else
 2735              		.loc 1 861 70 view .LVU853
 2736 004a 06F02006 		and	r6, r6, #32
 861:Drivers/display_ILI-93xx_sm/lcd.c **** #else
 2737              		.loc 1 861 53 view .LVU854
 2738 004e 3343     		orrs	r3, r3, r6
 861:Drivers/display_ILI-93xx_sm/lcd.c **** #else
 2739              		.loc 1 861 93 view .LVU855
 2740 0050 5610     		asrs	r6, r2, #1
 2741 0052 06F01006 		and	r6, r6, #16
 861:Drivers/display_ILI-93xx_sm/lcd.c **** #else
 2742              		.loc 1 861 76 view .LVU856
 2743 0056 3343     		orrs	r3, r3, r6
 861:Drivers/display_ILI-93xx_sm/lcd.c **** #else
 2744              		.loc 1 861 116 view .LVU857
 2745 0058 1201     		lsls	r2, r2, #4
 2746              	.LVL148:
 861:Drivers/display_ILI-93xx_sm/lcd.c **** #else
 2747              		.loc 1 861 116 view .LVU858
 2748 005a 02F48062 		and	r2, r2, #1024
 861:Drivers/display_ILI-93xx_sm/lcd.c **** #else
 2749              		.loc 1 861 99 view .LVU859
 2750 005e 1343     		orrs	r3, r3, r2
 861:Drivers/display_ILI-93xx_sm/lcd.c **** #else
 2751              		.loc 1 861 13 view .LVU860
 2752 0060 E360     		str	r3, [r4, #12]
ARM GAS  /tmp/cc47Teva.s 			page 78


 869:Drivers/display_ILI-93xx_sm/lcd.c **** }
 2753              		.loc 1 869 2 is_stmt 1 view .LVU861
 869:Drivers/display_ILI-93xx_sm/lcd.c **** }
 2754              		.loc 1 869 2 view .LVU862
 2755 0062 4FF40033 		mov	r3, #131072
 2756 0066 2B61     		str	r3, [r5, #16]
 869:Drivers/display_ILI-93xx_sm/lcd.c **** }
 2757              		.loc 1 869 2 view .LVU863
 2758              	.LVL149:
 2759              	.LBB279:
 2760              	.LBI279:
 668:Drivers/display_ILI-93xx_sm/lcd.c **** 	for (; t; t--) __asm("nop");
 2761              		.loc 1 668 13 view .LVU864
 2762              	.LBB280:
 669:Drivers/display_ILI-93xx_sm/lcd.c **** }
 2763              		.loc 1 669 2 view .LVU865
 2764              	.LBE280:
 2765              	.LBE279:
 869:Drivers/display_ILI-93xx_sm/lcd.c **** }
 2766              		.loc 1 869 2 is_stmt 0 view .LVU866
 2767 0068 0223     		movs	r3, #2
 2768              	.LVL150:
 2769              	.L131:
 2770              	.LBB282:
 2771              	.LBB281:
 669:Drivers/display_ILI-93xx_sm/lcd.c **** }
 2772              		.loc 1 669 2 view .LVU867
 2773 006a 13B1     		cbz	r3, .L148
 669:Drivers/display_ILI-93xx_sm/lcd.c **** }
 2774              		.loc 1 669 17 is_stmt 1 view .LVU868
 2775              		.syntax unified
 2776              	@ 669 "Drivers/display_ILI-93xx_sm/lcd.c" 1
 2777 006c 00BF     		nop
 2778              	@ 0 "" 2
 669:Drivers/display_ILI-93xx_sm/lcd.c **** }
 2779              		.loc 1 669 13 is_stmt 0 view .LVU869
 2780              		.thumb
 2781              		.syntax unified
 2782 006e 013B     		subs	r3, r3, #1
 2783              	.LVL151:
 669:Drivers/display_ILI-93xx_sm/lcd.c **** }
 2784              		.loc 1 669 13 view .LVU870
 2785 0070 FBE7     		b	.L131
 2786              	.L148:
 2787              	.LVL152:
 669:Drivers/display_ILI-93xx_sm/lcd.c **** }
 2788              		.loc 1 669 13 view .LVU871
 2789              	.LBE281:
 2790              	.LBE282:
 869:Drivers/display_ILI-93xx_sm/lcd.c **** }
 2791              		.loc 1 869 2 is_stmt 1 view .LVU872
 2792 0072 0223     		movs	r3, #2
 2793 0074 5F4A     		ldr	r2, .L155
 2794 0076 1361     		str	r3, [r2, #16]
 869:Drivers/display_ILI-93xx_sm/lcd.c **** }
 2795              		.loc 1 869 2 view .LVU873
 2796              	.LVL153:
ARM GAS  /tmp/cc47Teva.s 			page 79


 2797              	.LBB283:
 2798              	.LBI283:
 668:Drivers/display_ILI-93xx_sm/lcd.c **** 	for (; t; t--) __asm("nop");
 2799              		.loc 1 668 13 view .LVU874
 2800              	.L133:
 2801              	.LBB284:
 669:Drivers/display_ILI-93xx_sm/lcd.c **** }
 2802              		.loc 1 669 2 is_stmt 0 view .LVU875
 2803 0078 13B1     		cbz	r3, .L149
 669:Drivers/display_ILI-93xx_sm/lcd.c **** }
 2804              		.loc 1 669 17 is_stmt 1 view .LVU876
 2805              		.syntax unified
 2806              	@ 669 "Drivers/display_ILI-93xx_sm/lcd.c" 1
 2807 007a 00BF     		nop
 2808              	@ 0 "" 2
 669:Drivers/display_ILI-93xx_sm/lcd.c **** }
 2809              		.loc 1 669 13 is_stmt 0 view .LVU877
 2810              		.thumb
 2811              		.syntax unified
 2812 007c 013B     		subs	r3, r3, #1
 2813              	.LVL154:
 669:Drivers/display_ILI-93xx_sm/lcd.c **** }
 2814              		.loc 1 669 13 view .LVU878
 2815 007e FBE7     		b	.L133
 2816              	.L149:
 2817              	.LVL155:
 669:Drivers/display_ILI-93xx_sm/lcd.c **** }
 2818              		.loc 1 669 13 view .LVU879
 2819              	.LBE284:
 2820              	.LBE283:
 2821              	.LBE278:
 2822              	.LBE277:
 984:Drivers/display_ILI-93xx_sm/lcd.c **** 	LCD_Write8(a);
 2823              		.loc 1 984 2 is_stmt 1 view .LVU880
 2824 0080 C0B2     		uxtb	r0, r0
 2825              	.LVL156:
 2826              	.LBB285:
 2827              	.LBI285:
 847:Drivers/display_ILI-93xx_sm/lcd.c **** 	// ------ PORT -----     --- Data ----
 2828              		.loc 1 847 13 view .LVU881
 2829              	.LBB286:
 860:Drivers/display_ILI-93xx_sm/lcd.c **** 	GPIOB->ODR = (GPIOB->ODR & 0xFBC7) | (data & 0x08) | ((data & 0x10) << 1) | ((data & 0x20) >> 1) |
 2830              		.loc 1 860 2 view .LVU882
 860:Drivers/display_ILI-93xx_sm/lcd.c **** 	GPIOB->ODR = (GPIOB->ODR & 0xFBC7) | (data & 0x08) | ((data & 0x10) << 1) | ((data & 0x20) >> 1) |
 2831              		.loc 1 860 21 is_stmt 0 view .LVU883
 2832 0082 5C4C     		ldr	r4, .L155
 2833 0084 E268     		ldr	r2, [r4, #12]
 860:Drivers/display_ILI-93xx_sm/lcd.c **** 	GPIOB->ODR = (GPIOB->ODR & 0xFBC7) | (data & 0x08) | ((data & 0x10) << 1) | ((data & 0x20) >> 1) |
 2834              		.loc 1 860 27 view .LVU884
 2835 0086 22F4F062 		bic	r2, r2, #1920
 2836 008a 1204     		lsls	r2, r2, #16
 2837 008c 120C     		lsrs	r2, r2, #16
 860:Drivers/display_ILI-93xx_sm/lcd.c **** 	GPIOB->ODR = (GPIOB->ODR & 0xFBC7) | (data & 0x08) | ((data & 0x10) << 1) | ((data & 0x20) >> 1) |
 2838              		.loc 1 860 54 view .LVU885
 2839 008e 4302     		lsls	r3, r0, #9
 2840 0090 03F40073 		and	r3, r3, #512
 860:Drivers/display_ILI-93xx_sm/lcd.c **** 	GPIOB->ODR = (GPIOB->ODR & 0xFBC7) | (data & 0x08) | ((data & 0x10) << 1) | ((data & 0x20) >> 1) |
ARM GAS  /tmp/cc47Teva.s 			page 80


 2841              		.loc 1 860 37 view .LVU886
 2842 0094 1A43     		orrs	r2, r2, r3
 860:Drivers/display_ILI-93xx_sm/lcd.c **** 	GPIOB->ODR = (GPIOB->ODR & 0xFBC7) | (data & 0x08) | ((data & 0x10) << 1) | ((data & 0x20) >> 1) |
 2843              		.loc 1 860 77 view .LVU887
 2844 0096 0302     		lsls	r3, r0, #8
 2845 0098 03F48063 		and	r3, r3, #1024
 860:Drivers/display_ILI-93xx_sm/lcd.c **** 	GPIOB->ODR = (GPIOB->ODR & 0xFBC7) | (data & 0x08) | ((data & 0x10) << 1) | ((data & 0x20) >> 1) |
 2846              		.loc 1 860 60 view .LVU888
 2847 009c 1A43     		orrs	r2, r2, r3
 860:Drivers/display_ILI-93xx_sm/lcd.c **** 	GPIOB->ODR = (GPIOB->ODR & 0xFBC7) | (data & 0x08) | ((data & 0x10) << 1) | ((data & 0x20) >> 1) |
 2848              		.loc 1 860 100 view .LVU889
 2849 009e 4500     		lsls	r5, r0, #1
 2850 00a0 05F48073 		and	r3, r5, #256
 860:Drivers/display_ILI-93xx_sm/lcd.c **** 	GPIOB->ODR = (GPIOB->ODR & 0xFBC7) | (data & 0x08) | ((data & 0x10) << 1) | ((data & 0x20) >> 1) |
 2851              		.loc 1 860 83 view .LVU890
 2852 00a4 1A43     		orrs	r2, r2, r3
 860:Drivers/display_ILI-93xx_sm/lcd.c **** 	GPIOB->ODR = (GPIOB->ODR & 0xFBC7) | (data & 0x08) | ((data & 0x10) << 1) | ((data & 0x20) >> 1) |
 2853              		.loc 1 860 123 view .LVU891
 2854 00a6 8301     		lsls	r3, r0, #6
 2855 00a8 03F08003 		and	r3, r3, #128
 860:Drivers/display_ILI-93xx_sm/lcd.c **** 	GPIOB->ODR = (GPIOB->ODR & 0xFBC7) | (data & 0x08) | ((data & 0x10) << 1) | ((data & 0x20) >> 1) |
 2856              		.loc 1 860 106 view .LVU892
 2857 00ac 1A43     		orrs	r2, r2, r3
 860:Drivers/display_ILI-93xx_sm/lcd.c **** 	GPIOB->ODR = (GPIOB->ODR & 0xFBC7) | (data & 0x08) | ((data & 0x10) << 1) | ((data & 0x20) >> 1) |
 2858              		.loc 1 860 13 view .LVU893
 2859 00ae E260     		str	r2, [r4, #12]
 861:Drivers/display_ILI-93xx_sm/lcd.c **** #else
 2860              		.loc 1 861 2 is_stmt 1 view .LVU894
 861:Drivers/display_ILI-93xx_sm/lcd.c **** #else
 2861              		.loc 1 861 21 is_stmt 0 view .LVU895
 2862 00b0 514A     		ldr	r2, .L155+4
 2863 00b2 D368     		ldr	r3, [r2, #12]
 861:Drivers/display_ILI-93xx_sm/lcd.c **** #else
 2864              		.loc 1 861 27 view .LVU896
 2865 00b4 23F48763 		bic	r3, r3, #1080
 2866 00b8 1B04     		lsls	r3, r3, #16
 2867 00ba 1B0C     		lsrs	r3, r3, #16
 861:Drivers/display_ILI-93xx_sm/lcd.c **** #else
 2868              		.loc 1 861 45 view .LVU897
 2869 00bc 00F00806 		and	r6, r0, #8
 861:Drivers/display_ILI-93xx_sm/lcd.c **** #else
 2870              		.loc 1 861 37 view .LVU898
 2871 00c0 3343     		orrs	r3, r3, r6
 861:Drivers/display_ILI-93xx_sm/lcd.c **** #else
 2872              		.loc 1 861 70 view .LVU899
 2873 00c2 05F02005 		and	r5, r5, #32
 861:Drivers/display_ILI-93xx_sm/lcd.c **** #else
 2874              		.loc 1 861 53 view .LVU900
 2875 00c6 2B43     		orrs	r3, r3, r5
 861:Drivers/display_ILI-93xx_sm/lcd.c **** #else
 2876              		.loc 1 861 93 view .LVU901
 2877 00c8 4510     		asrs	r5, r0, #1
 2878 00ca 05F01005 		and	r5, r5, #16
 861:Drivers/display_ILI-93xx_sm/lcd.c **** #else
 2879              		.loc 1 861 76 view .LVU902
 2880 00ce 2B43     		orrs	r3, r3, r5
 861:Drivers/display_ILI-93xx_sm/lcd.c **** #else
ARM GAS  /tmp/cc47Teva.s 			page 81


 2881              		.loc 1 861 116 view .LVU903
 2882 00d0 0001     		lsls	r0, r0, #4
 2883              	.LVL157:
 861:Drivers/display_ILI-93xx_sm/lcd.c **** #else
 2884              		.loc 1 861 116 view .LVU904
 2885 00d2 00F48060 		and	r0, r0, #1024
 861:Drivers/display_ILI-93xx_sm/lcd.c **** #else
 2886              		.loc 1 861 99 view .LVU905
 2887 00d6 0343     		orrs	r3, r3, r0
 861:Drivers/display_ILI-93xx_sm/lcd.c **** #else
 2888              		.loc 1 861 13 view .LVU906
 2889 00d8 D360     		str	r3, [r2, #12]
 869:Drivers/display_ILI-93xx_sm/lcd.c **** }
 2890              		.loc 1 869 2 is_stmt 1 view .LVU907
 869:Drivers/display_ILI-93xx_sm/lcd.c **** }
 2891              		.loc 1 869 2 view .LVU908
 2892 00da 4FF40033 		mov	r3, #131072
 2893 00de 2361     		str	r3, [r4, #16]
 869:Drivers/display_ILI-93xx_sm/lcd.c **** }
 2894              		.loc 1 869 2 view .LVU909
 2895              	.LVL158:
 2896              	.LBB287:
 2897              	.LBI287:
 668:Drivers/display_ILI-93xx_sm/lcd.c **** 	for (; t; t--) __asm("nop");
 2898              		.loc 1 668 13 view .LVU910
 2899              	.LBB288:
 669:Drivers/display_ILI-93xx_sm/lcd.c **** }
 2900              		.loc 1 669 2 view .LVU911
 2901              	.LBE288:
 2902              	.LBE287:
 869:Drivers/display_ILI-93xx_sm/lcd.c **** }
 2903              		.loc 1 869 2 is_stmt 0 view .LVU912
 2904 00e0 0223     		movs	r3, #2
 2905              	.LVL159:
 2906              	.L135:
 2907              	.LBB290:
 2908              	.LBB289:
 669:Drivers/display_ILI-93xx_sm/lcd.c **** }
 2909              		.loc 1 669 2 view .LVU913
 2910 00e2 13B1     		cbz	r3, .L150
 669:Drivers/display_ILI-93xx_sm/lcd.c **** }
 2911              		.loc 1 669 17 is_stmt 1 view .LVU914
 2912              		.syntax unified
 2913              	@ 669 "Drivers/display_ILI-93xx_sm/lcd.c" 1
 2914 00e4 00BF     		nop
 2915              	@ 0 "" 2
 669:Drivers/display_ILI-93xx_sm/lcd.c **** }
 2916              		.loc 1 669 13 is_stmt 0 view .LVU915
 2917              		.thumb
 2918              		.syntax unified
 2919 00e6 013B     		subs	r3, r3, #1
 2920              	.LVL160:
 669:Drivers/display_ILI-93xx_sm/lcd.c **** }
 2921              		.loc 1 669 13 view .LVU916
 2922 00e8 FBE7     		b	.L135
 2923              	.L150:
 2924              	.LVL161:
ARM GAS  /tmp/cc47Teva.s 			page 82


 669:Drivers/display_ILI-93xx_sm/lcd.c **** }
 2925              		.loc 1 669 13 view .LVU917
 2926              	.LBE289:
 2927              	.LBE290:
 869:Drivers/display_ILI-93xx_sm/lcd.c **** }
 2928              		.loc 1 869 2 is_stmt 1 view .LVU918
 2929 00ea 0223     		movs	r3, #2
 2930 00ec 414A     		ldr	r2, .L155
 2931 00ee 1361     		str	r3, [r2, #16]
 869:Drivers/display_ILI-93xx_sm/lcd.c **** }
 2932              		.loc 1 869 2 view .LVU919
 2933              	.LVL162:
 2934              	.LBB291:
 2935              	.LBI291:
 668:Drivers/display_ILI-93xx_sm/lcd.c **** 	for (; t; t--) __asm("nop");
 2936              		.loc 1 668 13 view .LVU920
 2937              	.L137:
 2938              	.LBB292:
 669:Drivers/display_ILI-93xx_sm/lcd.c **** }
 2939              		.loc 1 669 2 is_stmt 0 view .LVU921
 2940 00f0 13B1     		cbz	r3, .L151
 669:Drivers/display_ILI-93xx_sm/lcd.c **** }
 2941              		.loc 1 669 17 is_stmt 1 view .LVU922
 2942              		.syntax unified
 2943              	@ 669 "Drivers/display_ILI-93xx_sm/lcd.c" 1
 2944 00f2 00BF     		nop
 2945              	@ 0 "" 2
 669:Drivers/display_ILI-93xx_sm/lcd.c **** }
 2946              		.loc 1 669 13 is_stmt 0 view .LVU923
 2947              		.thumb
 2948              		.syntax unified
 2949 00f4 013B     		subs	r3, r3, #1
 2950              	.LVL163:
 669:Drivers/display_ILI-93xx_sm/lcd.c **** }
 2951              		.loc 1 669 13 view .LVU924
 2952 00f6 FBE7     		b	.L137
 2953              	.L151:
 2954              	.LVL164:
 669:Drivers/display_ILI-93xx_sm/lcd.c **** }
 2955              		.loc 1 669 13 view .LVU925
 2956              	.LBE292:
 2957              	.LBE291:
 2958              	.LBE286:
 2959              	.LBE285:
 985:Drivers/display_ILI-93xx_sm/lcd.c **** 	LCD_CD_DATA();
 2960              		.loc 1 985 2 is_stmt 1 view .LVU926
 2961 00f8 3E4C     		ldr	r4, .L155
 2962 00fa 1023     		movs	r3, #16
 2963 00fc 2361     		str	r3, [r4, #16]
 986:Drivers/display_ILI-93xx_sm/lcd.c **** 	LCD_Write8(d >> 8);
 2964              		.loc 1 986 2 view .LVU927
 2965 00fe 0B0A     		lsrs	r3, r1, #8
 2966              	.LBB293:
 2967              	.LBI293:
 847:Drivers/display_ILI-93xx_sm/lcd.c **** 	// ------ PORT -----     --- Data ----
 2968              		.loc 1 847 13 view .LVU928
 2969              	.LBB294:
ARM GAS  /tmp/cc47Teva.s 			page 83


 860:Drivers/display_ILI-93xx_sm/lcd.c **** 	GPIOB->ODR = (GPIOB->ODR & 0xFBC7) | (data & 0x08) | ((data & 0x10) << 1) | ((data & 0x20) >> 1) |
 2970              		.loc 1 860 2 view .LVU929
 860:Drivers/display_ILI-93xx_sm/lcd.c **** 	GPIOB->ODR = (GPIOB->ODR & 0xFBC7) | (data & 0x08) | ((data & 0x10) << 1) | ((data & 0x20) >> 1) |
 2971              		.loc 1 860 21 is_stmt 0 view .LVU930
 2972 0100 E068     		ldr	r0, [r4, #12]
 860:Drivers/display_ILI-93xx_sm/lcd.c **** 	GPIOB->ODR = (GPIOB->ODR & 0xFBC7) | (data & 0x08) | ((data & 0x10) << 1) | ((data & 0x20) >> 1) |
 2973              		.loc 1 860 27 view .LVU931
 2974 0102 20F4F060 		bic	r0, r0, #1920
 2975 0106 0004     		lsls	r0, r0, #16
 2976 0108 000C     		lsrs	r0, r0, #16
 860:Drivers/display_ILI-93xx_sm/lcd.c **** 	GPIOB->ODR = (GPIOB->ODR & 0xFBC7) | (data & 0x08) | ((data & 0x10) << 1) | ((data & 0x20) >> 1) |
 2977              		.loc 1 860 54 view .LVU932
 2978 010a 5A02     		lsls	r2, r3, #9
 2979 010c 02F40072 		and	r2, r2, #512
 860:Drivers/display_ILI-93xx_sm/lcd.c **** 	GPIOB->ODR = (GPIOB->ODR & 0xFBC7) | (data & 0x08) | ((data & 0x10) << 1) | ((data & 0x20) >> 1) |
 2980              		.loc 1 860 37 view .LVU933
 2981 0110 1043     		orrs	r0, r0, r2
 860:Drivers/display_ILI-93xx_sm/lcd.c **** 	GPIOB->ODR = (GPIOB->ODR & 0xFBC7) | (data & 0x08) | ((data & 0x10) << 1) | ((data & 0x20) >> 1) |
 2982              		.loc 1 860 77 view .LVU934
 2983 0112 1A02     		lsls	r2, r3, #8
 2984 0114 02F48062 		and	r2, r2, #1024
 860:Drivers/display_ILI-93xx_sm/lcd.c **** 	GPIOB->ODR = (GPIOB->ODR & 0xFBC7) | (data & 0x08) | ((data & 0x10) << 1) | ((data & 0x20) >> 1) |
 2985              		.loc 1 860 60 view .LVU935
 2986 0118 1043     		orrs	r0, r0, r2
 860:Drivers/display_ILI-93xx_sm/lcd.c **** 	GPIOB->ODR = (GPIOB->ODR & 0xFBC7) | (data & 0x08) | ((data & 0x10) << 1) | ((data & 0x20) >> 1) |
 2987              		.loc 1 860 100 view .LVU936
 2988 011a 5D00     		lsls	r5, r3, #1
 2989 011c 05F48072 		and	r2, r5, #256
 860:Drivers/display_ILI-93xx_sm/lcd.c **** 	GPIOB->ODR = (GPIOB->ODR & 0xFBC7) | (data & 0x08) | ((data & 0x10) << 1) | ((data & 0x20) >> 1) |
 2990              		.loc 1 860 83 view .LVU937
 2991 0120 1043     		orrs	r0, r0, r2
 860:Drivers/display_ILI-93xx_sm/lcd.c **** 	GPIOB->ODR = (GPIOB->ODR & 0xFBC7) | (data & 0x08) | ((data & 0x10) << 1) | ((data & 0x20) >> 1) |
 2992              		.loc 1 860 123 view .LVU938
 2993 0122 9A01     		lsls	r2, r3, #6
 2994 0124 02F08002 		and	r2, r2, #128
 860:Drivers/display_ILI-93xx_sm/lcd.c **** 	GPIOB->ODR = (GPIOB->ODR & 0xFBC7) | (data & 0x08) | ((data & 0x10) << 1) | ((data & 0x20) >> 1) |
 2995              		.loc 1 860 106 view .LVU939
 2996 0128 1043     		orrs	r0, r0, r2
 860:Drivers/display_ILI-93xx_sm/lcd.c **** 	GPIOB->ODR = (GPIOB->ODR & 0xFBC7) | (data & 0x08) | ((data & 0x10) << 1) | ((data & 0x20) >> 1) |
 2997              		.loc 1 860 13 view .LVU940
 2998 012a E060     		str	r0, [r4, #12]
 861:Drivers/display_ILI-93xx_sm/lcd.c **** #else
 2999              		.loc 1 861 2 is_stmt 1 view .LVU941
 861:Drivers/display_ILI-93xx_sm/lcd.c **** #else
 3000              		.loc 1 861 21 is_stmt 0 view .LVU942
 3001 012c 3248     		ldr	r0, .L155+4
 3002 012e C268     		ldr	r2, [r0, #12]
 861:Drivers/display_ILI-93xx_sm/lcd.c **** #else
 3003              		.loc 1 861 27 view .LVU943
 3004 0130 22F48762 		bic	r2, r2, #1080
 3005 0134 1204     		lsls	r2, r2, #16
 3006 0136 120C     		lsrs	r2, r2, #16
 861:Drivers/display_ILI-93xx_sm/lcd.c **** #else
 3007              		.loc 1 861 45 view .LVU944
 3008 0138 03F00806 		and	r6, r3, #8
 861:Drivers/display_ILI-93xx_sm/lcd.c **** #else
 3009              		.loc 1 861 37 view .LVU945
ARM GAS  /tmp/cc47Teva.s 			page 84


 3010 013c 3243     		orrs	r2, r2, r6
 861:Drivers/display_ILI-93xx_sm/lcd.c **** #else
 3011              		.loc 1 861 70 view .LVU946
 3012 013e 05F02005 		and	r5, r5, #32
 861:Drivers/display_ILI-93xx_sm/lcd.c **** #else
 3013              		.loc 1 861 53 view .LVU947
 3014 0142 2A43     		orrs	r2, r2, r5
 861:Drivers/display_ILI-93xx_sm/lcd.c **** #else
 3015              		.loc 1 861 93 view .LVU948
 3016 0144 5D10     		asrs	r5, r3, #1
 3017 0146 05F01005 		and	r5, r5, #16
 861:Drivers/display_ILI-93xx_sm/lcd.c **** #else
 3018              		.loc 1 861 76 view .LVU949
 3019 014a 2A43     		orrs	r2, r2, r5
 861:Drivers/display_ILI-93xx_sm/lcd.c **** #else
 3020              		.loc 1 861 116 view .LVU950
 3021 014c 1B01     		lsls	r3, r3, #4
 3022 014e 03F48063 		and	r3, r3, #1024
 861:Drivers/display_ILI-93xx_sm/lcd.c **** #else
 3023              		.loc 1 861 99 view .LVU951
 3024 0152 1A43     		orrs	r2, r2, r3
 861:Drivers/display_ILI-93xx_sm/lcd.c **** #else
 3025              		.loc 1 861 13 view .LVU952
 3026 0154 C260     		str	r2, [r0, #12]
 869:Drivers/display_ILI-93xx_sm/lcd.c **** }
 3027              		.loc 1 869 2 is_stmt 1 view .LVU953
 869:Drivers/display_ILI-93xx_sm/lcd.c **** }
 3028              		.loc 1 869 2 view .LVU954
 3029 0156 4FF40033 		mov	r3, #131072
 3030 015a 2361     		str	r3, [r4, #16]
 869:Drivers/display_ILI-93xx_sm/lcd.c **** }
 3031              		.loc 1 869 2 view .LVU955
 3032              	.LVL165:
 3033              	.LBB295:
 3034              	.LBI295:
 668:Drivers/display_ILI-93xx_sm/lcd.c **** 	for (; t; t--) __asm("nop");
 3035              		.loc 1 668 13 view .LVU956
 3036              	.LBB296:
 669:Drivers/display_ILI-93xx_sm/lcd.c **** }
 3037              		.loc 1 669 2 view .LVU957
 3038              	.LBE296:
 3039              	.LBE295:
 869:Drivers/display_ILI-93xx_sm/lcd.c **** }
 3040              		.loc 1 869 2 is_stmt 0 view .LVU958
 3041 015c 0223     		movs	r3, #2
 3042              	.LVL166:
 3043              	.L139:
 3044              	.LBB298:
 3045              	.LBB297:
 669:Drivers/display_ILI-93xx_sm/lcd.c **** }
 3046              		.loc 1 669 2 view .LVU959
 3047 015e 13B1     		cbz	r3, .L152
 669:Drivers/display_ILI-93xx_sm/lcd.c **** }
 3048              		.loc 1 669 17 is_stmt 1 view .LVU960
 3049              		.syntax unified
 3050              	@ 669 "Drivers/display_ILI-93xx_sm/lcd.c" 1
 3051 0160 00BF     		nop
ARM GAS  /tmp/cc47Teva.s 			page 85


 3052              	@ 0 "" 2
 669:Drivers/display_ILI-93xx_sm/lcd.c **** }
 3053              		.loc 1 669 13 is_stmt 0 view .LVU961
 3054              		.thumb
 3055              		.syntax unified
 3056 0162 013B     		subs	r3, r3, #1
 3057              	.LVL167:
 669:Drivers/display_ILI-93xx_sm/lcd.c **** }
 3058              		.loc 1 669 13 view .LVU962
 3059 0164 FBE7     		b	.L139
 3060              	.L152:
 3061              	.LVL168:
 669:Drivers/display_ILI-93xx_sm/lcd.c **** }
 3062              		.loc 1 669 13 view .LVU963
 3063              	.LBE297:
 3064              	.LBE298:
 869:Drivers/display_ILI-93xx_sm/lcd.c **** }
 3065              		.loc 1 869 2 is_stmt 1 view .LVU964
 3066 0166 0223     		movs	r3, #2
 3067 0168 224A     		ldr	r2, .L155
 3068 016a 1361     		str	r3, [r2, #16]
 869:Drivers/display_ILI-93xx_sm/lcd.c **** }
 3069              		.loc 1 869 2 view .LVU965
 3070              	.LVL169:
 3071              	.LBB299:
 3072              	.LBI299:
 668:Drivers/display_ILI-93xx_sm/lcd.c **** 	for (; t; t--) __asm("nop");
 3073              		.loc 1 668 13 view .LVU966
 3074              	.L141:
 3075              	.LBB300:
 669:Drivers/display_ILI-93xx_sm/lcd.c **** }
 3076              		.loc 1 669 2 is_stmt 0 view .LVU967
 3077 016c 13B1     		cbz	r3, .L153
 669:Drivers/display_ILI-93xx_sm/lcd.c **** }
 3078              		.loc 1 669 17 is_stmt 1 view .LVU968
 3079              		.syntax unified
 3080              	@ 669 "Drivers/display_ILI-93xx_sm/lcd.c" 1
 3081 016e 00BF     		nop
 3082              	@ 0 "" 2
 669:Drivers/display_ILI-93xx_sm/lcd.c **** }
 3083              		.loc 1 669 13 is_stmt 0 view .LVU969
 3084              		.thumb
 3085              		.syntax unified
 3086 0170 013B     		subs	r3, r3, #1
 3087              	.LVL170:
 669:Drivers/display_ILI-93xx_sm/lcd.c **** }
 3088              		.loc 1 669 13 view .LVU970
 3089 0172 FBE7     		b	.L141
 3090              	.L153:
 3091              	.LVL171:
 669:Drivers/display_ILI-93xx_sm/lcd.c **** }
 3092              		.loc 1 669 13 view .LVU971
 3093              	.LBE300:
 3094              	.LBE299:
 3095              	.LBE294:
 3096              	.LBE293:
 987:Drivers/display_ILI-93xx_sm/lcd.c **** 	LCD_Write8(d);
ARM GAS  /tmp/cc47Teva.s 			page 86


 3097              		.loc 1 987 2 is_stmt 1 view .LVU972
 3098 0174 C9B2     		uxtb	r1, r1
 3099              	.LVL172:
 3100              	.LBB301:
 3101              	.LBI301:
 847:Drivers/display_ILI-93xx_sm/lcd.c **** 	// ------ PORT -----     --- Data ----
 3102              		.loc 1 847 13 view .LVU973
 3103              	.LBB302:
 860:Drivers/display_ILI-93xx_sm/lcd.c **** 	GPIOB->ODR = (GPIOB->ODR & 0xFBC7) | (data & 0x08) | ((data & 0x10) << 1) | ((data & 0x20) >> 1) |
 3104              		.loc 1 860 2 view .LVU974
 860:Drivers/display_ILI-93xx_sm/lcd.c **** 	GPIOB->ODR = (GPIOB->ODR & 0xFBC7) | (data & 0x08) | ((data & 0x10) << 1) | ((data & 0x20) >> 1) |
 3105              		.loc 1 860 21 is_stmt 0 view .LVU975
 3106 0176 1F48     		ldr	r0, .L155
 3107 0178 C268     		ldr	r2, [r0, #12]
 860:Drivers/display_ILI-93xx_sm/lcd.c **** 	GPIOB->ODR = (GPIOB->ODR & 0xFBC7) | (data & 0x08) | ((data & 0x10) << 1) | ((data & 0x20) >> 1) |
 3108              		.loc 1 860 27 view .LVU976
 3109 017a 22F4F062 		bic	r2, r2, #1920
 3110 017e 1204     		lsls	r2, r2, #16
 3111 0180 120C     		lsrs	r2, r2, #16
 860:Drivers/display_ILI-93xx_sm/lcd.c **** 	GPIOB->ODR = (GPIOB->ODR & 0xFBC7) | (data & 0x08) | ((data & 0x10) << 1) | ((data & 0x20) >> 1) |
 3112              		.loc 1 860 54 view .LVU977
 3113 0182 4B02     		lsls	r3, r1, #9
 3114 0184 03F40073 		and	r3, r3, #512
 860:Drivers/display_ILI-93xx_sm/lcd.c **** 	GPIOB->ODR = (GPIOB->ODR & 0xFBC7) | (data & 0x08) | ((data & 0x10) << 1) | ((data & 0x20) >> 1) |
 3115              		.loc 1 860 37 view .LVU978
 3116 0188 1A43     		orrs	r2, r2, r3
 860:Drivers/display_ILI-93xx_sm/lcd.c **** 	GPIOB->ODR = (GPIOB->ODR & 0xFBC7) | (data & 0x08) | ((data & 0x10) << 1) | ((data & 0x20) >> 1) |
 3117              		.loc 1 860 77 view .LVU979
 3118 018a 0B02     		lsls	r3, r1, #8
 3119 018c 03F48063 		and	r3, r3, #1024
 860:Drivers/display_ILI-93xx_sm/lcd.c **** 	GPIOB->ODR = (GPIOB->ODR & 0xFBC7) | (data & 0x08) | ((data & 0x10) << 1) | ((data & 0x20) >> 1) |
 3120              		.loc 1 860 60 view .LVU980
 3121 0190 1A43     		orrs	r2, r2, r3
 860:Drivers/display_ILI-93xx_sm/lcd.c **** 	GPIOB->ODR = (GPIOB->ODR & 0xFBC7) | (data & 0x08) | ((data & 0x10) << 1) | ((data & 0x20) >> 1) |
 3122              		.loc 1 860 100 view .LVU981
 3123 0192 4C00     		lsls	r4, r1, #1
 3124 0194 04F48073 		and	r3, r4, #256
 860:Drivers/display_ILI-93xx_sm/lcd.c **** 	GPIOB->ODR = (GPIOB->ODR & 0xFBC7) | (data & 0x08) | ((data & 0x10) << 1) | ((data & 0x20) >> 1) |
 3125              		.loc 1 860 83 view .LVU982
 3126 0198 1A43     		orrs	r2, r2, r3
 860:Drivers/display_ILI-93xx_sm/lcd.c **** 	GPIOB->ODR = (GPIOB->ODR & 0xFBC7) | (data & 0x08) | ((data & 0x10) << 1) | ((data & 0x20) >> 1) |
 3127              		.loc 1 860 123 view .LVU983
 3128 019a 8B01     		lsls	r3, r1, #6
 3129 019c 03F08003 		and	r3, r3, #128
 860:Drivers/display_ILI-93xx_sm/lcd.c **** 	GPIOB->ODR = (GPIOB->ODR & 0xFBC7) | (data & 0x08) | ((data & 0x10) << 1) | ((data & 0x20) >> 1) |
 3130              		.loc 1 860 106 view .LVU984
 3131 01a0 1A43     		orrs	r2, r2, r3
 860:Drivers/display_ILI-93xx_sm/lcd.c **** 	GPIOB->ODR = (GPIOB->ODR & 0xFBC7) | (data & 0x08) | ((data & 0x10) << 1) | ((data & 0x20) >> 1) |
 3132              		.loc 1 860 13 view .LVU985
 3133 01a2 C260     		str	r2, [r0, #12]
 861:Drivers/display_ILI-93xx_sm/lcd.c **** #else
 3134              		.loc 1 861 2 is_stmt 1 view .LVU986
 861:Drivers/display_ILI-93xx_sm/lcd.c **** #else
 3135              		.loc 1 861 21 is_stmt 0 view .LVU987
 3136 01a4 144D     		ldr	r5, .L155+4
 3137 01a6 EB68     		ldr	r3, [r5, #12]
 861:Drivers/display_ILI-93xx_sm/lcd.c **** #else
ARM GAS  /tmp/cc47Teva.s 			page 87


 3138              		.loc 1 861 27 view .LVU988
 3139 01a8 23F48763 		bic	r3, r3, #1080
 3140 01ac 1B04     		lsls	r3, r3, #16
 3141 01ae 1B0C     		lsrs	r3, r3, #16
 861:Drivers/display_ILI-93xx_sm/lcd.c **** #else
 3142              		.loc 1 861 45 view .LVU989
 3143 01b0 01F00802 		and	r2, r1, #8
 861:Drivers/display_ILI-93xx_sm/lcd.c **** #else
 3144              		.loc 1 861 37 view .LVU990
 3145 01b4 1343     		orrs	r3, r3, r2
 861:Drivers/display_ILI-93xx_sm/lcd.c **** #else
 3146              		.loc 1 861 70 view .LVU991
 3147 01b6 04F02004 		and	r4, r4, #32
 861:Drivers/display_ILI-93xx_sm/lcd.c **** #else
 3148              		.loc 1 861 53 view .LVU992
 3149 01ba 2343     		orrs	r3, r3, r4
 861:Drivers/display_ILI-93xx_sm/lcd.c **** #else
 3150              		.loc 1 861 93 view .LVU993
 3151 01bc 4A10     		asrs	r2, r1, #1
 3152 01be 02F01002 		and	r2, r2, #16
 861:Drivers/display_ILI-93xx_sm/lcd.c **** #else
 3153              		.loc 1 861 76 view .LVU994
 3154 01c2 1343     		orrs	r3, r3, r2
 861:Drivers/display_ILI-93xx_sm/lcd.c **** #else
 3155              		.loc 1 861 116 view .LVU995
 3156 01c4 0901     		lsls	r1, r1, #4
 3157              	.LVL173:
 861:Drivers/display_ILI-93xx_sm/lcd.c **** #else
 3158              		.loc 1 861 116 view .LVU996
 3159 01c6 01F48061 		and	r1, r1, #1024
 861:Drivers/display_ILI-93xx_sm/lcd.c **** #else
 3160              		.loc 1 861 99 view .LVU997
 3161 01ca 0B43     		orrs	r3, r3, r1
 861:Drivers/display_ILI-93xx_sm/lcd.c **** #else
 3162              		.loc 1 861 13 view .LVU998
 3163 01cc EB60     		str	r3, [r5, #12]
 869:Drivers/display_ILI-93xx_sm/lcd.c **** }
 3164              		.loc 1 869 2 is_stmt 1 view .LVU999
 869:Drivers/display_ILI-93xx_sm/lcd.c **** }
 3165              		.loc 1 869 2 view .LVU1000
 3166 01ce 4FF40033 		mov	r3, #131072
 3167 01d2 0361     		str	r3, [r0, #16]
 869:Drivers/display_ILI-93xx_sm/lcd.c **** }
 3168              		.loc 1 869 2 view .LVU1001
 3169              	.LVL174:
 3170              	.LBB303:
 3171              	.LBI303:
 668:Drivers/display_ILI-93xx_sm/lcd.c **** 	for (; t; t--) __asm("nop");
 3172              		.loc 1 668 13 view .LVU1002
 3173              	.LBB304:
 669:Drivers/display_ILI-93xx_sm/lcd.c **** }
 3174              		.loc 1 669 2 view .LVU1003
 3175              	.LBE304:
 3176              	.LBE303:
 869:Drivers/display_ILI-93xx_sm/lcd.c **** }
 3177              		.loc 1 869 2 is_stmt 0 view .LVU1004
 3178 01d4 0223     		movs	r3, #2
ARM GAS  /tmp/cc47Teva.s 			page 88


 3179              	.LVL175:
 3180              	.L143:
 3181              	.LBB306:
 3182              	.LBB305:
 669:Drivers/display_ILI-93xx_sm/lcd.c **** }
 3183              		.loc 1 669 2 view .LVU1005
 3184 01d6 13B1     		cbz	r3, .L154
 669:Drivers/display_ILI-93xx_sm/lcd.c **** }
 3185              		.loc 1 669 17 is_stmt 1 view .LVU1006
 3186              		.syntax unified
 3187              	@ 669 "Drivers/display_ILI-93xx_sm/lcd.c" 1
 3188 01d8 00BF     		nop
 3189              	@ 0 "" 2
 669:Drivers/display_ILI-93xx_sm/lcd.c **** }
 3190              		.loc 1 669 13 is_stmt 0 view .LVU1007
 3191              		.thumb
 3192              		.syntax unified
 3193 01da 013B     		subs	r3, r3, #1
 3194              	.LVL176:
 669:Drivers/display_ILI-93xx_sm/lcd.c **** }
 3195              		.loc 1 669 13 view .LVU1008
 3196 01dc FBE7     		b	.L143
 3197              	.L154:
 3198              	.LVL177:
 669:Drivers/display_ILI-93xx_sm/lcd.c **** }
 3199              		.loc 1 669 13 view .LVU1009
 3200              	.LBE305:
 3201              	.LBE306:
 869:Drivers/display_ILI-93xx_sm/lcd.c **** }
 3202              		.loc 1 869 2 is_stmt 1 view .LVU1010
 3203 01de 0223     		movs	r3, #2
 3204 01e0 044A     		ldr	r2, .L155
 3205 01e2 1361     		str	r3, [r2, #16]
 869:Drivers/display_ILI-93xx_sm/lcd.c **** }
 3206              		.loc 1 869 2 view .LVU1011
 3207              	.LVL178:
 3208              	.LBB307:
 3209              	.LBI307:
 668:Drivers/display_ILI-93xx_sm/lcd.c **** 	for (; t; t--) __asm("nop");
 3210              		.loc 1 668 13 view .LVU1012
 3211 01e4 01E0     		b	.L145
 3212              	.LVL179:
 3213              	.L146:
 3214              	.LBB308:
 669:Drivers/display_ILI-93xx_sm/lcd.c **** }
 3215              		.loc 1 669 17 view .LVU1013
 3216              		.syntax unified
 3217              	@ 669 "Drivers/display_ILI-93xx_sm/lcd.c" 1
 3218 01e6 00BF     		nop
 3219              	@ 0 "" 2
 669:Drivers/display_ILI-93xx_sm/lcd.c **** }
 3220              		.loc 1 669 13 is_stmt 0 view .LVU1014
 3221              		.thumb
 3222              		.syntax unified
 3223 01e8 013B     		subs	r3, r3, #1
 3224              	.LVL180:
 3225              	.L145:
ARM GAS  /tmp/cc47Teva.s 			page 89


 669:Drivers/display_ILI-93xx_sm/lcd.c **** }
 3226              		.loc 1 669 2 view .LVU1015
 3227 01ea 002B     		cmp	r3, #0
 3228 01ec FBD1     		bne	.L146
 3229              	.LBE308:
 3230              	.LBE307:
 3231              	.LBE302:
 3232              	.LBE301:
 988:Drivers/display_ILI-93xx_sm/lcd.c **** }
 3233              		.loc 1 988 1 view .LVU1016
 3234 01ee F0BC     		pop	{r4, r5, r6, r7}
 3235              	.LCFI14:
 3236              		.cfi_restore 7
 3237              		.cfi_restore 6
 3238              		.cfi_restore 5
 3239              		.cfi_restore 4
 3240              		.cfi_def_cfa_offset 0
 3241 01f0 7047     		bx	lr
 3242              	.L156:
 3243 01f2 00BF     		.align	2
 3244              	.L155:
 3245 01f4 00080140 		.word	1073809408
 3246 01f8 000C0140 		.word	1073810432
 3247              		.cfi_endproc
 3248              	.LFE76:
 3250              		.section	.text.LCD_Write16RegisterPair8,"ax",%progbits
 3251              		.align	1
 3252              		.global	LCD_Write16RegisterPair8
 3253              		.syntax unified
 3254              		.thumb
 3255              		.thumb_func
 3256              		.fpu softvfp
 3258              	LCD_Write16RegisterPair8:
 3259              	.LVL181:
 3260              	.LFB77:
 989:Drivers/display_ILI-93xx_sm/lcd.c **** 
 990:Drivers/display_ILI-93xx_sm/lcd.c **** /**
 991:Drivers/display_ILI-93xx_sm/lcd.c ****  * \brief Writes 16-Bit data to two registers (8-bit address)
 992:Drivers/display_ILI-93xx_sm/lcd.c ****  *
 993:Drivers/display_ILI-93xx_sm/lcd.c ****  * \param aH	Register for hi chunk of data
 994:Drivers/display_ILI-93xx_sm/lcd.c ****  * \param aL	Register for lo chunk of data
 995:Drivers/display_ILI-93xx_sm/lcd.c ****  * \param d		Data
 996:Drivers/display_ILI-93xx_sm/lcd.c ****  *
 997:Drivers/display_ILI-93xx_sm/lcd.c ****  * \return void
 998:Drivers/display_ILI-93xx_sm/lcd.c ****  */
 999:Drivers/display_ILI-93xx_sm/lcd.c **** inline void LCD_Write16RegisterPair8(uint8_t aH, uint8_t aL, uint16_t d) {
 3261              		.loc 1 999 74 is_stmt 1 view -0
 3262              		.cfi_startproc
 3263              		@ args = 0, pretend = 0, frame = 0
 3264              		@ frame_needed = 0, uses_anonymous_args = 0
 3265              		@ link register save eliminated.
 3266              		.loc 1 999 74 is_stmt 0 view .LVU1018
 3267 0000 F0B4     		push	{r4, r5, r6, r7}
 3268              	.LCFI15:
 3269              		.cfi_def_cfa_offset 16
 3270              		.cfi_offset 4, -16
 3271              		.cfi_offset 5, -12
ARM GAS  /tmp/cc47Teva.s 			page 90


 3272              		.cfi_offset 6, -8
 3273              		.cfi_offset 7, -4
1000:Drivers/display_ILI-93xx_sm/lcd.c **** 	LCD_Write8Register8(aH, d >> 8);
 3274              		.loc 1 1000 2 is_stmt 1 view .LVU1019
 3275 0002 140A     		lsrs	r4, r2, #8
 3276              	.LVL182:
 3277              	.LBB337:
 3278              	.LBI337:
 915:Drivers/display_ILI-93xx_sm/lcd.c **** 	LCD_CD_COMMAND();
 3279              		.loc 1 915 13 view .LVU1020
 3280              	.LBB338:
 916:Drivers/display_ILI-93xx_sm/lcd.c **** 	LCD_Write8(a);
 3281              		.loc 1 916 2 view .LVU1021
 3282 0004 7D4E     		ldr	r6, .L182
 3283 0006 4FF48013 		mov	r3, #1048576
 3284 000a 3361     		str	r3, [r6, #16]
 917:Drivers/display_ILI-93xx_sm/lcd.c **** 	LCD_CD_DATA();
 3285              		.loc 1 917 2 view .LVU1022
 3286              	.LVL183:
 3287              	.LBB339:
 3288              	.LBI339:
 847:Drivers/display_ILI-93xx_sm/lcd.c **** 	// ------ PORT -----     --- Data ----
 3289              		.loc 1 847 13 view .LVU1023
 3290              	.LBB340:
 860:Drivers/display_ILI-93xx_sm/lcd.c **** 	GPIOB->ODR = (GPIOB->ODR & 0xFBC7) | (data & 0x08) | ((data & 0x10) << 1) | ((data & 0x20) >> 1) |
 3291              		.loc 1 860 2 view .LVU1024
 860:Drivers/display_ILI-93xx_sm/lcd.c **** 	GPIOB->ODR = (GPIOB->ODR & 0xFBC7) | (data & 0x08) | ((data & 0x10) << 1) | ((data & 0x20) >> 1) |
 3292              		.loc 1 860 21 is_stmt 0 view .LVU1025
 3293 000c F568     		ldr	r5, [r6, #12]
 860:Drivers/display_ILI-93xx_sm/lcd.c **** 	GPIOB->ODR = (GPIOB->ODR & 0xFBC7) | (data & 0x08) | ((data & 0x10) << 1) | ((data & 0x20) >> 1) |
 3294              		.loc 1 860 27 view .LVU1026
 3295 000e 25F4F065 		bic	r5, r5, #1920
 3296 0012 2D04     		lsls	r5, r5, #16
 3297 0014 2D0C     		lsrs	r5, r5, #16
 860:Drivers/display_ILI-93xx_sm/lcd.c **** 	GPIOB->ODR = (GPIOB->ODR & 0xFBC7) | (data & 0x08) | ((data & 0x10) << 1) | ((data & 0x20) >> 1) |
 3298              		.loc 1 860 54 view .LVU1027
 3299 0016 4302     		lsls	r3, r0, #9
 3300 0018 03F40073 		and	r3, r3, #512
 860:Drivers/display_ILI-93xx_sm/lcd.c **** 	GPIOB->ODR = (GPIOB->ODR & 0xFBC7) | (data & 0x08) | ((data & 0x10) << 1) | ((data & 0x20) >> 1) |
 3301              		.loc 1 860 37 view .LVU1028
 3302 001c 1D43     		orrs	r5, r5, r3
 860:Drivers/display_ILI-93xx_sm/lcd.c **** 	GPIOB->ODR = (GPIOB->ODR & 0xFBC7) | (data & 0x08) | ((data & 0x10) << 1) | ((data & 0x20) >> 1) |
 3303              		.loc 1 860 77 view .LVU1029
 3304 001e 0302     		lsls	r3, r0, #8
 3305 0020 03F48063 		and	r3, r3, #1024
 860:Drivers/display_ILI-93xx_sm/lcd.c **** 	GPIOB->ODR = (GPIOB->ODR & 0xFBC7) | (data & 0x08) | ((data & 0x10) << 1) | ((data & 0x20) >> 1) |
 3306              		.loc 1 860 60 view .LVU1030
 3307 0024 1D43     		orrs	r5, r5, r3
 860:Drivers/display_ILI-93xx_sm/lcd.c **** 	GPIOB->ODR = (GPIOB->ODR & 0xFBC7) | (data & 0x08) | ((data & 0x10) << 1) | ((data & 0x20) >> 1) |
 3308              		.loc 1 860 100 view .LVU1031
 3309 0026 4700     		lsls	r7, r0, #1
 3310 0028 07F48073 		and	r3, r7, #256
 860:Drivers/display_ILI-93xx_sm/lcd.c **** 	GPIOB->ODR = (GPIOB->ODR & 0xFBC7) | (data & 0x08) | ((data & 0x10) << 1) | ((data & 0x20) >> 1) |
 3311              		.loc 1 860 83 view .LVU1032
 3312 002c 1D43     		orrs	r5, r5, r3
 860:Drivers/display_ILI-93xx_sm/lcd.c **** 	GPIOB->ODR = (GPIOB->ODR & 0xFBC7) | (data & 0x08) | ((data & 0x10) << 1) | ((data & 0x20) >> 1) |
 3313              		.loc 1 860 123 view .LVU1033
ARM GAS  /tmp/cc47Teva.s 			page 91


 3314 002e 8301     		lsls	r3, r0, #6
 3315 0030 03F08003 		and	r3, r3, #128
 860:Drivers/display_ILI-93xx_sm/lcd.c **** 	GPIOB->ODR = (GPIOB->ODR & 0xFBC7) | (data & 0x08) | ((data & 0x10) << 1) | ((data & 0x20) >> 1) |
 3316              		.loc 1 860 106 view .LVU1034
 3317 0034 1D43     		orrs	r5, r5, r3
 860:Drivers/display_ILI-93xx_sm/lcd.c **** 	GPIOB->ODR = (GPIOB->ODR & 0xFBC7) | (data & 0x08) | ((data & 0x10) << 1) | ((data & 0x20) >> 1) |
 3318              		.loc 1 860 13 view .LVU1035
 3319 0036 F560     		str	r5, [r6, #12]
 861:Drivers/display_ILI-93xx_sm/lcd.c **** #else
 3320              		.loc 1 861 2 is_stmt 1 view .LVU1036
 861:Drivers/display_ILI-93xx_sm/lcd.c **** #else
 3321              		.loc 1 861 21 is_stmt 0 view .LVU1037
 3322 0038 714D     		ldr	r5, .L182+4
 3323 003a EB68     		ldr	r3, [r5, #12]
 861:Drivers/display_ILI-93xx_sm/lcd.c **** #else
 3324              		.loc 1 861 27 view .LVU1038
 3325 003c 23F48763 		bic	r3, r3, #1080
 3326 0040 1B04     		lsls	r3, r3, #16
 3327 0042 1B0C     		lsrs	r3, r3, #16
 861:Drivers/display_ILI-93xx_sm/lcd.c **** #else
 3328              		.loc 1 861 45 view .LVU1039
 3329 0044 00F0080C 		and	ip, r0, #8
 861:Drivers/display_ILI-93xx_sm/lcd.c **** #else
 3330              		.loc 1 861 37 view .LVU1040
 3331 0048 43EA0C03 		orr	r3, r3, ip
 861:Drivers/display_ILI-93xx_sm/lcd.c **** #else
 3332              		.loc 1 861 70 view .LVU1041
 3333 004c 07F02007 		and	r7, r7, #32
 861:Drivers/display_ILI-93xx_sm/lcd.c **** #else
 3334              		.loc 1 861 53 view .LVU1042
 3335 0050 3B43     		orrs	r3, r3, r7
 861:Drivers/display_ILI-93xx_sm/lcd.c **** #else
 3336              		.loc 1 861 93 view .LVU1043
 3337 0052 4710     		asrs	r7, r0, #1
 3338 0054 07F01007 		and	r7, r7, #16
 861:Drivers/display_ILI-93xx_sm/lcd.c **** #else
 3339              		.loc 1 861 76 view .LVU1044
 3340 0058 3B43     		orrs	r3, r3, r7
 861:Drivers/display_ILI-93xx_sm/lcd.c **** #else
 3341              		.loc 1 861 116 view .LVU1045
 3342 005a 0001     		lsls	r0, r0, #4
 3343              	.LVL184:
 861:Drivers/display_ILI-93xx_sm/lcd.c **** #else
 3344              		.loc 1 861 116 view .LVU1046
 3345 005c 00F48060 		and	r0, r0, #1024
 861:Drivers/display_ILI-93xx_sm/lcd.c **** #else
 3346              		.loc 1 861 99 view .LVU1047
 3347 0060 0343     		orrs	r3, r3, r0
 861:Drivers/display_ILI-93xx_sm/lcd.c **** #else
 3348              		.loc 1 861 13 view .LVU1048
 3349 0062 EB60     		str	r3, [r5, #12]
 869:Drivers/display_ILI-93xx_sm/lcd.c **** }
 3350              		.loc 1 869 2 is_stmt 1 view .LVU1049
 869:Drivers/display_ILI-93xx_sm/lcd.c **** }
 3351              		.loc 1 869 2 view .LVU1050
 3352 0064 4FF40033 		mov	r3, #131072
 3353 0068 3361     		str	r3, [r6, #16]
ARM GAS  /tmp/cc47Teva.s 			page 92


 869:Drivers/display_ILI-93xx_sm/lcd.c **** }
 3354              		.loc 1 869 2 view .LVU1051
 3355              	.LVL185:
 3356              	.LBB341:
 3357              	.LBI341:
 668:Drivers/display_ILI-93xx_sm/lcd.c **** 	for (; t; t--) __asm("nop");
 3358              		.loc 1 668 13 view .LVU1052
 3359              	.LBB342:
 669:Drivers/display_ILI-93xx_sm/lcd.c **** }
 3360              		.loc 1 669 2 view .LVU1053
 3361              	.LBE342:
 3362              	.LBE341:
 869:Drivers/display_ILI-93xx_sm/lcd.c **** }
 3363              		.loc 1 869 2 is_stmt 0 view .LVU1054
 3364 006a 0223     		movs	r3, #2
 3365              	.LVL186:
 3366              	.L158:
 3367              	.LBB344:
 3368              	.LBB343:
 669:Drivers/display_ILI-93xx_sm/lcd.c **** }
 3369              		.loc 1 669 2 view .LVU1055
 3370 006c 13B1     		cbz	r3, .L175
 669:Drivers/display_ILI-93xx_sm/lcd.c **** }
 3371              		.loc 1 669 17 is_stmt 1 view .LVU1056
 3372              		.syntax unified
 3373              	@ 669 "Drivers/display_ILI-93xx_sm/lcd.c" 1
 3374 006e 00BF     		nop
 3375              	@ 0 "" 2
 669:Drivers/display_ILI-93xx_sm/lcd.c **** }
 3376              		.loc 1 669 13 is_stmt 0 view .LVU1057
 3377              		.thumb
 3378              		.syntax unified
 3379 0070 013B     		subs	r3, r3, #1
 3380              	.LVL187:
 669:Drivers/display_ILI-93xx_sm/lcd.c **** }
 3381              		.loc 1 669 13 view .LVU1058
 3382 0072 FBE7     		b	.L158
 3383              	.L175:
 3384              	.LVL188:
 669:Drivers/display_ILI-93xx_sm/lcd.c **** }
 3385              		.loc 1 669 13 view .LVU1059
 3386              	.LBE343:
 3387              	.LBE344:
 869:Drivers/display_ILI-93xx_sm/lcd.c **** }
 3388              		.loc 1 869 2 is_stmt 1 view .LVU1060
 3389 0074 0223     		movs	r3, #2
 3390 0076 6148     		ldr	r0, .L182
 3391 0078 0361     		str	r3, [r0, #16]
 869:Drivers/display_ILI-93xx_sm/lcd.c **** }
 3392              		.loc 1 869 2 view .LVU1061
 3393              	.LVL189:
 3394              	.LBB345:
 3395              	.LBI345:
 668:Drivers/display_ILI-93xx_sm/lcd.c **** 	for (; t; t--) __asm("nop");
 3396              		.loc 1 668 13 view .LVU1062
 3397              	.L160:
 3398              	.LBB346:
ARM GAS  /tmp/cc47Teva.s 			page 93


 669:Drivers/display_ILI-93xx_sm/lcd.c **** }
 3399              		.loc 1 669 2 is_stmt 0 view .LVU1063
 3400 007a 13B1     		cbz	r3, .L176
 669:Drivers/display_ILI-93xx_sm/lcd.c **** }
 3401              		.loc 1 669 17 is_stmt 1 view .LVU1064
 3402              		.syntax unified
 3403              	@ 669 "Drivers/display_ILI-93xx_sm/lcd.c" 1
 3404 007c 00BF     		nop
 3405              	@ 0 "" 2
 669:Drivers/display_ILI-93xx_sm/lcd.c **** }
 3406              		.loc 1 669 13 is_stmt 0 view .LVU1065
 3407              		.thumb
 3408              		.syntax unified
 3409 007e 013B     		subs	r3, r3, #1
 3410              	.LVL190:
 669:Drivers/display_ILI-93xx_sm/lcd.c **** }
 3411              		.loc 1 669 13 view .LVU1066
 3412 0080 FBE7     		b	.L160
 3413              	.L176:
 3414              	.LVL191:
 669:Drivers/display_ILI-93xx_sm/lcd.c **** }
 3415              		.loc 1 669 13 view .LVU1067
 3416              	.LBE346:
 3417              	.LBE345:
 3418              	.LBE340:
 3419              	.LBE339:
 918:Drivers/display_ILI-93xx_sm/lcd.c **** 	LCD_Write8(d);
 3420              		.loc 1 918 2 is_stmt 1 view .LVU1068
 3421 0082 5E4D     		ldr	r5, .L182
 3422 0084 1023     		movs	r3, #16
 3423 0086 2B61     		str	r3, [r5, #16]
 919:Drivers/display_ILI-93xx_sm/lcd.c **** }
 3424              		.loc 1 919 2 view .LVU1069
 3425              	.LVL192:
 3426              	.LBB347:
 3427              	.LBI347:
 847:Drivers/display_ILI-93xx_sm/lcd.c **** 	// ------ PORT -----     --- Data ----
 3428              		.loc 1 847 13 view .LVU1070
 3429              	.LBB348:
 860:Drivers/display_ILI-93xx_sm/lcd.c **** 	GPIOB->ODR = (GPIOB->ODR & 0xFBC7) | (data & 0x08) | ((data & 0x10) << 1) | ((data & 0x20) >> 1) |
 3430              		.loc 1 860 2 view .LVU1071
 860:Drivers/display_ILI-93xx_sm/lcd.c **** 	GPIOB->ODR = (GPIOB->ODR & 0xFBC7) | (data & 0x08) | ((data & 0x10) << 1) | ((data & 0x20) >> 1) |
 3431              		.loc 1 860 21 is_stmt 0 view .LVU1072
 3432 0088 E868     		ldr	r0, [r5, #12]
 860:Drivers/display_ILI-93xx_sm/lcd.c **** 	GPIOB->ODR = (GPIOB->ODR & 0xFBC7) | (data & 0x08) | ((data & 0x10) << 1) | ((data & 0x20) >> 1) |
 3433              		.loc 1 860 27 view .LVU1073
 3434 008a 20F4F060 		bic	r0, r0, #1920
 3435 008e 0004     		lsls	r0, r0, #16
 3436 0090 000C     		lsrs	r0, r0, #16
 860:Drivers/display_ILI-93xx_sm/lcd.c **** 	GPIOB->ODR = (GPIOB->ODR & 0xFBC7) | (data & 0x08) | ((data & 0x10) << 1) | ((data & 0x20) >> 1) |
 3437              		.loc 1 860 54 view .LVU1074
 3438 0092 6302     		lsls	r3, r4, #9
 3439 0094 03F40073 		and	r3, r3, #512
 860:Drivers/display_ILI-93xx_sm/lcd.c **** 	GPIOB->ODR = (GPIOB->ODR & 0xFBC7) | (data & 0x08) | ((data & 0x10) << 1) | ((data & 0x20) >> 1) |
 3440              		.loc 1 860 37 view .LVU1075
 3441 0098 1843     		orrs	r0, r0, r3
 860:Drivers/display_ILI-93xx_sm/lcd.c **** 	GPIOB->ODR = (GPIOB->ODR & 0xFBC7) | (data & 0x08) | ((data & 0x10) << 1) | ((data & 0x20) >> 1) |
ARM GAS  /tmp/cc47Teva.s 			page 94


 3442              		.loc 1 860 77 view .LVU1076
 3443 009a 2302     		lsls	r3, r4, #8
 3444 009c 03F48063 		and	r3, r3, #1024
 860:Drivers/display_ILI-93xx_sm/lcd.c **** 	GPIOB->ODR = (GPIOB->ODR & 0xFBC7) | (data & 0x08) | ((data & 0x10) << 1) | ((data & 0x20) >> 1) |
 3445              		.loc 1 860 60 view .LVU1077
 3446 00a0 1843     		orrs	r0, r0, r3
 860:Drivers/display_ILI-93xx_sm/lcd.c **** 	GPIOB->ODR = (GPIOB->ODR & 0xFBC7) | (data & 0x08) | ((data & 0x10) << 1) | ((data & 0x20) >> 1) |
 3447              		.loc 1 860 100 view .LVU1078
 3448 00a2 6600     		lsls	r6, r4, #1
 3449 00a4 06F48073 		and	r3, r6, #256
 860:Drivers/display_ILI-93xx_sm/lcd.c **** 	GPIOB->ODR = (GPIOB->ODR & 0xFBC7) | (data & 0x08) | ((data & 0x10) << 1) | ((data & 0x20) >> 1) |
 3450              		.loc 1 860 83 view .LVU1079
 3451 00a8 1843     		orrs	r0, r0, r3
 860:Drivers/display_ILI-93xx_sm/lcd.c **** 	GPIOB->ODR = (GPIOB->ODR & 0xFBC7) | (data & 0x08) | ((data & 0x10) << 1) | ((data & 0x20) >> 1) |
 3452              		.loc 1 860 123 view .LVU1080
 3453 00aa A301     		lsls	r3, r4, #6
 3454 00ac 03F08003 		and	r3, r3, #128
 860:Drivers/display_ILI-93xx_sm/lcd.c **** 	GPIOB->ODR = (GPIOB->ODR & 0xFBC7) | (data & 0x08) | ((data & 0x10) << 1) | ((data & 0x20) >> 1) |
 3455              		.loc 1 860 106 view .LVU1081
 3456 00b0 1843     		orrs	r0, r0, r3
 860:Drivers/display_ILI-93xx_sm/lcd.c **** 	GPIOB->ODR = (GPIOB->ODR & 0xFBC7) | (data & 0x08) | ((data & 0x10) << 1) | ((data & 0x20) >> 1) |
 3457              		.loc 1 860 13 view .LVU1082
 3458 00b2 E860     		str	r0, [r5, #12]
 861:Drivers/display_ILI-93xx_sm/lcd.c **** #else
 3459              		.loc 1 861 2 is_stmt 1 view .LVU1083
 861:Drivers/display_ILI-93xx_sm/lcd.c **** #else
 3460              		.loc 1 861 21 is_stmt 0 view .LVU1084
 3461 00b4 5248     		ldr	r0, .L182+4
 3462 00b6 C368     		ldr	r3, [r0, #12]
 861:Drivers/display_ILI-93xx_sm/lcd.c **** #else
 3463              		.loc 1 861 27 view .LVU1085
 3464 00b8 23F48763 		bic	r3, r3, #1080
 3465 00bc 1B04     		lsls	r3, r3, #16
 3466 00be 1B0C     		lsrs	r3, r3, #16
 861:Drivers/display_ILI-93xx_sm/lcd.c **** #else
 3467              		.loc 1 861 45 view .LVU1086
 3468 00c0 04F00807 		and	r7, r4, #8
 861:Drivers/display_ILI-93xx_sm/lcd.c **** #else
 3469              		.loc 1 861 37 view .LVU1087
 3470 00c4 3B43     		orrs	r3, r3, r7
 861:Drivers/display_ILI-93xx_sm/lcd.c **** #else
 3471              		.loc 1 861 70 view .LVU1088
 3472 00c6 06F02006 		and	r6, r6, #32
 861:Drivers/display_ILI-93xx_sm/lcd.c **** #else
 3473              		.loc 1 861 53 view .LVU1089
 3474 00ca 3343     		orrs	r3, r3, r6
 861:Drivers/display_ILI-93xx_sm/lcd.c **** #else
 3475              		.loc 1 861 93 view .LVU1090
 3476 00cc 6610     		asrs	r6, r4, #1
 3477 00ce 06F01006 		and	r6, r6, #16
 861:Drivers/display_ILI-93xx_sm/lcd.c **** #else
 3478              		.loc 1 861 76 view .LVU1091
 3479 00d2 3343     		orrs	r3, r3, r6
 861:Drivers/display_ILI-93xx_sm/lcd.c **** #else
 3480              		.loc 1 861 116 view .LVU1092
 3481 00d4 2401     		lsls	r4, r4, #4
 3482              	.LVL193:
ARM GAS  /tmp/cc47Teva.s 			page 95


 861:Drivers/display_ILI-93xx_sm/lcd.c **** #else
 3483              		.loc 1 861 116 view .LVU1093
 3484 00d6 04F48064 		and	r4, r4, #1024
 861:Drivers/display_ILI-93xx_sm/lcd.c **** #else
 3485              		.loc 1 861 99 view .LVU1094
 3486 00da 2343     		orrs	r3, r3, r4
 861:Drivers/display_ILI-93xx_sm/lcd.c **** #else
 3487              		.loc 1 861 13 view .LVU1095
 3488 00dc C360     		str	r3, [r0, #12]
 869:Drivers/display_ILI-93xx_sm/lcd.c **** }
 3489              		.loc 1 869 2 is_stmt 1 view .LVU1096
 869:Drivers/display_ILI-93xx_sm/lcd.c **** }
 3490              		.loc 1 869 2 view .LVU1097
 3491 00de 4FF40033 		mov	r3, #131072
 3492 00e2 2B61     		str	r3, [r5, #16]
 869:Drivers/display_ILI-93xx_sm/lcd.c **** }
 3493              		.loc 1 869 2 view .LVU1098
 3494              	.LVL194:
 3495              	.LBB349:
 3496              	.LBI349:
 668:Drivers/display_ILI-93xx_sm/lcd.c **** 	for (; t; t--) __asm("nop");
 3497              		.loc 1 668 13 view .LVU1099
 3498              	.LBB350:
 669:Drivers/display_ILI-93xx_sm/lcd.c **** }
 3499              		.loc 1 669 2 view .LVU1100
 3500              	.LBE350:
 3501              	.LBE349:
 869:Drivers/display_ILI-93xx_sm/lcd.c **** }
 3502              		.loc 1 869 2 is_stmt 0 view .LVU1101
 3503 00e4 0223     		movs	r3, #2
 3504              	.LVL195:
 3505              	.L162:
 3506              	.LBB352:
 3507              	.LBB351:
 669:Drivers/display_ILI-93xx_sm/lcd.c **** }
 3508              		.loc 1 669 2 view .LVU1102
 3509 00e6 13B1     		cbz	r3, .L177
 669:Drivers/display_ILI-93xx_sm/lcd.c **** }
 3510              		.loc 1 669 17 is_stmt 1 view .LVU1103
 3511              		.syntax unified
 3512              	@ 669 "Drivers/display_ILI-93xx_sm/lcd.c" 1
 3513 00e8 00BF     		nop
 3514              	@ 0 "" 2
 669:Drivers/display_ILI-93xx_sm/lcd.c **** }
 3515              		.loc 1 669 13 is_stmt 0 view .LVU1104
 3516              		.thumb
 3517              		.syntax unified
 3518 00ea 013B     		subs	r3, r3, #1
 3519              	.LVL196:
 669:Drivers/display_ILI-93xx_sm/lcd.c **** }
 3520              		.loc 1 669 13 view .LVU1105
 3521 00ec FBE7     		b	.L162
 3522              	.L177:
 3523              	.LVL197:
 669:Drivers/display_ILI-93xx_sm/lcd.c **** }
 3524              		.loc 1 669 13 view .LVU1106
 3525              	.LBE351:
ARM GAS  /tmp/cc47Teva.s 			page 96


 3526              	.LBE352:
 869:Drivers/display_ILI-93xx_sm/lcd.c **** }
 3527              		.loc 1 869 2 is_stmt 1 view .LVU1107
 3528 00ee 0223     		movs	r3, #2
 3529 00f0 4248     		ldr	r0, .L182
 3530 00f2 0361     		str	r3, [r0, #16]
 869:Drivers/display_ILI-93xx_sm/lcd.c **** }
 3531              		.loc 1 869 2 view .LVU1108
 3532              	.LVL198:
 3533              	.LBB353:
 3534              	.LBI353:
 668:Drivers/display_ILI-93xx_sm/lcd.c **** 	for (; t; t--) __asm("nop");
 3535              		.loc 1 668 13 view .LVU1109
 3536              	.L164:
 3537              	.LBB354:
 669:Drivers/display_ILI-93xx_sm/lcd.c **** }
 3538              		.loc 1 669 2 is_stmt 0 view .LVU1110
 3539 00f4 13B1     		cbz	r3, .L178
 669:Drivers/display_ILI-93xx_sm/lcd.c **** }
 3540              		.loc 1 669 17 is_stmt 1 view .LVU1111
 3541              		.syntax unified
 3542              	@ 669 "Drivers/display_ILI-93xx_sm/lcd.c" 1
 3543 00f6 00BF     		nop
 3544              	@ 0 "" 2
 669:Drivers/display_ILI-93xx_sm/lcd.c **** }
 3545              		.loc 1 669 13 is_stmt 0 view .LVU1112
 3546              		.thumb
 3547              		.syntax unified
 3548 00f8 013B     		subs	r3, r3, #1
 3549              	.LVL199:
 669:Drivers/display_ILI-93xx_sm/lcd.c **** }
 3550              		.loc 1 669 13 view .LVU1113
 3551 00fa FBE7     		b	.L164
 3552              	.L178:
 3553              	.LVL200:
 669:Drivers/display_ILI-93xx_sm/lcd.c **** }
 3554              		.loc 1 669 13 view .LVU1114
 3555              	.LBE354:
 3556              	.LBE353:
 3557              	.LBE348:
 3558              	.LBE347:
 3559              	.LBE338:
 3560              	.LBE337:
1001:Drivers/display_ILI-93xx_sm/lcd.c **** 	LCD_Write8Register8(aL, d);
 3561              		.loc 1 1001 2 is_stmt 1 view .LVU1115
 3562 00fc D2B2     		uxtb	r2, r2
 3563              	.LVL201:
 3564              	.LBB355:
 3565              	.LBI355:
 915:Drivers/display_ILI-93xx_sm/lcd.c **** 	LCD_CD_COMMAND();
 3566              		.loc 1 915 13 view .LVU1116
 3567              	.LBB356:
 916:Drivers/display_ILI-93xx_sm/lcd.c **** 	LCD_Write8(a);
 3568              		.loc 1 916 2 view .LVU1117
 3569 00fe 3F4C     		ldr	r4, .L182
 3570 0100 4FF48013 		mov	r3, #1048576
 3571 0104 2361     		str	r3, [r4, #16]
ARM GAS  /tmp/cc47Teva.s 			page 97


 917:Drivers/display_ILI-93xx_sm/lcd.c **** 	LCD_CD_DATA();
 3572              		.loc 1 917 2 view .LVU1118
 3573              	.LVL202:
 3574              	.LBB357:
 3575              	.LBI357:
 847:Drivers/display_ILI-93xx_sm/lcd.c **** 	// ------ PORT -----     --- Data ----
 3576              		.loc 1 847 13 view .LVU1119
 3577              	.LBB358:
 860:Drivers/display_ILI-93xx_sm/lcd.c **** 	GPIOB->ODR = (GPIOB->ODR & 0xFBC7) | (data & 0x08) | ((data & 0x10) << 1) | ((data & 0x20) >> 1) |
 3578              		.loc 1 860 2 view .LVU1120
 860:Drivers/display_ILI-93xx_sm/lcd.c **** 	GPIOB->ODR = (GPIOB->ODR & 0xFBC7) | (data & 0x08) | ((data & 0x10) << 1) | ((data & 0x20) >> 1) |
 3579              		.loc 1 860 21 is_stmt 0 view .LVU1121
 3580 0106 E068     		ldr	r0, [r4, #12]
 860:Drivers/display_ILI-93xx_sm/lcd.c **** 	GPIOB->ODR = (GPIOB->ODR & 0xFBC7) | (data & 0x08) | ((data & 0x10) << 1) | ((data & 0x20) >> 1) |
 3581              		.loc 1 860 27 view .LVU1122
 3582 0108 20F4F060 		bic	r0, r0, #1920
 3583 010c 0004     		lsls	r0, r0, #16
 3584 010e 000C     		lsrs	r0, r0, #16
 860:Drivers/display_ILI-93xx_sm/lcd.c **** 	GPIOB->ODR = (GPIOB->ODR & 0xFBC7) | (data & 0x08) | ((data & 0x10) << 1) | ((data & 0x20) >> 1) |
 3585              		.loc 1 860 54 view .LVU1123
 3586 0110 4B02     		lsls	r3, r1, #9
 3587 0112 03F40073 		and	r3, r3, #512
 860:Drivers/display_ILI-93xx_sm/lcd.c **** 	GPIOB->ODR = (GPIOB->ODR & 0xFBC7) | (data & 0x08) | ((data & 0x10) << 1) | ((data & 0x20) >> 1) |
 3588              		.loc 1 860 37 view .LVU1124
 3589 0116 1843     		orrs	r0, r0, r3
 860:Drivers/display_ILI-93xx_sm/lcd.c **** 	GPIOB->ODR = (GPIOB->ODR & 0xFBC7) | (data & 0x08) | ((data & 0x10) << 1) | ((data & 0x20) >> 1) |
 3590              		.loc 1 860 77 view .LVU1125
 3591 0118 0B02     		lsls	r3, r1, #8
 3592 011a 03F48063 		and	r3, r3, #1024
 860:Drivers/display_ILI-93xx_sm/lcd.c **** 	GPIOB->ODR = (GPIOB->ODR & 0xFBC7) | (data & 0x08) | ((data & 0x10) << 1) | ((data & 0x20) >> 1) |
 3593              		.loc 1 860 60 view .LVU1126
 3594 011e 1843     		orrs	r0, r0, r3
 860:Drivers/display_ILI-93xx_sm/lcd.c **** 	GPIOB->ODR = (GPIOB->ODR & 0xFBC7) | (data & 0x08) | ((data & 0x10) << 1) | ((data & 0x20) >> 1) |
 3595              		.loc 1 860 100 view .LVU1127
 3596 0120 4D00     		lsls	r5, r1, #1
 3597 0122 05F48073 		and	r3, r5, #256
 860:Drivers/display_ILI-93xx_sm/lcd.c **** 	GPIOB->ODR = (GPIOB->ODR & 0xFBC7) | (data & 0x08) | ((data & 0x10) << 1) | ((data & 0x20) >> 1) |
 3598              		.loc 1 860 83 view .LVU1128
 3599 0126 1843     		orrs	r0, r0, r3
 860:Drivers/display_ILI-93xx_sm/lcd.c **** 	GPIOB->ODR = (GPIOB->ODR & 0xFBC7) | (data & 0x08) | ((data & 0x10) << 1) | ((data & 0x20) >> 1) |
 3600              		.loc 1 860 123 view .LVU1129
 3601 0128 8B01     		lsls	r3, r1, #6
 3602 012a 03F08003 		and	r3, r3, #128
 860:Drivers/display_ILI-93xx_sm/lcd.c **** 	GPIOB->ODR = (GPIOB->ODR & 0xFBC7) | (data & 0x08) | ((data & 0x10) << 1) | ((data & 0x20) >> 1) |
 3603              		.loc 1 860 106 view .LVU1130
 3604 012e 1843     		orrs	r0, r0, r3
 860:Drivers/display_ILI-93xx_sm/lcd.c **** 	GPIOB->ODR = (GPIOB->ODR & 0xFBC7) | (data & 0x08) | ((data & 0x10) << 1) | ((data & 0x20) >> 1) |
 3605              		.loc 1 860 13 view .LVU1131
 3606 0130 E060     		str	r0, [r4, #12]
 861:Drivers/display_ILI-93xx_sm/lcd.c **** #else
 3607              		.loc 1 861 2 is_stmt 1 view .LVU1132
 861:Drivers/display_ILI-93xx_sm/lcd.c **** #else
 3608              		.loc 1 861 21 is_stmt 0 view .LVU1133
 3609 0132 3348     		ldr	r0, .L182+4
 3610 0134 C368     		ldr	r3, [r0, #12]
 861:Drivers/display_ILI-93xx_sm/lcd.c **** #else
 3611              		.loc 1 861 27 view .LVU1134
ARM GAS  /tmp/cc47Teva.s 			page 98


 3612 0136 23F48763 		bic	r3, r3, #1080
 3613 013a 1B04     		lsls	r3, r3, #16
 3614 013c 1B0C     		lsrs	r3, r3, #16
 861:Drivers/display_ILI-93xx_sm/lcd.c **** #else
 3615              		.loc 1 861 45 view .LVU1135
 3616 013e 01F00806 		and	r6, r1, #8
 861:Drivers/display_ILI-93xx_sm/lcd.c **** #else
 3617              		.loc 1 861 37 view .LVU1136
 3618 0142 3343     		orrs	r3, r3, r6
 861:Drivers/display_ILI-93xx_sm/lcd.c **** #else
 3619              		.loc 1 861 70 view .LVU1137
 3620 0144 05F02005 		and	r5, r5, #32
 861:Drivers/display_ILI-93xx_sm/lcd.c **** #else
 3621              		.loc 1 861 53 view .LVU1138
 3622 0148 2B43     		orrs	r3, r3, r5
 861:Drivers/display_ILI-93xx_sm/lcd.c **** #else
 3623              		.loc 1 861 93 view .LVU1139
 3624 014a 4D10     		asrs	r5, r1, #1
 3625 014c 05F01005 		and	r5, r5, #16
 861:Drivers/display_ILI-93xx_sm/lcd.c **** #else
 3626              		.loc 1 861 76 view .LVU1140
 3627 0150 2B43     		orrs	r3, r3, r5
 861:Drivers/display_ILI-93xx_sm/lcd.c **** #else
 3628              		.loc 1 861 116 view .LVU1141
 3629 0152 0901     		lsls	r1, r1, #4
 3630              	.LVL203:
 861:Drivers/display_ILI-93xx_sm/lcd.c **** #else
 3631              		.loc 1 861 116 view .LVU1142
 3632 0154 01F48061 		and	r1, r1, #1024
 861:Drivers/display_ILI-93xx_sm/lcd.c **** #else
 3633              		.loc 1 861 99 view .LVU1143
 3634 0158 0B43     		orrs	r3, r3, r1
 861:Drivers/display_ILI-93xx_sm/lcd.c **** #else
 3635              		.loc 1 861 13 view .LVU1144
 3636 015a C360     		str	r3, [r0, #12]
 869:Drivers/display_ILI-93xx_sm/lcd.c **** }
 3637              		.loc 1 869 2 is_stmt 1 view .LVU1145
 869:Drivers/display_ILI-93xx_sm/lcd.c **** }
 3638              		.loc 1 869 2 view .LVU1146
 3639 015c 4FF40033 		mov	r3, #131072
 3640 0160 2361     		str	r3, [r4, #16]
 869:Drivers/display_ILI-93xx_sm/lcd.c **** }
 3641              		.loc 1 869 2 view .LVU1147
 3642              	.LVL204:
 3643              	.LBB359:
 3644              	.LBI359:
 668:Drivers/display_ILI-93xx_sm/lcd.c **** 	for (; t; t--) __asm("nop");
 3645              		.loc 1 668 13 view .LVU1148
 3646              	.LBB360:
 669:Drivers/display_ILI-93xx_sm/lcd.c **** }
 3647              		.loc 1 669 2 view .LVU1149
 3648              	.LBE360:
 3649              	.LBE359:
 869:Drivers/display_ILI-93xx_sm/lcd.c **** }
 3650              		.loc 1 869 2 is_stmt 0 view .LVU1150
 3651 0162 0223     		movs	r3, #2
 3652              	.LVL205:
ARM GAS  /tmp/cc47Teva.s 			page 99


 3653              	.L166:
 3654              	.LBB362:
 3655              	.LBB361:
 669:Drivers/display_ILI-93xx_sm/lcd.c **** }
 3656              		.loc 1 669 2 view .LVU1151
 3657 0164 13B1     		cbz	r3, .L179
 669:Drivers/display_ILI-93xx_sm/lcd.c **** }
 3658              		.loc 1 669 17 is_stmt 1 view .LVU1152
 3659              		.syntax unified
 3660              	@ 669 "Drivers/display_ILI-93xx_sm/lcd.c" 1
 3661 0166 00BF     		nop
 3662              	@ 0 "" 2
 669:Drivers/display_ILI-93xx_sm/lcd.c **** }
 3663              		.loc 1 669 13 is_stmt 0 view .LVU1153
 3664              		.thumb
 3665              		.syntax unified
 3666 0168 013B     		subs	r3, r3, #1
 3667              	.LVL206:
 669:Drivers/display_ILI-93xx_sm/lcd.c **** }
 3668              		.loc 1 669 13 view .LVU1154
 3669 016a FBE7     		b	.L166
 3670              	.L179:
 3671              	.LVL207:
 669:Drivers/display_ILI-93xx_sm/lcd.c **** }
 3672              		.loc 1 669 13 view .LVU1155
 3673              	.LBE361:
 3674              	.LBE362:
 869:Drivers/display_ILI-93xx_sm/lcd.c **** }
 3675              		.loc 1 869 2 is_stmt 1 view .LVU1156
 3676 016c 0223     		movs	r3, #2
 3677 016e 2349     		ldr	r1, .L182
 3678 0170 0B61     		str	r3, [r1, #16]
 869:Drivers/display_ILI-93xx_sm/lcd.c **** }
 3679              		.loc 1 869 2 view .LVU1157
 3680              	.LVL208:
 3681              	.LBB363:
 3682              	.LBI363:
 668:Drivers/display_ILI-93xx_sm/lcd.c **** 	for (; t; t--) __asm("nop");
 3683              		.loc 1 668 13 view .LVU1158
 3684              	.L168:
 3685              	.LBB364:
 669:Drivers/display_ILI-93xx_sm/lcd.c **** }
 3686              		.loc 1 669 2 is_stmt 0 view .LVU1159
 3687 0172 13B1     		cbz	r3, .L180
 669:Drivers/display_ILI-93xx_sm/lcd.c **** }
 3688              		.loc 1 669 17 is_stmt 1 view .LVU1160
 3689              		.syntax unified
 3690              	@ 669 "Drivers/display_ILI-93xx_sm/lcd.c" 1
 3691 0174 00BF     		nop
 3692              	@ 0 "" 2
 669:Drivers/display_ILI-93xx_sm/lcd.c **** }
 3693              		.loc 1 669 13 is_stmt 0 view .LVU1161
 3694              		.thumb
 3695              		.syntax unified
 3696 0176 013B     		subs	r3, r3, #1
 3697              	.LVL209:
 669:Drivers/display_ILI-93xx_sm/lcd.c **** }
ARM GAS  /tmp/cc47Teva.s 			page 100


 3698              		.loc 1 669 13 view .LVU1162
 3699 0178 FBE7     		b	.L168
 3700              	.L180:
 3701              	.LVL210:
 669:Drivers/display_ILI-93xx_sm/lcd.c **** }
 3702              		.loc 1 669 13 view .LVU1163
 3703              	.LBE364:
 3704              	.LBE363:
 3705              	.LBE358:
 3706              	.LBE357:
 918:Drivers/display_ILI-93xx_sm/lcd.c **** 	LCD_Write8(d);
 3707              		.loc 1 918 2 is_stmt 1 view .LVU1164
 3708 017a 2048     		ldr	r0, .L182
 3709 017c 1023     		movs	r3, #16
 3710 017e 0361     		str	r3, [r0, #16]
 919:Drivers/display_ILI-93xx_sm/lcd.c **** }
 3711              		.loc 1 919 2 view .LVU1165
 3712              	.LVL211:
 3713              	.LBB365:
 3714              	.LBI365:
 847:Drivers/display_ILI-93xx_sm/lcd.c **** 	// ------ PORT -----     --- Data ----
 3715              		.loc 1 847 13 view .LVU1166
 3716              	.LBB366:
 860:Drivers/display_ILI-93xx_sm/lcd.c **** 	GPIOB->ODR = (GPIOB->ODR & 0xFBC7) | (data & 0x08) | ((data & 0x10) << 1) | ((data & 0x20) >> 1) |
 3717              		.loc 1 860 2 view .LVU1167
 860:Drivers/display_ILI-93xx_sm/lcd.c **** 	GPIOB->ODR = (GPIOB->ODR & 0xFBC7) | (data & 0x08) | ((data & 0x10) << 1) | ((data & 0x20) >> 1) |
 3718              		.loc 1 860 21 is_stmt 0 view .LVU1168
 3719 0180 C168     		ldr	r1, [r0, #12]
 860:Drivers/display_ILI-93xx_sm/lcd.c **** 	GPIOB->ODR = (GPIOB->ODR & 0xFBC7) | (data & 0x08) | ((data & 0x10) << 1) | ((data & 0x20) >> 1) |
 3720              		.loc 1 860 27 view .LVU1169
 3721 0182 21F4F061 		bic	r1, r1, #1920
 3722 0186 0904     		lsls	r1, r1, #16
 3723 0188 090C     		lsrs	r1, r1, #16
 860:Drivers/display_ILI-93xx_sm/lcd.c **** 	GPIOB->ODR = (GPIOB->ODR & 0xFBC7) | (data & 0x08) | ((data & 0x10) << 1) | ((data & 0x20) >> 1) |
 3724              		.loc 1 860 54 view .LVU1170
 3725 018a 5302     		lsls	r3, r2, #9
 3726 018c 03F40073 		and	r3, r3, #512
 860:Drivers/display_ILI-93xx_sm/lcd.c **** 	GPIOB->ODR = (GPIOB->ODR & 0xFBC7) | (data & 0x08) | ((data & 0x10) << 1) | ((data & 0x20) >> 1) |
 3727              		.loc 1 860 37 view .LVU1171
 3728 0190 1943     		orrs	r1, r1, r3
 860:Drivers/display_ILI-93xx_sm/lcd.c **** 	GPIOB->ODR = (GPIOB->ODR & 0xFBC7) | (data & 0x08) | ((data & 0x10) << 1) | ((data & 0x20) >> 1) |
 3729              		.loc 1 860 77 view .LVU1172
 3730 0192 1302     		lsls	r3, r2, #8
 3731 0194 03F48063 		and	r3, r3, #1024
 860:Drivers/display_ILI-93xx_sm/lcd.c **** 	GPIOB->ODR = (GPIOB->ODR & 0xFBC7) | (data & 0x08) | ((data & 0x10) << 1) | ((data & 0x20) >> 1) |
 3732              		.loc 1 860 60 view .LVU1173
 3733 0198 1943     		orrs	r1, r1, r3
 860:Drivers/display_ILI-93xx_sm/lcd.c **** 	GPIOB->ODR = (GPIOB->ODR & 0xFBC7) | (data & 0x08) | ((data & 0x10) << 1) | ((data & 0x20) >> 1) |
 3734              		.loc 1 860 100 view .LVU1174
 3735 019a 5400     		lsls	r4, r2, #1
 3736 019c 04F48073 		and	r3, r4, #256
 860:Drivers/display_ILI-93xx_sm/lcd.c **** 	GPIOB->ODR = (GPIOB->ODR & 0xFBC7) | (data & 0x08) | ((data & 0x10) << 1) | ((data & 0x20) >> 1) |
 3737              		.loc 1 860 83 view .LVU1175
 3738 01a0 1943     		orrs	r1, r1, r3
 860:Drivers/display_ILI-93xx_sm/lcd.c **** 	GPIOB->ODR = (GPIOB->ODR & 0xFBC7) | (data & 0x08) | ((data & 0x10) << 1) | ((data & 0x20) >> 1) |
 3739              		.loc 1 860 123 view .LVU1176
 3740 01a2 9301     		lsls	r3, r2, #6
ARM GAS  /tmp/cc47Teva.s 			page 101


 3741 01a4 03F08003 		and	r3, r3, #128
 860:Drivers/display_ILI-93xx_sm/lcd.c **** 	GPIOB->ODR = (GPIOB->ODR & 0xFBC7) | (data & 0x08) | ((data & 0x10) << 1) | ((data & 0x20) >> 1) |
 3742              		.loc 1 860 106 view .LVU1177
 3743 01a8 1943     		orrs	r1, r1, r3
 860:Drivers/display_ILI-93xx_sm/lcd.c **** 	GPIOB->ODR = (GPIOB->ODR & 0xFBC7) | (data & 0x08) | ((data & 0x10) << 1) | ((data & 0x20) >> 1) |
 3744              		.loc 1 860 13 view .LVU1178
 3745 01aa C160     		str	r1, [r0, #12]
 861:Drivers/display_ILI-93xx_sm/lcd.c **** #else
 3746              		.loc 1 861 2 is_stmt 1 view .LVU1179
 861:Drivers/display_ILI-93xx_sm/lcd.c **** #else
 3747              		.loc 1 861 21 is_stmt 0 view .LVU1180
 3748 01ac 144D     		ldr	r5, .L182+4
 3749 01ae EB68     		ldr	r3, [r5, #12]
 861:Drivers/display_ILI-93xx_sm/lcd.c **** #else
 3750              		.loc 1 861 27 view .LVU1181
 3751 01b0 23F48763 		bic	r3, r3, #1080
 3752 01b4 1B04     		lsls	r3, r3, #16
 3753 01b6 1B0C     		lsrs	r3, r3, #16
 861:Drivers/display_ILI-93xx_sm/lcd.c **** #else
 3754              		.loc 1 861 45 view .LVU1182
 3755 01b8 02F00801 		and	r1, r2, #8
 861:Drivers/display_ILI-93xx_sm/lcd.c **** #else
 3756              		.loc 1 861 37 view .LVU1183
 3757 01bc 0B43     		orrs	r3, r3, r1
 861:Drivers/display_ILI-93xx_sm/lcd.c **** #else
 3758              		.loc 1 861 70 view .LVU1184
 3759 01be 04F02004 		and	r4, r4, #32
 861:Drivers/display_ILI-93xx_sm/lcd.c **** #else
 3760              		.loc 1 861 53 view .LVU1185
 3761 01c2 2343     		orrs	r3, r3, r4
 861:Drivers/display_ILI-93xx_sm/lcd.c **** #else
 3762              		.loc 1 861 93 view .LVU1186
 3763 01c4 5110     		asrs	r1, r2, #1
 3764 01c6 01F01001 		and	r1, r1, #16
 861:Drivers/display_ILI-93xx_sm/lcd.c **** #else
 3765              		.loc 1 861 76 view .LVU1187
 3766 01ca 0B43     		orrs	r3, r3, r1
 861:Drivers/display_ILI-93xx_sm/lcd.c **** #else
 3767              		.loc 1 861 116 view .LVU1188
 3768 01cc 1201     		lsls	r2, r2, #4
 3769              	.LVL212:
 861:Drivers/display_ILI-93xx_sm/lcd.c **** #else
 3770              		.loc 1 861 116 view .LVU1189
 3771 01ce 02F48062 		and	r2, r2, #1024
 861:Drivers/display_ILI-93xx_sm/lcd.c **** #else
 3772              		.loc 1 861 99 view .LVU1190
 3773 01d2 1A43     		orrs	r2, r2, r3
 861:Drivers/display_ILI-93xx_sm/lcd.c **** #else
 3774              		.loc 1 861 13 view .LVU1191
 3775 01d4 EA60     		str	r2, [r5, #12]
 869:Drivers/display_ILI-93xx_sm/lcd.c **** }
 3776              		.loc 1 869 2 is_stmt 1 view .LVU1192
 869:Drivers/display_ILI-93xx_sm/lcd.c **** }
 3777              		.loc 1 869 2 view .LVU1193
 3778 01d6 4FF40033 		mov	r3, #131072
 3779 01da 0361     		str	r3, [r0, #16]
 869:Drivers/display_ILI-93xx_sm/lcd.c **** }
ARM GAS  /tmp/cc47Teva.s 			page 102


 3780              		.loc 1 869 2 view .LVU1194
 3781              	.LVL213:
 3782              	.LBB367:
 3783              	.LBI367:
 668:Drivers/display_ILI-93xx_sm/lcd.c **** 	for (; t; t--) __asm("nop");
 3784              		.loc 1 668 13 view .LVU1195
 3785              	.LBB368:
 669:Drivers/display_ILI-93xx_sm/lcd.c **** }
 3786              		.loc 1 669 2 view .LVU1196
 3787              	.LBE368:
 3788              	.LBE367:
 869:Drivers/display_ILI-93xx_sm/lcd.c **** }
 3789              		.loc 1 869 2 is_stmt 0 view .LVU1197
 3790 01dc 0223     		movs	r3, #2
 3791              	.LVL214:
 3792              	.L170:
 3793              	.LBB370:
 3794              	.LBB369:
 669:Drivers/display_ILI-93xx_sm/lcd.c **** }
 3795              		.loc 1 669 2 view .LVU1198
 3796 01de 13B1     		cbz	r3, .L181
 669:Drivers/display_ILI-93xx_sm/lcd.c **** }
 3797              		.loc 1 669 17 is_stmt 1 view .LVU1199
 3798              		.syntax unified
 3799              	@ 669 "Drivers/display_ILI-93xx_sm/lcd.c" 1
 3800 01e0 00BF     		nop
 3801              	@ 0 "" 2
 669:Drivers/display_ILI-93xx_sm/lcd.c **** }
 3802              		.loc 1 669 13 is_stmt 0 view .LVU1200
 3803              		.thumb
 3804              		.syntax unified
 3805 01e2 013B     		subs	r3, r3, #1
 3806              	.LVL215:
 669:Drivers/display_ILI-93xx_sm/lcd.c **** }
 3807              		.loc 1 669 13 view .LVU1201
 3808 01e4 FBE7     		b	.L170
 3809              	.L181:
 3810              	.LVL216:
 669:Drivers/display_ILI-93xx_sm/lcd.c **** }
 3811              		.loc 1 669 13 view .LVU1202
 3812              	.LBE369:
 3813              	.LBE370:
 869:Drivers/display_ILI-93xx_sm/lcd.c **** }
 3814              		.loc 1 869 2 is_stmt 1 view .LVU1203
 3815 01e6 0223     		movs	r3, #2
 3816 01e8 044A     		ldr	r2, .L182
 3817 01ea 1361     		str	r3, [r2, #16]
 869:Drivers/display_ILI-93xx_sm/lcd.c **** }
 3818              		.loc 1 869 2 view .LVU1204
 3819              	.LVL217:
 3820              	.LBB371:
 3821              	.LBI371:
 668:Drivers/display_ILI-93xx_sm/lcd.c **** 	for (; t; t--) __asm("nop");
 3822              		.loc 1 668 13 view .LVU1205
 3823 01ec 01E0     		b	.L172
 3824              	.LVL218:
 3825              	.L173:
ARM GAS  /tmp/cc47Teva.s 			page 103


 3826              	.LBB372:
 669:Drivers/display_ILI-93xx_sm/lcd.c **** }
 3827              		.loc 1 669 17 view .LVU1206
 3828              		.syntax unified
 3829              	@ 669 "Drivers/display_ILI-93xx_sm/lcd.c" 1
 3830 01ee 00BF     		nop
 3831              	@ 0 "" 2
 669:Drivers/display_ILI-93xx_sm/lcd.c **** }
 3832              		.loc 1 669 13 is_stmt 0 view .LVU1207
 3833              		.thumb
 3834              		.syntax unified
 3835 01f0 013B     		subs	r3, r3, #1
 3836              	.LVL219:
 3837              	.L172:
 669:Drivers/display_ILI-93xx_sm/lcd.c **** }
 3838              		.loc 1 669 2 view .LVU1208
 3839 01f2 002B     		cmp	r3, #0
 3840 01f4 FBD1     		bne	.L173
 3841              	.LBE372:
 3842              	.LBE371:
 3843              	.LBE366:
 3844              	.LBE365:
 3845              	.LBE356:
 3846              	.LBE355:
1002:Drivers/display_ILI-93xx_sm/lcd.c **** }
 3847              		.loc 1 1002 1 view .LVU1209
 3848 01f6 F0BC     		pop	{r4, r5, r6, r7}
 3849              	.LCFI16:
 3850              		.cfi_restore 7
 3851              		.cfi_restore 6
 3852              		.cfi_restore 5
 3853              		.cfi_restore 4
 3854              		.cfi_def_cfa_offset 0
 3855 01f8 7047     		bx	lr
 3856              	.L183:
 3857 01fa 00BF     		.align	2
 3858              	.L182:
 3859 01fc 00080140 		.word	1073809408
 3860 0200 000C0140 		.word	1073810432
 3861              		.cfi_endproc
 3862              	.LFE77:
 3864              		.section	.text.LCD_Read8Register8,"ax",%progbits
 3865              		.align	1
 3866              		.global	LCD_Read8Register8
 3867              		.syntax unified
 3868              		.thumb
 3869              		.thumb_func
 3870              		.fpu softvfp
 3872              	LCD_Read8Register8:
 3873              	.LVL220:
 3874              	.LFB78:
1003:Drivers/display_ILI-93xx_sm/lcd.c **** 
1004:Drivers/display_ILI-93xx_sm/lcd.c **** /**
1005:Drivers/display_ILI-93xx_sm/lcd.c ****  * \brief Reads 8-Bit data from register (8-bit address)
1006:Drivers/display_ILI-93xx_sm/lcd.c ****  *
1007:Drivers/display_ILI-93xx_sm/lcd.c ****  * \param a		Register
1008:Drivers/display_ILI-93xx_sm/lcd.c ****  * \param d		Data
ARM GAS  /tmp/cc47Teva.s 			page 104


1009:Drivers/display_ILI-93xx_sm/lcd.c ****  *
1010:Drivers/display_ILI-93xx_sm/lcd.c ****  * \return void
1011:Drivers/display_ILI-93xx_sm/lcd.c ****  */
1012:Drivers/display_ILI-93xx_sm/lcd.c **** inline uint8_t LCD_Read8Register8(uint8_t a, uint8_t dummy) {
 3875              		.loc 1 1012 61 is_stmt 1 view -0
 3876              		.cfi_startproc
 3877              		@ args = 0, pretend = 0, frame = 0
 3878              		@ frame_needed = 0, uses_anonymous_args = 0
 3879              		.loc 1 1012 61 is_stmt 0 view .LVU1211
 3880 0000 70B5     		push	{r4, r5, r6, lr}
 3881              	.LCFI17:
 3882              		.cfi_def_cfa_offset 16
 3883              		.cfi_offset 4, -16
 3884              		.cfi_offset 5, -12
 3885              		.cfi_offset 6, -8
 3886              		.cfi_offset 14, -4
 3887 0002 0C46     		mov	r4, r1
1013:Drivers/display_ILI-93xx_sm/lcd.c **** 	uint8_t data;
 3888              		.loc 1 1013 2 is_stmt 1 view .LVU1212
1014:Drivers/display_ILI-93xx_sm/lcd.c **** 	LCD_CD_COMMAND();
 3889              		.loc 1 1014 2 view .LVU1213
 3890 0004 4B49     		ldr	r1, .L204
 3891              	.LVL221:
 3892              		.loc 1 1014 2 is_stmt 0 view .LVU1214
 3893 0006 4FF48013 		mov	r3, #1048576
 3894 000a 0B61     		str	r3, [r1, #16]
1015:Drivers/display_ILI-93xx_sm/lcd.c **** 	LCD_Write8(a);
 3895              		.loc 1 1015 2 is_stmt 1 view .LVU1215
 3896              	.LVL222:
 3897              	.LBB389:
 3898              	.LBI389:
 847:Drivers/display_ILI-93xx_sm/lcd.c **** 	// ------ PORT -----     --- Data ----
 3899              		.loc 1 847 13 view .LVU1216
 3900              	.LBB390:
 860:Drivers/display_ILI-93xx_sm/lcd.c **** 	GPIOB->ODR = (GPIOB->ODR & 0xFBC7) | (data & 0x08) | ((data & 0x10) << 1) | ((data & 0x20) >> 1) |
 3901              		.loc 1 860 2 view .LVU1217
 860:Drivers/display_ILI-93xx_sm/lcd.c **** 	GPIOB->ODR = (GPIOB->ODR & 0xFBC7) | (data & 0x08) | ((data & 0x10) << 1) | ((data & 0x20) >> 1) |
 3902              		.loc 1 860 21 is_stmt 0 view .LVU1218
 3903 000c CA68     		ldr	r2, [r1, #12]
 860:Drivers/display_ILI-93xx_sm/lcd.c **** 	GPIOB->ODR = (GPIOB->ODR & 0xFBC7) | (data & 0x08) | ((data & 0x10) << 1) | ((data & 0x20) >> 1) |
 3904              		.loc 1 860 27 view .LVU1219
 3905 000e 22F4F062 		bic	r2, r2, #1920
 3906 0012 1204     		lsls	r2, r2, #16
 3907 0014 120C     		lsrs	r2, r2, #16
 860:Drivers/display_ILI-93xx_sm/lcd.c **** 	GPIOB->ODR = (GPIOB->ODR & 0xFBC7) | (data & 0x08) | ((data & 0x10) << 1) | ((data & 0x20) >> 1) |
 3908              		.loc 1 860 54 view .LVU1220
 3909 0016 4302     		lsls	r3, r0, #9
 3910 0018 03F40073 		and	r3, r3, #512
 860:Drivers/display_ILI-93xx_sm/lcd.c **** 	GPIOB->ODR = (GPIOB->ODR & 0xFBC7) | (data & 0x08) | ((data & 0x10) << 1) | ((data & 0x20) >> 1) |
 3911              		.loc 1 860 37 view .LVU1221
 3912 001c 1A43     		orrs	r2, r2, r3
 860:Drivers/display_ILI-93xx_sm/lcd.c **** 	GPIOB->ODR = (GPIOB->ODR & 0xFBC7) | (data & 0x08) | ((data & 0x10) << 1) | ((data & 0x20) >> 1) |
 3913              		.loc 1 860 77 view .LVU1222
 3914 001e 0302     		lsls	r3, r0, #8
 3915 0020 03F48063 		and	r3, r3, #1024
 860:Drivers/display_ILI-93xx_sm/lcd.c **** 	GPIOB->ODR = (GPIOB->ODR & 0xFBC7) | (data & 0x08) | ((data & 0x10) << 1) | ((data & 0x20) >> 1) |
 3916              		.loc 1 860 60 view .LVU1223
ARM GAS  /tmp/cc47Teva.s 			page 105


 3917 0024 1A43     		orrs	r2, r2, r3
 860:Drivers/display_ILI-93xx_sm/lcd.c **** 	GPIOB->ODR = (GPIOB->ODR & 0xFBC7) | (data & 0x08) | ((data & 0x10) << 1) | ((data & 0x20) >> 1) |
 3918              		.loc 1 860 100 view .LVU1224
 3919 0026 4500     		lsls	r5, r0, #1
 3920 0028 05F48073 		and	r3, r5, #256
 860:Drivers/display_ILI-93xx_sm/lcd.c **** 	GPIOB->ODR = (GPIOB->ODR & 0xFBC7) | (data & 0x08) | ((data & 0x10) << 1) | ((data & 0x20) >> 1) |
 3921              		.loc 1 860 83 view .LVU1225
 3922 002c 1A43     		orrs	r2, r2, r3
 860:Drivers/display_ILI-93xx_sm/lcd.c **** 	GPIOB->ODR = (GPIOB->ODR & 0xFBC7) | (data & 0x08) | ((data & 0x10) << 1) | ((data & 0x20) >> 1) |
 3923              		.loc 1 860 123 view .LVU1226
 3924 002e 8301     		lsls	r3, r0, #6
 3925 0030 03F08003 		and	r3, r3, #128
 860:Drivers/display_ILI-93xx_sm/lcd.c **** 	GPIOB->ODR = (GPIOB->ODR & 0xFBC7) | (data & 0x08) | ((data & 0x10) << 1) | ((data & 0x20) >> 1) |
 3926              		.loc 1 860 106 view .LVU1227
 3927 0034 1A43     		orrs	r2, r2, r3
 860:Drivers/display_ILI-93xx_sm/lcd.c **** 	GPIOB->ODR = (GPIOB->ODR & 0xFBC7) | (data & 0x08) | ((data & 0x10) << 1) | ((data & 0x20) >> 1) |
 3928              		.loc 1 860 13 view .LVU1228
 3929 0036 CA60     		str	r2, [r1, #12]
 861:Drivers/display_ILI-93xx_sm/lcd.c **** #else
 3930              		.loc 1 861 2 is_stmt 1 view .LVU1229
 861:Drivers/display_ILI-93xx_sm/lcd.c **** #else
 3931              		.loc 1 861 21 is_stmt 0 view .LVU1230
 3932 0038 3F4A     		ldr	r2, .L204+4
 3933 003a D368     		ldr	r3, [r2, #12]
 861:Drivers/display_ILI-93xx_sm/lcd.c **** #else
 3934              		.loc 1 861 27 view .LVU1231
 3935 003c 23F48763 		bic	r3, r3, #1080
 3936 0040 1B04     		lsls	r3, r3, #16
 3937 0042 1B0C     		lsrs	r3, r3, #16
 861:Drivers/display_ILI-93xx_sm/lcd.c **** #else
 3938              		.loc 1 861 45 view .LVU1232
 3939 0044 00F00806 		and	r6, r0, #8
 861:Drivers/display_ILI-93xx_sm/lcd.c **** #else
 3940              		.loc 1 861 37 view .LVU1233
 3941 0048 3343     		orrs	r3, r3, r6
 861:Drivers/display_ILI-93xx_sm/lcd.c **** #else
 3942              		.loc 1 861 70 view .LVU1234
 3943 004a 05F02005 		and	r5, r5, #32
 861:Drivers/display_ILI-93xx_sm/lcd.c **** #else
 3944              		.loc 1 861 53 view .LVU1235
 3945 004e 2B43     		orrs	r3, r3, r5
 861:Drivers/display_ILI-93xx_sm/lcd.c **** #else
 3946              		.loc 1 861 93 view .LVU1236
 3947 0050 4510     		asrs	r5, r0, #1
 3948 0052 05F01005 		and	r5, r5, #16
 861:Drivers/display_ILI-93xx_sm/lcd.c **** #else
 3949              		.loc 1 861 76 view .LVU1237
 3950 0056 2B43     		orrs	r3, r3, r5
 861:Drivers/display_ILI-93xx_sm/lcd.c **** #else
 3951              		.loc 1 861 116 view .LVU1238
 3952 0058 0001     		lsls	r0, r0, #4
 3953              	.LVL223:
 861:Drivers/display_ILI-93xx_sm/lcd.c **** #else
 3954              		.loc 1 861 116 view .LVU1239
 3955 005a 00F48060 		and	r0, r0, #1024
 861:Drivers/display_ILI-93xx_sm/lcd.c **** #else
 3956              		.loc 1 861 99 view .LVU1240
ARM GAS  /tmp/cc47Teva.s 			page 106


 3957 005e 0343     		orrs	r3, r3, r0
 861:Drivers/display_ILI-93xx_sm/lcd.c **** #else
 3958              		.loc 1 861 13 view .LVU1241
 3959 0060 D360     		str	r3, [r2, #12]
 869:Drivers/display_ILI-93xx_sm/lcd.c **** }
 3960              		.loc 1 869 2 is_stmt 1 view .LVU1242
 869:Drivers/display_ILI-93xx_sm/lcd.c **** }
 3961              		.loc 1 869 2 view .LVU1243
 3962 0062 4FF40033 		mov	r3, #131072
 3963 0066 0B61     		str	r3, [r1, #16]
 869:Drivers/display_ILI-93xx_sm/lcd.c **** }
 3964              		.loc 1 869 2 view .LVU1244
 3965              	.LVL224:
 3966              	.LBB391:
 3967              	.LBI391:
 668:Drivers/display_ILI-93xx_sm/lcd.c **** 	for (; t; t--) __asm("nop");
 3968              		.loc 1 668 13 view .LVU1245
 3969              	.LBB392:
 669:Drivers/display_ILI-93xx_sm/lcd.c **** }
 3970              		.loc 1 669 2 view .LVU1246
 3971              	.LBE392:
 3972              	.LBE391:
 869:Drivers/display_ILI-93xx_sm/lcd.c **** }
 3973              		.loc 1 869 2 is_stmt 0 view .LVU1247
 3974 0068 0223     		movs	r3, #2
 3975              	.LVL225:
 3976              	.L185:
 3977              	.LBB394:
 3978              	.LBB393:
 669:Drivers/display_ILI-93xx_sm/lcd.c **** }
 3979              		.loc 1 669 2 view .LVU1248
 3980 006a 13B1     		cbz	r3, .L199
 669:Drivers/display_ILI-93xx_sm/lcd.c **** }
 3981              		.loc 1 669 17 is_stmt 1 view .LVU1249
 3982              		.syntax unified
 3983              	@ 669 "Drivers/display_ILI-93xx_sm/lcd.c" 1
 3984 006c 00BF     		nop
 3985              	@ 0 "" 2
 669:Drivers/display_ILI-93xx_sm/lcd.c **** }
 3986              		.loc 1 669 13 is_stmt 0 view .LVU1250
 3987              		.thumb
 3988              		.syntax unified
 3989 006e 013B     		subs	r3, r3, #1
 3990              	.LVL226:
 669:Drivers/display_ILI-93xx_sm/lcd.c **** }
 3991              		.loc 1 669 13 view .LVU1251
 3992 0070 FBE7     		b	.L185
 3993              	.L199:
 3994              	.LVL227:
 669:Drivers/display_ILI-93xx_sm/lcd.c **** }
 3995              		.loc 1 669 13 view .LVU1252
 3996              	.LBE393:
 3997              	.LBE394:
 869:Drivers/display_ILI-93xx_sm/lcd.c **** }
 3998              		.loc 1 869 2 is_stmt 1 view .LVU1253
 3999 0072 0223     		movs	r3, #2
 4000 0074 2F4A     		ldr	r2, .L204
ARM GAS  /tmp/cc47Teva.s 			page 107


 4001 0076 1361     		str	r3, [r2, #16]
 869:Drivers/display_ILI-93xx_sm/lcd.c **** }
 4002              		.loc 1 869 2 view .LVU1254
 4003              	.LVL228:
 4004              	.LBB395:
 4005              	.LBI395:
 668:Drivers/display_ILI-93xx_sm/lcd.c **** 	for (; t; t--) __asm("nop");
 4006              		.loc 1 668 13 view .LVU1255
 4007              	.L187:
 4008              	.LBB396:
 669:Drivers/display_ILI-93xx_sm/lcd.c **** }
 4009              		.loc 1 669 2 is_stmt 0 view .LVU1256
 4010 0078 13B1     		cbz	r3, .L200
 669:Drivers/display_ILI-93xx_sm/lcd.c **** }
 4011              		.loc 1 669 17 is_stmt 1 view .LVU1257
 4012              		.syntax unified
 4013              	@ 669 "Drivers/display_ILI-93xx_sm/lcd.c" 1
 4014 007a 00BF     		nop
 4015              	@ 0 "" 2
 669:Drivers/display_ILI-93xx_sm/lcd.c **** }
 4016              		.loc 1 669 13 is_stmt 0 view .LVU1258
 4017              		.thumb
 4018              		.syntax unified
 4019 007c 013B     		subs	r3, r3, #1
 4020              	.LVL229:
 669:Drivers/display_ILI-93xx_sm/lcd.c **** }
 4021              		.loc 1 669 13 view .LVU1259
 4022 007e FBE7     		b	.L187
 4023              	.L200:
 4024              	.LVL230:
 669:Drivers/display_ILI-93xx_sm/lcd.c **** }
 4025              		.loc 1 669 13 view .LVU1260
 4026              	.LBE396:
 4027              	.LBE395:
 4028              	.LBE390:
 4029              	.LBE389:
1016:Drivers/display_ILI-93xx_sm/lcd.c **** 	GPIO_Init(GPIO_MODE_INPUT);
 4030              		.loc 1 1016 2 is_stmt 1 view .LVU1261
 4031 0080 0020     		movs	r0, #0
 4032 0082 FFF7FEFF 		bl	GPIO_Init
 4033              	.LVL231:
1017:Drivers/display_ILI-93xx_sm/lcd.c **** 	LCD_CD_DATA();
 4034              		.loc 1 1017 2 view .LVU1262
 4035 0086 2B4B     		ldr	r3, .L204
 4036 0088 1022     		movs	r2, #16
 4037 008a 1A61     		str	r2, [r3, #16]
1018:Drivers/display_ILI-93xx_sm/lcd.c **** 	if (dummy) LCD_RD_STROBE();
 4038              		.loc 1 1018 2 view .LVU1263
 4039              		.loc 1 1018 5 is_stmt 0 view .LVU1264
 4040 008c 94B1     		cbz	r4, .L189
 4041              		.loc 1 1018 13 is_stmt 1 discriminator 1 view .LVU1265
 4042              		.loc 1 1018 13 discriminator 1 view .LVU1266
 4043 008e 4FF48032 		mov	r2, #65536
 4044 0092 1A61     		str	r2, [r3, #16]
 4045              		.loc 1 1018 13 discriminator 1 view .LVU1267
 4046              	.LVL232:
 4047              	.LBB397:
ARM GAS  /tmp/cc47Teva.s 			page 108


 4048              	.LBI397:
 668:Drivers/display_ILI-93xx_sm/lcd.c **** 	for (; t; t--) __asm("nop");
 4049              		.loc 1 668 13 discriminator 1 view .LVU1268
 4050              	.LBB398:
 669:Drivers/display_ILI-93xx_sm/lcd.c **** }
 4051              		.loc 1 669 2 discriminator 1 view .LVU1269
 4052              	.LBE398:
 4053              	.LBE397:
 4054              		.loc 1 1018 13 is_stmt 0 discriminator 1 view .LVU1270
 4055 0094 0223     		movs	r3, #2
 4056              	.LVL233:
 4057              	.L190:
 4058              	.LBB400:
 4059              	.LBB399:
 669:Drivers/display_ILI-93xx_sm/lcd.c **** }
 4060              		.loc 1 669 2 view .LVU1271
 4061 0096 13B1     		cbz	r3, .L201
 669:Drivers/display_ILI-93xx_sm/lcd.c **** }
 4062              		.loc 1 669 17 is_stmt 1 view .LVU1272
 4063              		.syntax unified
 4064              	@ 669 "Drivers/display_ILI-93xx_sm/lcd.c" 1
 4065 0098 00BF     		nop
 4066              	@ 0 "" 2
 669:Drivers/display_ILI-93xx_sm/lcd.c **** }
 4067              		.loc 1 669 13 is_stmt 0 view .LVU1273
 4068              		.thumb
 4069              		.syntax unified
 4070 009a 013B     		subs	r3, r3, #1
 4071              	.LVL234:
 669:Drivers/display_ILI-93xx_sm/lcd.c **** }
 4072              		.loc 1 669 13 view .LVU1274
 4073 009c FBE7     		b	.L190
 4074              	.L201:
 4075              	.LVL235:
 669:Drivers/display_ILI-93xx_sm/lcd.c **** }
 4076              		.loc 1 669 13 view .LVU1275
 4077              	.LBE399:
 4078              	.LBE400:
 4079              		.loc 1 1018 13 is_stmt 1 discriminator 1 view .LVU1276
 4080 009e 03F18043 		add	r3, r3, #1073741824
 4081 00a2 03F58433 		add	r3, r3, #67584
 4082 00a6 0122     		movs	r2, #1
 4083 00a8 1A61     		str	r2, [r3, #16]
 4084              		.loc 1 1018 13 discriminator 1 view .LVU1277
 4085              	.LVL236:
 4086              	.LBB401:
 4087              	.LBI401:
 668:Drivers/display_ILI-93xx_sm/lcd.c **** 	for (; t; t--) __asm("nop");
 4088              		.loc 1 668 13 discriminator 1 view .LVU1278
 4089              	.LBE401:
 4090              		.loc 1 1018 13 is_stmt 0 discriminator 1 view .LVU1279
 4091 00aa 0223     		movs	r3, #2
 4092              	.LVL237:
 4093              	.L192:
 4094              	.LBB403:
 4095              	.LBB402:
 669:Drivers/display_ILI-93xx_sm/lcd.c **** }
ARM GAS  /tmp/cc47Teva.s 			page 109


 4096              		.loc 1 669 2 view .LVU1280
 4097 00ac 13B1     		cbz	r3, .L189
 669:Drivers/display_ILI-93xx_sm/lcd.c **** }
 4098              		.loc 1 669 17 is_stmt 1 view .LVU1281
 4099              		.syntax unified
 4100              	@ 669 "Drivers/display_ILI-93xx_sm/lcd.c" 1
 4101 00ae 00BF     		nop
 4102              	@ 0 "" 2
 669:Drivers/display_ILI-93xx_sm/lcd.c **** }
 4103              		.loc 1 669 13 is_stmt 0 view .LVU1282
 4104              		.thumb
 4105              		.syntax unified
 4106 00b0 013B     		subs	r3, r3, #1
 4107              	.LVL238:
 669:Drivers/display_ILI-93xx_sm/lcd.c **** }
 4108              		.loc 1 669 13 view .LVU1283
 4109 00b2 FBE7     		b	.L192
 4110              	.LVL239:
 4111              	.L189:
 669:Drivers/display_ILI-93xx_sm/lcd.c **** }
 4112              		.loc 1 669 13 view .LVU1284
 4113              	.LBE402:
 4114              	.LBE403:
1019:Drivers/display_ILI-93xx_sm/lcd.c **** 	data = LCD_Read8();
 4115              		.loc 1 1019 2 is_stmt 1 view .LVU1285
 4116              	.LBB404:
 4117              	.LBI404:
 879:Drivers/display_ILI-93xx_sm/lcd.c **** 	// - Data - ----------- PORT -----------
 4118              		.loc 1 879 16 view .LVU1286
 4119              	.LBB405:
 889:Drivers/display_ILI-93xx_sm/lcd.c **** 	LCD_RD_STROBE();
 4120              		.loc 1 889 2 view .LVU1287
 890:Drivers/display_ILI-93xx_sm/lcd.c **** 
 4121              		.loc 1 890 2 view .LVU1288
 890:Drivers/display_ILI-93xx_sm/lcd.c **** 
 4122              		.loc 1 890 2 view .LVU1289
 4123 00b4 1F4B     		ldr	r3, .L204
 4124 00b6 4FF48032 		mov	r2, #65536
 4125 00ba 1A61     		str	r2, [r3, #16]
 890:Drivers/display_ILI-93xx_sm/lcd.c **** 
 4126              		.loc 1 890 2 view .LVU1290
 4127              	.LVL240:
 4128              	.LBB406:
 4129              	.LBI406:
 668:Drivers/display_ILI-93xx_sm/lcd.c **** 	for (; t; t--) __asm("nop");
 4130              		.loc 1 668 13 view .LVU1291
 4131              	.LBB407:
 669:Drivers/display_ILI-93xx_sm/lcd.c **** }
 4132              		.loc 1 669 2 view .LVU1292
 4133              	.LBE407:
 4134              	.LBE406:
 890:Drivers/display_ILI-93xx_sm/lcd.c **** 
 4135              		.loc 1 890 2 is_stmt 0 view .LVU1293
 4136 00bc 0223     		movs	r3, #2
 4137              	.LVL241:
 4138              	.L194:
 4139              	.LBB409:
ARM GAS  /tmp/cc47Teva.s 			page 110


 4140              	.LBB408:
 669:Drivers/display_ILI-93xx_sm/lcd.c **** }
 4141              		.loc 1 669 2 view .LVU1294
 4142 00be 13B1     		cbz	r3, .L202
 669:Drivers/display_ILI-93xx_sm/lcd.c **** }
 4143              		.loc 1 669 17 is_stmt 1 view .LVU1295
 4144              		.syntax unified
 4145              	@ 669 "Drivers/display_ILI-93xx_sm/lcd.c" 1
 4146 00c0 00BF     		nop
 4147              	@ 0 "" 2
 669:Drivers/display_ILI-93xx_sm/lcd.c **** }
 4148              		.loc 1 669 13 is_stmt 0 view .LVU1296
 4149              		.thumb
 4150              		.syntax unified
 4151 00c2 013B     		subs	r3, r3, #1
 4152              	.LVL242:
 669:Drivers/display_ILI-93xx_sm/lcd.c **** }
 4153              		.loc 1 669 13 view .LVU1297
 4154 00c4 FBE7     		b	.L194
 4155              	.L202:
 4156              	.LVL243:
 669:Drivers/display_ILI-93xx_sm/lcd.c **** }
 4157              		.loc 1 669 13 view .LVU1298
 4158              	.LBE408:
 4159              	.LBE409:
 890:Drivers/display_ILI-93xx_sm/lcd.c **** 
 4160              		.loc 1 890 2 is_stmt 1 view .LVU1299
 4161 00c6 03F18043 		add	r3, r3, #1073741824
 4162 00ca 03F58433 		add	r3, r3, #67584
 4163 00ce 0122     		movs	r2, #1
 4164 00d0 1A61     		str	r2, [r3, #16]
 890:Drivers/display_ILI-93xx_sm/lcd.c **** 
 4165              		.loc 1 890 2 view .LVU1300
 4166              	.LVL244:
 4167              	.LBB410:
 4168              	.LBI410:
 668:Drivers/display_ILI-93xx_sm/lcd.c **** 	for (; t; t--) __asm("nop");
 4169              		.loc 1 668 13 view .LVU1301
 4170              	.LBE410:
 890:Drivers/display_ILI-93xx_sm/lcd.c **** 
 4171              		.loc 1 890 2 is_stmt 0 view .LVU1302
 4172 00d2 0223     		movs	r3, #2
 4173              	.LVL245:
 4174              	.L196:
 4175              	.LBB412:
 4176              	.LBB411:
 669:Drivers/display_ILI-93xx_sm/lcd.c **** }
 4177              		.loc 1 669 2 view .LVU1303
 4178 00d4 13B1     		cbz	r3, .L203
 669:Drivers/display_ILI-93xx_sm/lcd.c **** }
 4179              		.loc 1 669 17 is_stmt 1 view .LVU1304
 4180              		.syntax unified
 4181              	@ 669 "Drivers/display_ILI-93xx_sm/lcd.c" 1
 4182 00d6 00BF     		nop
 4183              	@ 0 "" 2
 669:Drivers/display_ILI-93xx_sm/lcd.c **** }
 4184              		.loc 1 669 13 is_stmt 0 view .LVU1305
ARM GAS  /tmp/cc47Teva.s 			page 111


 4185              		.thumb
 4186              		.syntax unified
 4187 00d8 013B     		subs	r3, r3, #1
 4188              	.LVL246:
 669:Drivers/display_ILI-93xx_sm/lcd.c **** }
 4189              		.loc 1 669 13 view .LVU1306
 4190 00da FBE7     		b	.L196
 4191              	.L203:
 4192              	.LVL247:
 669:Drivers/display_ILI-93xx_sm/lcd.c **** }
 4193              		.loc 1 669 13 view .LVU1307
 4194              	.LBE411:
 4195              	.LBE412:
 894:Drivers/display_ILI-93xx_sm/lcd.c **** 			| ((GPIOB->IDR & 0x0020) >> 1) | ((GPIOB->IDR & 0x0010) << 1) | ((GPIOB->IDR & 0x0400) >> 4)
 4196              		.loc 1 894 2 is_stmt 1 view .LVU1308
 894:Drivers/display_ILI-93xx_sm/lcd.c **** 			| ((GPIOB->IDR & 0x0020) >> 1) | ((GPIOB->IDR & 0x0010) << 1) | ((GPIOB->IDR & 0x0400) >> 4)
 4197              		.loc 1 894 16 is_stmt 0 view .LVU1309
 4198 00dc 154A     		ldr	r2, .L204
 4199 00de 9468     		ldr	r4, [r2, #8]
 894:Drivers/display_ILI-93xx_sm/lcd.c **** 			| ((GPIOB->IDR & 0x0020) >> 1) | ((GPIOB->IDR & 0x0010) << 1) | ((GPIOB->IDR & 0x0400) >> 4)
 4200              		.loc 1 894 32 view .LVU1310
 4201 00e0 C4F34024 		ubfx	r4, r4, #9, #1
 894:Drivers/display_ILI-93xx_sm/lcd.c **** 			| ((GPIOB->IDR & 0x0020) >> 1) | ((GPIOB->IDR & 0x0010) << 1) | ((GPIOB->IDR & 0x0400) >> 4)
 4202              		.loc 1 894 47 view .LVU1311
 4203 00e4 9368     		ldr	r3, [r2, #8]
 894:Drivers/display_ILI-93xx_sm/lcd.c **** 			| ((GPIOB->IDR & 0x0020) >> 1) | ((GPIOB->IDR & 0x0010) << 1) | ((GPIOB->IDR & 0x0400) >> 4)
 4204              		.loc 1 894 63 view .LVU1312
 4205 00e6 1B0A     		lsrs	r3, r3, #8
 4206 00e8 03F00403 		and	r3, r3, #4
 894:Drivers/display_ILI-93xx_sm/lcd.c **** 			| ((GPIOB->IDR & 0x0020) >> 1) | ((GPIOB->IDR & 0x0010) << 1) | ((GPIOB->IDR & 0x0400) >> 4)
 4207              		.loc 1 894 38 view .LVU1313
 4208 00ec 1C43     		orrs	r4, r4, r3
 894:Drivers/display_ILI-93xx_sm/lcd.c **** 			| ((GPIOB->IDR & 0x0020) >> 1) | ((GPIOB->IDR & 0x0010) << 1) | ((GPIOB->IDR & 0x0400) >> 4)
 4209              		.loc 1 894 78 view .LVU1314
 4210 00ee 9368     		ldr	r3, [r2, #8]
 894:Drivers/display_ILI-93xx_sm/lcd.c **** 			| ((GPIOB->IDR & 0x0020) >> 1) | ((GPIOB->IDR & 0x0010) << 1) | ((GPIOB->IDR & 0x0400) >> 4)
 4211              		.loc 1 894 94 view .LVU1315
 4212 00f0 5B08     		lsrs	r3, r3, #1
 4213 00f2 03F08003 		and	r3, r3, #128
 894:Drivers/display_ILI-93xx_sm/lcd.c **** 			| ((GPIOB->IDR & 0x0020) >> 1) | ((GPIOB->IDR & 0x0010) << 1) | ((GPIOB->IDR & 0x0400) >> 4)
 4214              		.loc 1 894 69 view .LVU1316
 4215 00f6 1C43     		orrs	r4, r4, r3
 894:Drivers/display_ILI-93xx_sm/lcd.c **** 			| ((GPIOB->IDR & 0x0020) >> 1) | ((GPIOB->IDR & 0x0010) << 1) | ((GPIOB->IDR & 0x0400) >> 4)
 4216              		.loc 1 894 108 view .LVU1317
 4217 00f8 0F49     		ldr	r1, .L204+4
 4218 00fa 8B68     		ldr	r3, [r1, #8]
 894:Drivers/display_ILI-93xx_sm/lcd.c **** 			| ((GPIOB->IDR & 0x0020) >> 1) | ((GPIOB->IDR & 0x0010) << 1) | ((GPIOB->IDR & 0x0400) >> 4)
 4219              		.loc 1 894 114 view .LVU1318
 4220 00fc 03F00803 		and	r3, r3, #8
 894:Drivers/display_ILI-93xx_sm/lcd.c **** 			| ((GPIOB->IDR & 0x0020) >> 1) | ((GPIOB->IDR & 0x0010) << 1) | ((GPIOB->IDR & 0x0400) >> 4)
 4221              		.loc 1 894 100 view .LVU1319
 4222 0100 1C43     		orrs	r4, r4, r3
 895:Drivers/display_ILI-93xx_sm/lcd.c **** 			| ((GPIOA->IDR & 0x0080) >> 6);
 4223              		.loc 1 895 13 view .LVU1320
 4224 0102 8B68     		ldr	r3, [r1, #8]
 895:Drivers/display_ILI-93xx_sm/lcd.c **** 			| ((GPIOA->IDR & 0x0080) >> 6);
 4225              		.loc 1 895 29 view .LVU1321
ARM GAS  /tmp/cc47Teva.s 			page 112


 4226 0104 5B08     		lsrs	r3, r3, #1
 4227 0106 03F01003 		and	r3, r3, #16
 895:Drivers/display_ILI-93xx_sm/lcd.c **** 			| ((GPIOA->IDR & 0x0080) >> 6);
 4228              		.loc 1 895 4 view .LVU1322
 4229 010a 1C43     		orrs	r4, r4, r3
 895:Drivers/display_ILI-93xx_sm/lcd.c **** 			| ((GPIOA->IDR & 0x0080) >> 6);
 4230              		.loc 1 895 44 view .LVU1323
 4231 010c 8B68     		ldr	r3, [r1, #8]
 895:Drivers/display_ILI-93xx_sm/lcd.c **** 			| ((GPIOA->IDR & 0x0080) >> 6);
 4232              		.loc 1 895 60 view .LVU1324
 4233 010e 5B00     		lsls	r3, r3, #1
 4234 0110 03F02003 		and	r3, r3, #32
 895:Drivers/display_ILI-93xx_sm/lcd.c **** 			| ((GPIOA->IDR & 0x0080) >> 6);
 4235              		.loc 1 895 35 view .LVU1325
 4236 0114 1C43     		orrs	r4, r4, r3
 895:Drivers/display_ILI-93xx_sm/lcd.c **** 			| ((GPIOA->IDR & 0x0080) >> 6);
 4237              		.loc 1 895 75 view .LVU1326
 4238 0116 8B68     		ldr	r3, [r1, #8]
 895:Drivers/display_ILI-93xx_sm/lcd.c **** 			| ((GPIOA->IDR & 0x0080) >> 6);
 4239              		.loc 1 895 91 view .LVU1327
 4240 0118 1B09     		lsrs	r3, r3, #4
 4241 011a 03F04003 		and	r3, r3, #64
 895:Drivers/display_ILI-93xx_sm/lcd.c **** 			| ((GPIOA->IDR & 0x0080) >> 6);
 4242              		.loc 1 895 66 view .LVU1328
 4243 011e 1C43     		orrs	r4, r4, r3
 896:Drivers/display_ILI-93xx_sm/lcd.c **** #else
 4244              		.loc 1 896 13 view .LVU1329
 4245 0120 9368     		ldr	r3, [r2, #8]
 896:Drivers/display_ILI-93xx_sm/lcd.c **** #else
 4246              		.loc 1 896 29 view .LVU1330
 4247 0122 9B09     		lsrs	r3, r3, #6
 4248 0124 03F00203 		and	r3, r3, #2
 894:Drivers/display_ILI-93xx_sm/lcd.c **** 			| ((GPIOB->IDR & 0x0020) >> 1) | ((GPIOB->IDR & 0x0010) << 1) | ((GPIOB->IDR & 0x0400) >> 4)
 4249              		.loc 1 894 7 view .LVU1331
 4250 0128 1C43     		orrs	r4, r4, r3
 4251              	.LVL248:
 904:Drivers/display_ILI-93xx_sm/lcd.c **** }
 4252              		.loc 1 904 2 is_stmt 1 view .LVU1332
 904:Drivers/display_ILI-93xx_sm/lcd.c **** }
 4253              		.loc 1 904 2 is_stmt 0 view .LVU1333
 4254              	.LBE405:
 4255              	.LBE404:
1020:Drivers/display_ILI-93xx_sm/lcd.c **** 	GPIO_Init(GPIO_MODE_OUTPUT_PP);
 4256              		.loc 1 1020 2 is_stmt 1 view .LVU1334
 4257 012a 0120     		movs	r0, #1
 4258 012c FFF7FEFF 		bl	GPIO_Init
 4259              	.LVL249:
1021:Drivers/display_ILI-93xx_sm/lcd.c **** 	return data;
 4260              		.loc 1 1021 2 view .LVU1335
1022:Drivers/display_ILI-93xx_sm/lcd.c **** }
 4261              		.loc 1 1022 1 is_stmt 0 view .LVU1336
 4262 0130 2046     		mov	r0, r4
 4263 0132 70BD     		pop	{r4, r5, r6, pc}
 4264              	.LVL250:
 4265              	.L205:
 4266              		.loc 1 1022 1 view .LVU1337
 4267              		.align	2
ARM GAS  /tmp/cc47Teva.s 			page 113


 4268              	.L204:
 4269 0134 00080140 		.word	1073809408
 4270 0138 000C0140 		.word	1073810432
 4271              		.cfi_endproc
 4272              	.LFE78:
 4274              		.section	.text.LCD_Flood,"ax",%progbits
 4275              		.align	1
 4276              		.global	LCD_Flood
 4277              		.syntax unified
 4278              		.thumb
 4279              		.thumb_func
 4280              		.fpu softvfp
 4282              	LCD_Flood:
 4283              	.LVL251:
 4284              	.LFB81:
1023:Drivers/display_ILI-93xx_sm/lcd.c **** 
1024:Drivers/display_ILI-93xx_sm/lcd.c **** /**
1025:Drivers/display_ILI-93xx_sm/lcd.c ****  * \brief LCD Initialization
1026:Drivers/display_ILI-93xx_sm/lcd.c ****  *
1027:Drivers/display_ILI-93xx_sm/lcd.c ****  * \param
1028:Drivers/display_ILI-93xx_sm/lcd.c ****  *
1029:Drivers/display_ILI-93xx_sm/lcd.c ****  * \return void
1030:Drivers/display_ILI-93xx_sm/lcd.c ****  */
1031:Drivers/display_ILI-93xx_sm/lcd.c **** void LCD_Init(void) {
1032:Drivers/display_ILI-93xx_sm/lcd.c **** 	m_width = TFTWIDTH;
1033:Drivers/display_ILI-93xx_sm/lcd.c **** 	m_height = TFTHEIGHT;
1034:Drivers/display_ILI-93xx_sm/lcd.c **** 	m_rotation = 0;
1035:Drivers/display_ILI-93xx_sm/lcd.c **** 	m_cursor_y = m_cursor_x = 0;
1036:Drivers/display_ILI-93xx_sm/lcd.c **** 	m_font = 0;
1037:Drivers/display_ILI-93xx_sm/lcd.c **** 	m_textcolor = m_textbgcolor = 0xFFFF;
1038:Drivers/display_ILI-93xx_sm/lcd.c **** 	m_wrap = 1;
1039:Drivers/display_ILI-93xx_sm/lcd.c **** 
1040:Drivers/display_ILI-93xx_sm/lcd.c **** 	GPIO_Init(GPIO_MODE_OUTPUT_PP);
1041:Drivers/display_ILI-93xx_sm/lcd.c **** 
1042:Drivers/display_ILI-93xx_sm/lcd.c **** 	LCD_Reset();
1043:Drivers/display_ILI-93xx_sm/lcd.c **** 	HAL_Delay(50);
1044:Drivers/display_ILI-93xx_sm/lcd.c **** 
1045:Drivers/display_ILI-93xx_sm/lcd.c **** 	LCD_CS_ACTIVE();
1046:Drivers/display_ILI-93xx_sm/lcd.c **** 
1047:Drivers/display_ILI-93xx_sm/lcd.c **** #if	defined(ILI9325) || defined (ILI9328)
1048:Drivers/display_ILI-93xx_sm/lcd.c **** 	uint8_t i = 0;
1049:Drivers/display_ILI-93xx_sm/lcd.c **** 	uint16_t a, d;
1050:Drivers/display_ILI-93xx_sm/lcd.c **** 	while (i < sizeof(ILI932x_regValues) / sizeof(ILI932x_regValues[0])) {
1051:Drivers/display_ILI-93xx_sm/lcd.c **** 		a = ILI932x_regValues[i++];
1052:Drivers/display_ILI-93xx_sm/lcd.c **** 		d = ILI932x_regValues[i++];
1053:Drivers/display_ILI-93xx_sm/lcd.c **** 		if (a == TFTLCD_DELAY) {
1054:Drivers/display_ILI-93xx_sm/lcd.c **** 			HAL_Delay(d);
1055:Drivers/display_ILI-93xx_sm/lcd.c **** 		} else {
1056:Drivers/display_ILI-93xx_sm/lcd.c **** 			LCD_Write16Register16(a, d);
1057:Drivers/display_ILI-93xx_sm/lcd.c **** 		}
1058:Drivers/display_ILI-93xx_sm/lcd.c **** 	}
1059:Drivers/display_ILI-93xx_sm/lcd.c **** 	LCD_SetRotation(m_rotation);
1060:Drivers/display_ILI-93xx_sm/lcd.c **** 	LCD_SetAddrWindow(0, 0, m_width - 1, m_height - 1);
1061:Drivers/display_ILI-93xx_sm/lcd.c **** #elif defined(UNKNOWN1602)	
1062:Drivers/display_ILI-93xx_sm/lcd.c **** 	uint8_t i = 0;
1063:Drivers/display_ILI-93xx_sm/lcd.c **** 	while(i < sizeof(ILI9329_regValues)/sizeof(ILI9329_regValues[0])) {
1064:Drivers/display_ILI-93xx_sm/lcd.c **** 		uint8_t r = ILI9329_regValues[i++];
ARM GAS  /tmp/cc47Teva.s 			page 114


1065:Drivers/display_ILI-93xx_sm/lcd.c **** 		uint8_t len = ILI9329_regValues[i++];
1066:Drivers/display_ILI-93xx_sm/lcd.c **** 		if(r == TFTLCD_DELAY) {
1067:Drivers/display_ILI-93xx_sm/lcd.c **** 			HAL_Delay(len);
1068:Drivers/display_ILI-93xx_sm/lcd.c **** 		} else {
1069:Drivers/display_ILI-93xx_sm/lcd.c **** 			LCD_CD_COMMAND();
1070:Drivers/display_ILI-93xx_sm/lcd.c **** 			LCD_Write8(r);
1071:Drivers/display_ILI-93xx_sm/lcd.c **** 			LCD_CD_DATA();
1072:Drivers/display_ILI-93xx_sm/lcd.c **** 			for (uint8_t d = 0; d < len; d++) {
1073:Drivers/display_ILI-93xx_sm/lcd.c **** 				uint8_t x = ILI9329_regValues[i++];
1074:Drivers/display_ILI-93xx_sm/lcd.c **** 				LCD_Write8(x);
1075:Drivers/display_ILI-93xx_sm/lcd.c **** 			}
1076:Drivers/display_ILI-93xx_sm/lcd.c **** 		}
1077:Drivers/display_ILI-93xx_sm/lcd.c **** 	}
1078:Drivers/display_ILI-93xx_sm/lcd.c **** 	LCD_SetRotation(m_rotation);
1079:Drivers/display_ILI-93xx_sm/lcd.c **** 	LCD_SetAddrWindow(0, 0, m_width - 1, TFTHEIGHT - 1);
1080:Drivers/display_ILI-93xx_sm/lcd.c **** #elif defined(ILI9340)
1081:Drivers/display_ILI-93xx_sm/lcd.c **** 	uint8_t i = 0;
1082:Drivers/display_ILI-93xx_sm/lcd.c **** 	while(i < sizeof(ILI9340_regValues)/sizeof(ILI9340_regValues[0])) {
1083:Drivers/display_ILI-93xx_sm/lcd.c **** 		uint8_t r = ILI9340_regValues[i++];
1084:Drivers/display_ILI-93xx_sm/lcd.c **** 		uint8_t len = ILI9340_regValues[i++];
1085:Drivers/display_ILI-93xx_sm/lcd.c **** 		if(r == TFTLCD_DELAY) {
1086:Drivers/display_ILI-93xx_sm/lcd.c **** 			HAL_Delay(len);
1087:Drivers/display_ILI-93xx_sm/lcd.c **** 		} else {
1088:Drivers/display_ILI-93xx_sm/lcd.c **** 			LCD_CD_COMMAND();
1089:Drivers/display_ILI-93xx_sm/lcd.c **** 			LCD_Write8(r);
1090:Drivers/display_ILI-93xx_sm/lcd.c **** 			LCD_CD_DATA();
1091:Drivers/display_ILI-93xx_sm/lcd.c **** 			for (uint8_t d = 0; d < len; d++) {
1092:Drivers/display_ILI-93xx_sm/lcd.c **** 				uint8_t x = ILI9340_regValues[i++];
1093:Drivers/display_ILI-93xx_sm/lcd.c **** 				LCD_Write8(x);
1094:Drivers/display_ILI-93xx_sm/lcd.c **** 			}
1095:Drivers/display_ILI-93xx_sm/lcd.c **** 		}
1096:Drivers/display_ILI-93xx_sm/lcd.c **** 	}
1097:Drivers/display_ILI-93xx_sm/lcd.c **** 	LCD_SetAddrWindow(0, 0, m_width - 1, m_height - 1);
1098:Drivers/display_ILI-93xx_sm/lcd.c **** #elif defined(ILI9341)
1099:Drivers/display_ILI-93xx_sm/lcd.c **** 	uint8_t i = 0;
1100:Drivers/display_ILI-93xx_sm/lcd.c **** 	while(i < sizeof(ILI9341_regValues)/sizeof(ILI9341_regValues[0])) {
1101:Drivers/display_ILI-93xx_sm/lcd.c **** 		uint8_t r = ILI9341_regValues[i++];
1102:Drivers/display_ILI-93xx_sm/lcd.c **** 		uint8_t len = ILI9341_regValues[i++];
1103:Drivers/display_ILI-93xx_sm/lcd.c **** 		if(r == TFTLCD_DELAY) {
1104:Drivers/display_ILI-93xx_sm/lcd.c **** 			HAL_Delay(len);
1105:Drivers/display_ILI-93xx_sm/lcd.c **** 		} else {
1106:Drivers/display_ILI-93xx_sm/lcd.c **** 			LCD_CD_COMMAND();
1107:Drivers/display_ILI-93xx_sm/lcd.c **** 			LCD_Write8(r);
1108:Drivers/display_ILI-93xx_sm/lcd.c **** 			LCD_CD_DATA();
1109:Drivers/display_ILI-93xx_sm/lcd.c **** 			for (uint8_t d = 0; d < len; d++) {
1110:Drivers/display_ILI-93xx_sm/lcd.c **** 				uint8_t x = ILI9341_regValues[i++];
1111:Drivers/display_ILI-93xx_sm/lcd.c **** 				LCD_Write8(x);
1112:Drivers/display_ILI-93xx_sm/lcd.c **** 			}
1113:Drivers/display_ILI-93xx_sm/lcd.c **** 		}
1114:Drivers/display_ILI-93xx_sm/lcd.c **** 	}
1115:Drivers/display_ILI-93xx_sm/lcd.c **** 	LCD_SetAddrWindow(0, 0, m_width - 1, m_height - 1);
1116:Drivers/display_ILI-93xx_sm/lcd.c **** #elif defined(ILI9341_00)
1117:Drivers/display_ILI-93xx_sm/lcd.c **** 	uint8_t i = 0;
1118:Drivers/display_ILI-93xx_sm/lcd.c **** 	while(i < sizeof(ILI9341_00_regValues)/sizeof(ILI9341_00_regValues[0])) {
1119:Drivers/display_ILI-93xx_sm/lcd.c **** 		uint8_t r = ILI9341_00_regValues[i++];
1120:Drivers/display_ILI-93xx_sm/lcd.c **** 		uint8_t len = ILI9341_00_regValues[i++];
1121:Drivers/display_ILI-93xx_sm/lcd.c **** 		if(r == TFTLCD_DELAY) {
ARM GAS  /tmp/cc47Teva.s 			page 115


1122:Drivers/display_ILI-93xx_sm/lcd.c **** 			HAL_Delay(len);
1123:Drivers/display_ILI-93xx_sm/lcd.c **** 		} else {
1124:Drivers/display_ILI-93xx_sm/lcd.c **** 			LCD_CD_COMMAND();
1125:Drivers/display_ILI-93xx_sm/lcd.c **** 			LCD_Write8(r);
1126:Drivers/display_ILI-93xx_sm/lcd.c **** 			LCD_CD_DATA();
1127:Drivers/display_ILI-93xx_sm/lcd.c **** 			for (uint8_t d = 0; d < len; d++) {
1128:Drivers/display_ILI-93xx_sm/lcd.c **** 				uint8_t x = ILI9341_00_regValues[i++];
1129:Drivers/display_ILI-93xx_sm/lcd.c **** 				LCD_Write8(x);
1130:Drivers/display_ILI-93xx_sm/lcd.c **** 			}
1131:Drivers/display_ILI-93xx_sm/lcd.c **** 		}
1132:Drivers/display_ILI-93xx_sm/lcd.c **** 	}
1133:Drivers/display_ILI-93xx_sm/lcd.c **** 	LCD_SetAddrWindow(0, 0, m_width - 1, m_height - 1);
1134:Drivers/display_ILI-93xx_sm/lcd.c **** #elif defined(R61505)
1135:Drivers/display_ILI-93xx_sm/lcd.c **** 	uint8_t i = 0;
1136:Drivers/display_ILI-93xx_sm/lcd.c **** 	uint16_t a, d;
1137:Drivers/display_ILI-93xx_sm/lcd.c **** 	while (i < sizeof(ILI9320_regValues) / sizeof(ILI9320_regValues[0])) {
1138:Drivers/display_ILI-93xx_sm/lcd.c **** 		a = ILI9320_regValues[i++];
1139:Drivers/display_ILI-93xx_sm/lcd.c **** 		d = ILI9320_regValues[i++];
1140:Drivers/display_ILI-93xx_sm/lcd.c **** 		if (a == TFTLCD_DELAY) {
1141:Drivers/display_ILI-93xx_sm/lcd.c **** 			HAL_Delay(d);
1142:Drivers/display_ILI-93xx_sm/lcd.c **** 		} else {
1143:Drivers/display_ILI-93xx_sm/lcd.c **** 			LCD_Write16Register16(a, d);
1144:Drivers/display_ILI-93xx_sm/lcd.c **** 		}
1145:Drivers/display_ILI-93xx_sm/lcd.c **** 	}
1146:Drivers/display_ILI-93xx_sm/lcd.c **** 	LCD_SetRotation(m_rotation);
1147:Drivers/display_ILI-93xx_sm/lcd.c **** 	LCD_SetAddrWindow(0, 0, m_width - 1, m_height - 1);
1148:Drivers/display_ILI-93xx_sm/lcd.c **** #elif defined(R61505V)
1149:Drivers/display_ILI-93xx_sm/lcd.c **** 	uint8_t i = 0;
1150:Drivers/display_ILI-93xx_sm/lcd.c **** 	uint16_t a, d;
1151:Drivers/display_ILI-93xx_sm/lcd.c **** 	while (i < sizeof(R61505V_regValues) / sizeof(R61505V_regValues[0])) {
1152:Drivers/display_ILI-93xx_sm/lcd.c **** 		a = R61505V_regValues[i++];
1153:Drivers/display_ILI-93xx_sm/lcd.c **** 		d = R61505V_regValues[i++];
1154:Drivers/display_ILI-93xx_sm/lcd.c **** 		if (a == TFTLCD_DELAY) {
1155:Drivers/display_ILI-93xx_sm/lcd.c **** 			HAL_Delay(d);
1156:Drivers/display_ILI-93xx_sm/lcd.c **** 		} else {
1157:Drivers/display_ILI-93xx_sm/lcd.c **** 			LCD_Write16Register16(a, d);
1158:Drivers/display_ILI-93xx_sm/lcd.c **** 		}
1159:Drivers/display_ILI-93xx_sm/lcd.c **** 	}
1160:Drivers/display_ILI-93xx_sm/lcd.c **** 	LCD_SetRotation(m_rotation);
1161:Drivers/display_ILI-93xx_sm/lcd.c **** 	LCD_SetAddrWindow(0, 0, m_width - 1, m_height - 1);
1162:Drivers/display_ILI-93xx_sm/lcd.c **** #elif defined(R61520)
1163:Drivers/display_ILI-93xx_sm/lcd.c **** 	uint8_t i = 0;
1164:Drivers/display_ILI-93xx_sm/lcd.c **** 	while(i < sizeof(R61520_regValues)/sizeof(R61520_regValues[0])) {
1165:Drivers/display_ILI-93xx_sm/lcd.c **** 		uint8_t r = R61520_regValues[i++];
1166:Drivers/display_ILI-93xx_sm/lcd.c **** 		uint8_t len = R61520_regValues[i++];
1167:Drivers/display_ILI-93xx_sm/lcd.c **** 		if(r == TFTLCD_DELAY) {
1168:Drivers/display_ILI-93xx_sm/lcd.c **** 			HAL_Delay(len);
1169:Drivers/display_ILI-93xx_sm/lcd.c **** 		} else {
1170:Drivers/display_ILI-93xx_sm/lcd.c **** 			LCD_CD_COMMAND();
1171:Drivers/display_ILI-93xx_sm/lcd.c **** 			LCD_Write8(r);
1172:Drivers/display_ILI-93xx_sm/lcd.c **** 			LCD_CD_DATA();
1173:Drivers/display_ILI-93xx_sm/lcd.c **** 			for (uint8_t d = 0; d < len; d++) {
1174:Drivers/display_ILI-93xx_sm/lcd.c **** 				uint8_t x = R61520_regValues[i++];
1175:Drivers/display_ILI-93xx_sm/lcd.c **** 				LCD_Write8(x);
1176:Drivers/display_ILI-93xx_sm/lcd.c **** 			}
1177:Drivers/display_ILI-93xx_sm/lcd.c **** 		}
1178:Drivers/display_ILI-93xx_sm/lcd.c **** 	}
ARM GAS  /tmp/cc47Teva.s 			page 116


1179:Drivers/display_ILI-93xx_sm/lcd.c **** 	LCD_SetAddrWindow(0, 0, m_width - 1, m_height - 1);
1180:Drivers/display_ILI-93xx_sm/lcd.c **** #elif defined(S6D0154)
1181:Drivers/display_ILI-93xx_sm/lcd.c **** 	uint8_t i = 0;
1182:Drivers/display_ILI-93xx_sm/lcd.c **** 	uint16_t a, d;
1183:Drivers/display_ILI-93xx_sm/lcd.c **** 	while (i < sizeof(S6D0154_regValues) / sizeof(S6D0154_regValues[0])) {
1184:Drivers/display_ILI-93xx_sm/lcd.c **** 		a = S6D0154_regValues[i++];
1185:Drivers/display_ILI-93xx_sm/lcd.c **** 		d = S6D0154_regValues[i++];
1186:Drivers/display_ILI-93xx_sm/lcd.c **** 		if (a == TFTLCD_DELAY) {
1187:Drivers/display_ILI-93xx_sm/lcd.c **** 			HAL_Delay(d);
1188:Drivers/display_ILI-93xx_sm/lcd.c **** 		} else {
1189:Drivers/display_ILI-93xx_sm/lcd.c **** 			LCD_Write16Register16(a, d);
1190:Drivers/display_ILI-93xx_sm/lcd.c **** 		}
1191:Drivers/display_ILI-93xx_sm/lcd.c **** 	}
1192:Drivers/display_ILI-93xx_sm/lcd.c **** 	LCD_SetRotation(m_rotation);
1193:Drivers/display_ILI-93xx_sm/lcd.c **** 	LCD_SetAddrWindow(0, 0, m_width - 1, m_height - 1);
1194:Drivers/display_ILI-93xx_sm/lcd.c **** #elif defined(HX8347D)
1195:Drivers/display_ILI-93xx_sm/lcd.c **** 	uint8_t i = 0;
1196:Drivers/display_ILI-93xx_sm/lcd.c **** 	uint16_t a, d;
1197:Drivers/display_ILI-93xx_sm/lcd.c **** 	while(i < sizeof(HX8347D_regValues)) {
1198:Drivers/display_ILI-93xx_sm/lcd.c **** 		a = HX8347D_regValues[i++];
1199:Drivers/display_ILI-93xx_sm/lcd.c **** 		d = HX8347D_regValues[i++];
1200:Drivers/display_ILI-93xx_sm/lcd.c **** 		if(a == TFTLCD_DELAY) {
1201:Drivers/display_ILI-93xx_sm/lcd.c **** 			HAL_Delay(d);
1202:Drivers/display_ILI-93xx_sm/lcd.c **** 		} else {
1203:Drivers/display_ILI-93xx_sm/lcd.c **** 			LCD_Write8Register8(a, d);
1204:Drivers/display_ILI-93xx_sm/lcd.c **** 		}
1205:Drivers/display_ILI-93xx_sm/lcd.c **** 	}
1206:Drivers/display_ILI-93xx_sm/lcd.c **** 	LCD_SetRotation(m_rotation);
1207:Drivers/display_ILI-93xx_sm/lcd.c **** 	LCD_SetLR(); // Lower-right corner of address window
1208:Drivers/display_ILI-93xx_sm/lcd.c **** #elif defined(HX8347G)
1209:Drivers/display_ILI-93xx_sm/lcd.c **** 	uint8_t i = 0;
1210:Drivers/display_ILI-93xx_sm/lcd.c **** 	uint16_t a, d;
1211:Drivers/display_ILI-93xx_sm/lcd.c **** 	while(i < sizeof(HX8347G_regValues)) {
1212:Drivers/display_ILI-93xx_sm/lcd.c **** 		a = HX8347G_regValues[i++];
1213:Drivers/display_ILI-93xx_sm/lcd.c **** 		d = HX8347G_regValues[i++];
1214:Drivers/display_ILI-93xx_sm/lcd.c **** 		if(a == TFTLCD_DELAY) {
1215:Drivers/display_ILI-93xx_sm/lcd.c **** 			HAL_Delay(d);
1216:Drivers/display_ILI-93xx_sm/lcd.c **** 		} else {
1217:Drivers/display_ILI-93xx_sm/lcd.c **** 			LCD_Write8Register8(a, d);
1218:Drivers/display_ILI-93xx_sm/lcd.c **** 		}
1219:Drivers/display_ILI-93xx_sm/lcd.c **** 	}
1220:Drivers/display_ILI-93xx_sm/lcd.c **** 	LCD_SetRotation(m_rotation);
1221:Drivers/display_ILI-93xx_sm/lcd.c **** 	LCD_SetLR(); // Lower-right corner of address window
1222:Drivers/display_ILI-93xx_sm/lcd.c **** #elif defined(HX8357D)
1223:Drivers/display_ILI-93xx_sm/lcd.c **** 	uint8_t i = 0;
1224:Drivers/display_ILI-93xx_sm/lcd.c **** 	while(i < sizeof(HX8357D_regValues) / sizeof(ST7781_regValues[0])) {
1225:Drivers/display_ILI-93xx_sm/lcd.c **** 		uint8_t r = HX8357D_regValues[i++];
1226:Drivers/display_ILI-93xx_sm/lcd.c **** 		uint8_t len = HX8357D_regValues[i++];
1227:Drivers/display_ILI-93xx_sm/lcd.c **** 		if(r == TFTLCD_DELAY) {
1228:Drivers/display_ILI-93xx_sm/lcd.c **** 			HAL_Delay(len);
1229:Drivers/display_ILI-93xx_sm/lcd.c **** 		} else {
1230:Drivers/display_ILI-93xx_sm/lcd.c **** 			LCD_CD_COMMAND();
1231:Drivers/display_ILI-93xx_sm/lcd.c **** 			LCD_Write8(r);
1232:Drivers/display_ILI-93xx_sm/lcd.c **** 			LCD_CD_DATA();
1233:Drivers/display_ILI-93xx_sm/lcd.c **** 			for (uint8_t d = 0; d < len; d++) {
1234:Drivers/display_ILI-93xx_sm/lcd.c **** 				uint8_t x = HX8357D_regValues[i++];
1235:Drivers/display_ILI-93xx_sm/lcd.c **** 				LCD_Write8(x);
ARM GAS  /tmp/cc47Teva.s 			page 117


1236:Drivers/display_ILI-93xx_sm/lcd.c **** 			}
1237:Drivers/display_ILI-93xx_sm/lcd.c **** 		}
1238:Drivers/display_ILI-93xx_sm/lcd.c **** 	}
1239:Drivers/display_ILI-93xx_sm/lcd.c **** #elif defined(ST7781)
1240:Drivers/display_ILI-93xx_sm/lcd.c **** 	uint8_t i = 0;
1241:Drivers/display_ILI-93xx_sm/lcd.c **** 	uint16_t a, d;
1242:Drivers/display_ILI-93xx_sm/lcd.c **** 	while (i < sizeof(ST7781_regValues) / sizeof(ST7781_regValues[0])) {
1243:Drivers/display_ILI-93xx_sm/lcd.c **** 		a = ST7781_regValues[i++];
1244:Drivers/display_ILI-93xx_sm/lcd.c **** 		d = ST7781_regValues[i++];
1245:Drivers/display_ILI-93xx_sm/lcd.c **** 		if (a == TFTLCD_DELAY) {
1246:Drivers/display_ILI-93xx_sm/lcd.c **** 			HAL_Delay(d);
1247:Drivers/display_ILI-93xx_sm/lcd.c **** 		} else {
1248:Drivers/display_ILI-93xx_sm/lcd.c **** 			LCD_Write16Register16(a, d);
1249:Drivers/display_ILI-93xx_sm/lcd.c **** 		}
1250:Drivers/display_ILI-93xx_sm/lcd.c **** 	}
1251:Drivers/display_ILI-93xx_sm/lcd.c **** 	LCD_SetRotation(m_rotation);
1252:Drivers/display_ILI-93xx_sm/lcd.c **** 	LCD_SetAddrWindow(0, 0, m_width - 1, m_height - 1);
1253:Drivers/display_ILI-93xx_sm/lcd.c **** #elif defined(SSD1297)
1254:Drivers/display_ILI-93xx_sm/lcd.c **** 	uint8_t i = 0;
1255:Drivers/display_ILI-93xx_sm/lcd.c **** 	uint16_t a, d;
1256:Drivers/display_ILI-93xx_sm/lcd.c **** 	while (i < sizeof(SSD1297_regValues) / sizeof(SSD1297_regValues[0])) {
1257:Drivers/display_ILI-93xx_sm/lcd.c **** 		a = SSD1297_regValues[i++];
1258:Drivers/display_ILI-93xx_sm/lcd.c **** 		d = SSD1297_regValues[i++];
1259:Drivers/display_ILI-93xx_sm/lcd.c **** 		if (a == TFTLCD_DELAY) {
1260:Drivers/display_ILI-93xx_sm/lcd.c **** 			HAL_Delay(d);
1261:Drivers/display_ILI-93xx_sm/lcd.c **** 		} else {
1262:Drivers/display_ILI-93xx_sm/lcd.c **** 			LCD_Write16Register8(a, d);
1263:Drivers/display_ILI-93xx_sm/lcd.c **** 		}
1264:Drivers/display_ILI-93xx_sm/lcd.c **** 	}
1265:Drivers/display_ILI-93xx_sm/lcd.c **** 	LCD_SetRotation(m_rotation);
1266:Drivers/display_ILI-93xx_sm/lcd.c **** 	LCD_SetAddrWindow(0, 0, m_width - 1, m_height - 1);
1267:Drivers/display_ILI-93xx_sm/lcd.c **** #endif
1268:Drivers/display_ILI-93xx_sm/lcd.c **** 
1269:Drivers/display_ILI-93xx_sm/lcd.c **** 	LCD_CS_IDLE();
1270:Drivers/display_ILI-93xx_sm/lcd.c **** 	LCD_FillScreen(ILI92_BLACK);
1271:Drivers/display_ILI-93xx_sm/lcd.c **** 	LCD_SetTextSize(0);
1272:Drivers/display_ILI-93xx_sm/lcd.c **** 	LCD_SetTextColor(ILI92_WHITE, ILI92_BLACK);
1273:Drivers/display_ILI-93xx_sm/lcd.c **** }
1274:Drivers/display_ILI-93xx_sm/lcd.c **** 
1275:Drivers/display_ILI-93xx_sm/lcd.c **** /**
1276:Drivers/display_ILI-93xx_sm/lcd.c ****  * \brief Draws a point at the specified coordinates
1277:Drivers/display_ILI-93xx_sm/lcd.c ****  *
1278:Drivers/display_ILI-93xx_sm/lcd.c ****  * \param x		x-Coordinate
1279:Drivers/display_ILI-93xx_sm/lcd.c ****  * \param y		y-Coordinate
1280:Drivers/display_ILI-93xx_sm/lcd.c ****  * \param color	Color
1281:Drivers/display_ILI-93xx_sm/lcd.c ****  *
1282:Drivers/display_ILI-93xx_sm/lcd.c ****  * \return void
1283:Drivers/display_ILI-93xx_sm/lcd.c ****  */
1284:Drivers/display_ILI-93xx_sm/lcd.c **** void LCD_DrawPixel(int16_t x, int16_t y, uint16_t color) {
1285:Drivers/display_ILI-93xx_sm/lcd.c **** 	// Clip
1286:Drivers/display_ILI-93xx_sm/lcd.c **** 	if ((x < 0) || (y < 0) || (x >= m_width) || (y >= m_height)) return;
1287:Drivers/display_ILI-93xx_sm/lcd.c **** 
1288:Drivers/display_ILI-93xx_sm/lcd.c **** 	LCD_CS_ACTIVE();
1289:Drivers/display_ILI-93xx_sm/lcd.c **** 
1290:Drivers/display_ILI-93xx_sm/lcd.c **** #if	defined(ILI9325) || defined(ILI9328) || defined(R61505) || defined(R61505V) || defined(S6D0154)
1291:Drivers/display_ILI-93xx_sm/lcd.c **** 	int16_t t;
1292:Drivers/display_ILI-93xx_sm/lcd.c **** 	switch (m_rotation) {
ARM GAS  /tmp/cc47Teva.s 			page 118


1293:Drivers/display_ILI-93xx_sm/lcd.c **** 	case 1:
1294:Drivers/display_ILI-93xx_sm/lcd.c **** 		t = x;
1295:Drivers/display_ILI-93xx_sm/lcd.c **** 		x = TFTWIDTH - 1 - y;
1296:Drivers/display_ILI-93xx_sm/lcd.c **** 		y = t;
1297:Drivers/display_ILI-93xx_sm/lcd.c **** 		break;
1298:Drivers/display_ILI-93xx_sm/lcd.c **** 	case 2:
1299:Drivers/display_ILI-93xx_sm/lcd.c **** 		x = TFTWIDTH - 1 - x;
1300:Drivers/display_ILI-93xx_sm/lcd.c **** 		y = TFTHEIGHT - 1 - y;
1301:Drivers/display_ILI-93xx_sm/lcd.c **** 		break;
1302:Drivers/display_ILI-93xx_sm/lcd.c **** 	case 3:
1303:Drivers/display_ILI-93xx_sm/lcd.c **** 		t = x;
1304:Drivers/display_ILI-93xx_sm/lcd.c **** 		x = y;
1305:Drivers/display_ILI-93xx_sm/lcd.c **** 		y = TFTHEIGHT - 1 - t;
1306:Drivers/display_ILI-93xx_sm/lcd.c **** 		break;
1307:Drivers/display_ILI-93xx_sm/lcd.c **** 	}
1308:Drivers/display_ILI-93xx_sm/lcd.c **** 	LCD_Write16Register16(ILI932X_GRAM_HOR_AD, x);
1309:Drivers/display_ILI-93xx_sm/lcd.c **** 	LCD_Write16Register16(ILI932X_GRAM_VER_AD, y);
1310:Drivers/display_ILI-93xx_sm/lcd.c **** 	LCD_Write16Register16(ILI932X_GRAM_WR, color);
1311:Drivers/display_ILI-93xx_sm/lcd.c **** #elif defined(ILI9340) || defined(ILI9341) || defined(ILI9341_00) || defined(R61520) || defined(UNK
1312:Drivers/display_ILI-93xx_sm/lcd.c **** 	LCD_SetAddrWindow(x, y, m_width - 1, m_height - 1);
1313:Drivers/display_ILI-93xx_sm/lcd.c **** 	LCD_CS_ACTIVE();
1314:Drivers/display_ILI-93xx_sm/lcd.c **** 	LCD_Write16Register8(ILI9341_MEMORYWRITE, color);
1315:Drivers/display_ILI-93xx_sm/lcd.c **** #elif defined(HX8347D) || defined(HX8347G)
1316:Drivers/display_ILI-93xx_sm/lcd.c ****     uint8_t t;
1317:Drivers/display_ILI-93xx_sm/lcd.c ****     switch(m_rotation) {
1318:Drivers/display_ILI-93xx_sm/lcd.c **** 		case 1: t = 0x60; break;
1319:Drivers/display_ILI-93xx_sm/lcd.c **** 		case 2: t = 0xc0; break;
1320:Drivers/display_ILI-93xx_sm/lcd.c **** 		case 3: t = 0xa0; break;
1321:Drivers/display_ILI-93xx_sm/lcd.c **** 		default: t = 0; break;
1322:Drivers/display_ILI-93xx_sm/lcd.c ****     }
1323:Drivers/display_ILI-93xx_sm/lcd.c ****     LCD_Write8Register8(HX8347G_MEMACCESS, t);
1324:Drivers/display_ILI-93xx_sm/lcd.c ****     // Only upper-left is set -- bottom-right is full screen default
1325:Drivers/display_ILI-93xx_sm/lcd.c ****     LCD_Write16RegisterPair8(HX8347G_COLADDRSTART_HI, HX8347G_COLADDRSTART_LO, x);
1326:Drivers/display_ILI-93xx_sm/lcd.c ****     LCD_Write16RegisterPair8(HX8347G_ROWADDRSTART_HI, HX8347G_ROWADDRSTART_LO, y);
1327:Drivers/display_ILI-93xx_sm/lcd.c ****     LCD_Write16Register8(HX8347G_SRAM_WR, color);
1328:Drivers/display_ILI-93xx_sm/lcd.c **** #elif defined(HX8357D)
1329:Drivers/display_ILI-93xx_sm/lcd.c **** 	LCD_SetAddrWindow(x, y, m_width - 1, m_height - 1);
1330:Drivers/display_ILI-93xx_sm/lcd.c **** 	LCD_CS_ACTIVE();
1331:Drivers/display_ILI-93xx_sm/lcd.c **** 	LCD_Write16Register8(HX8357_RAMWR, color);
1332:Drivers/display_ILI-93xx_sm/lcd.c **** #elif defined(SSD1297)
1333:Drivers/display_ILI-93xx_sm/lcd.c **** 	if(m_rotation & 1) {
1334:Drivers/display_ILI-93xx_sm/lcd.c **** 		LCD_Write16Register8(SSD1297_SETXCOUNTER, y); //GRAM Address Set
1335:Drivers/display_ILI-93xx_sm/lcd.c **** 		LCD_Write16Register8(SSD1297_SETYCOUNTER, x);
1336:Drivers/display_ILI-93xx_sm/lcd.c **** 	} else {
1337:Drivers/display_ILI-93xx_sm/lcd.c **** 		LCD_Write16Register8(SSD1297_SETXCOUNTER, x); //GRAM Address Set
1338:Drivers/display_ILI-93xx_sm/lcd.c **** 		LCD_Write16Register8(SSD1297_SETYCOUNTER, y);
1339:Drivers/display_ILI-93xx_sm/lcd.c **** 	}
1340:Drivers/display_ILI-93xx_sm/lcd.c **** 	LCD_Write24Register8(SSD1297_RAMDATA_WRITE, LCD_Color565_to_888(color));
1341:Drivers/display_ILI-93xx_sm/lcd.c **** #endif
1342:Drivers/display_ILI-93xx_sm/lcd.c **** 
1343:Drivers/display_ILI-93xx_sm/lcd.c **** 	LCD_CS_IDLE();
1344:Drivers/display_ILI-93xx_sm/lcd.c **** }
1345:Drivers/display_ILI-93xx_sm/lcd.c **** 
1346:Drivers/display_ILI-93xx_sm/lcd.c **** /**
1347:Drivers/display_ILI-93xx_sm/lcd.c ****  * \brief Flood
1348:Drivers/display_ILI-93xx_sm/lcd.c ****  *
1349:Drivers/display_ILI-93xx_sm/lcd.c ****  * \param color	Color
ARM GAS  /tmp/cc47Teva.s 			page 119


1350:Drivers/display_ILI-93xx_sm/lcd.c ****  * \param len	Length
1351:Drivers/display_ILI-93xx_sm/lcd.c ****  *
1352:Drivers/display_ILI-93xx_sm/lcd.c ****  * \return void
1353:Drivers/display_ILI-93xx_sm/lcd.c ****  */
1354:Drivers/display_ILI-93xx_sm/lcd.c **** void LCD_Flood(uint16_t color, uint32_t len) {
 4285              		.loc 1 1354 46 is_stmt 1 view -0
 4286              		.cfi_startproc
 4287              		@ args = 0, pretend = 0, frame = 0
 4288              		@ frame_needed = 0, uses_anonymous_args = 0
 4289              		.loc 1 1354 46 is_stmt 0 view .LVU1339
 4290 0000 F0B5     		push	{r4, r5, r6, r7, lr}
 4291              	.LCFI18:
 4292              		.cfi_def_cfa_offset 20
 4293              		.cfi_offset 4, -20
 4294              		.cfi_offset 5, -16
 4295              		.cfi_offset 6, -12
 4296              		.cfi_offset 7, -8
 4297              		.cfi_offset 14, -4
1355:Drivers/display_ILI-93xx_sm/lcd.c **** #if defined(SSD1297)
1356:Drivers/display_ILI-93xx_sm/lcd.c **** 	uint8_t red = LCD_Color565_to_R(color);
1357:Drivers/display_ILI-93xx_sm/lcd.c **** 	uint8_t green = LCD_Color565_to_G(color);
1358:Drivers/display_ILI-93xx_sm/lcd.c **** 	uint8_t blue = LCD_Color565_to_B(color);
1359:Drivers/display_ILI-93xx_sm/lcd.c **** #else
1360:Drivers/display_ILI-93xx_sm/lcd.c **** 	uint8_t hi = color >> 8, lo = color;
 4298              		.loc 1 1360 2 is_stmt 1 view .LVU1340
 4299              		.loc 1 1360 10 is_stmt 0 view .LVU1341
 4300 0002 040A     		lsrs	r4, r0, #8
 4301              	.LVL252:
 4302              		.loc 1 1360 27 view .LVU1342
 4303 0004 C2B2     		uxtb	r2, r0
 4304              	.LVL253:
1361:Drivers/display_ILI-93xx_sm/lcd.c **** #endif
1362:Drivers/display_ILI-93xx_sm/lcd.c **** 
1363:Drivers/display_ILI-93xx_sm/lcd.c **** 	LCD_CS_ACTIVE();
 4305              		.loc 1 1363 2 is_stmt 1 view .LVU1343
 4306 0006 AA4E     		ldr	r6, .L252
 4307 0008 4FF48033 		mov	r3, #65536
 4308 000c 3361     		str	r3, [r6, #16]
1364:Drivers/display_ILI-93xx_sm/lcd.c **** 
1365:Drivers/display_ILI-93xx_sm/lcd.c **** #if	defined(ILI9325) || defined(ILI9328) || defined(R61505) || defined(R61505V) || defined(S6D0154)
1366:Drivers/display_ILI-93xx_sm/lcd.c **** 	LCD_Write16Register16(ILI932X_GRAM_WR, color);
1367:Drivers/display_ILI-93xx_sm/lcd.c **** #elif defined(ILI9340) || defined(ILI9341) || defined(ILI9341_00) || defined(R61520) || defined(UNK
1368:Drivers/display_ILI-93xx_sm/lcd.c **** 	LCD_Write16Register8(ILI9341_MEMORYWRITE, color);
 4309              		.loc 1 1368 2 view .LVU1344
 4310              	.LVL254:
 4311              	.LBB453:
 4312              	.LBI453:
 930:Drivers/display_ILI-93xx_sm/lcd.c **** 	LCD_CD_COMMAND();
 4313              		.loc 1 930 13 view .LVU1345
 4314              	.LBB454:
 931:Drivers/display_ILI-93xx_sm/lcd.c **** 	LCD_Write8(a);
 4315              		.loc 1 931 2 view .LVU1346
 4316 000e A94D     		ldr	r5, .L252+4
 4317 0010 4FF48013 		mov	r3, #1048576
 4318 0014 2B61     		str	r3, [r5, #16]
 932:Drivers/display_ILI-93xx_sm/lcd.c **** 	LCD_CD_DATA();
 4319              		.loc 1 932 2 view .LVU1347
ARM GAS  /tmp/cc47Teva.s 			page 120


 4320              	.LVL255:
 4321              	.LBB455:
 4322              	.LBI455:
 847:Drivers/display_ILI-93xx_sm/lcd.c **** 	// ------ PORT -----     --- Data ----
 4323              		.loc 1 847 13 view .LVU1348
 4324              	.LBB456:
 860:Drivers/display_ILI-93xx_sm/lcd.c **** 	GPIOB->ODR = (GPIOB->ODR & 0xFBC7) | (data & 0x08) | ((data & 0x10) << 1) | ((data & 0x20) >> 1) |
 4325              		.loc 1 860 2 view .LVU1349
 860:Drivers/display_ILI-93xx_sm/lcd.c **** 	GPIOB->ODR = (GPIOB->ODR & 0xFBC7) | (data & 0x08) | ((data & 0x10) << 1) | ((data & 0x20) >> 1) |
 4326              		.loc 1 860 21 is_stmt 0 view .LVU1350
 4327 0016 EB68     		ldr	r3, [r5, #12]
 860:Drivers/display_ILI-93xx_sm/lcd.c **** 	GPIOB->ODR = (GPIOB->ODR & 0xFBC7) | (data & 0x08) | ((data & 0x10) << 1) | ((data & 0x20) >> 1) |
 4328              		.loc 1 860 27 view .LVU1351
 4329 0018 23F4F063 		bic	r3, r3, #1920
 4330 001c 1B04     		lsls	r3, r3, #16
 4331 001e 1B0C     		lsrs	r3, r3, #16
 860:Drivers/display_ILI-93xx_sm/lcd.c **** 	GPIOB->ODR = (GPIOB->ODR & 0xFBC7) | (data & 0x08) | ((data & 0x10) << 1) | ((data & 0x20) >> 1) |
 4332              		.loc 1 860 60 view .LVU1352
 4333 0020 43F48063 		orr	r3, r3, #1024
 860:Drivers/display_ILI-93xx_sm/lcd.c **** 	GPIOB->ODR = (GPIOB->ODR & 0xFBC7) | (data & 0x08) | ((data & 0x10) << 1) | ((data & 0x20) >> 1) |
 4334              		.loc 1 860 13 view .LVU1353
 4335 0024 EB60     		str	r3, [r5, #12]
 861:Drivers/display_ILI-93xx_sm/lcd.c **** #else
 4336              		.loc 1 861 2 is_stmt 1 view .LVU1354
 861:Drivers/display_ILI-93xx_sm/lcd.c **** #else
 4337              		.loc 1 861 21 is_stmt 0 view .LVU1355
 4338 0026 F368     		ldr	r3, [r6, #12]
 861:Drivers/display_ILI-93xx_sm/lcd.c **** #else
 4339              		.loc 1 861 27 view .LVU1356
 4340 0028 23F48763 		bic	r3, r3, #1080
 4341 002c 1B04     		lsls	r3, r3, #16
 4342 002e 1B0C     		lsrs	r3, r3, #16
 861:Drivers/display_ILI-93xx_sm/lcd.c **** #else
 4343              		.loc 1 861 76 view .LVU1357
 4344 0030 43F01803 		orr	r3, r3, #24
 861:Drivers/display_ILI-93xx_sm/lcd.c **** #else
 4345              		.loc 1 861 13 view .LVU1358
 4346 0034 F360     		str	r3, [r6, #12]
 869:Drivers/display_ILI-93xx_sm/lcd.c **** }
 4347              		.loc 1 869 2 is_stmt 1 view .LVU1359
 869:Drivers/display_ILI-93xx_sm/lcd.c **** }
 4348              		.loc 1 869 2 view .LVU1360
 4349 0036 4FF40033 		mov	r3, #131072
 4350 003a 2B61     		str	r3, [r5, #16]
 869:Drivers/display_ILI-93xx_sm/lcd.c **** }
 4351              		.loc 1 869 2 view .LVU1361
 4352              	.LVL256:
 4353              	.LBB457:
 4354              	.LBI457:
 668:Drivers/display_ILI-93xx_sm/lcd.c **** 	for (; t; t--) __asm("nop");
 4355              		.loc 1 668 13 view .LVU1362
 4356              	.LBB458:
 669:Drivers/display_ILI-93xx_sm/lcd.c **** }
 4357              		.loc 1 669 2 view .LVU1363
 4358              	.LBE458:
 4359              	.LBE457:
 869:Drivers/display_ILI-93xx_sm/lcd.c **** }
ARM GAS  /tmp/cc47Teva.s 			page 121


 4360              		.loc 1 869 2 is_stmt 0 view .LVU1364
 4361 003c 0223     		movs	r3, #2
 4362 003e 01E0     		b	.L207
 4363              	.LVL257:
 4364              	.L208:
 4365              	.LBB460:
 4366              	.LBB459:
 669:Drivers/display_ILI-93xx_sm/lcd.c **** }
 4367              		.loc 1 669 17 is_stmt 1 view .LVU1365
 4368              		.syntax unified
 4369              	@ 669 "Drivers/display_ILI-93xx_sm/lcd.c" 1
 4370 0040 00BF     		nop
 4371              	@ 0 "" 2
 669:Drivers/display_ILI-93xx_sm/lcd.c **** }
 4372              		.loc 1 669 13 is_stmt 0 view .LVU1366
 4373              		.thumb
 4374              		.syntax unified
 4375 0042 013B     		subs	r3, r3, #1
 4376              	.LVL258:
 4377              	.L207:
 669:Drivers/display_ILI-93xx_sm/lcd.c **** }
 4378              		.loc 1 669 2 view .LVU1367
 4379 0044 002B     		cmp	r3, #0
 4380 0046 FBD1     		bne	.L208
 4381              	.LVL259:
 669:Drivers/display_ILI-93xx_sm/lcd.c **** }
 4382              		.loc 1 669 2 view .LVU1368
 4383              	.LBE459:
 4384              	.LBE460:
 869:Drivers/display_ILI-93xx_sm/lcd.c **** }
 4385              		.loc 1 869 2 is_stmt 1 view .LVU1369
 4386 0048 0223     		movs	r3, #2
 4387 004a 9A4D     		ldr	r5, .L252+4
 4388 004c 2B61     		str	r3, [r5, #16]
 869:Drivers/display_ILI-93xx_sm/lcd.c **** }
 4389              		.loc 1 869 2 view .LVU1370
 4390              	.LVL260:
 4391              	.LBB461:
 4392              	.LBI461:
 668:Drivers/display_ILI-93xx_sm/lcd.c **** 	for (; t; t--) __asm("nop");
 4393              		.loc 1 668 13 view .LVU1371
 4394              	.L209:
 4395              	.LBB462:
 669:Drivers/display_ILI-93xx_sm/lcd.c **** }
 4396              		.loc 1 669 2 is_stmt 0 view .LVU1372
 4397 004e 13B1     		cbz	r3, .L241
 669:Drivers/display_ILI-93xx_sm/lcd.c **** }
 4398              		.loc 1 669 17 is_stmt 1 view .LVU1373
 4399              		.syntax unified
 4400              	@ 669 "Drivers/display_ILI-93xx_sm/lcd.c" 1
 4401 0050 00BF     		nop
 4402              	@ 0 "" 2
 669:Drivers/display_ILI-93xx_sm/lcd.c **** }
 4403              		.loc 1 669 13 is_stmt 0 view .LVU1374
 4404              		.thumb
 4405              		.syntax unified
 4406 0052 013B     		subs	r3, r3, #1
ARM GAS  /tmp/cc47Teva.s 			page 122


 4407              	.LVL261:
 669:Drivers/display_ILI-93xx_sm/lcd.c **** }
 4408              		.loc 1 669 13 view .LVU1375
 4409 0054 FBE7     		b	.L209
 4410              	.L241:
 4411              	.LVL262:
 669:Drivers/display_ILI-93xx_sm/lcd.c **** }
 4412              		.loc 1 669 13 view .LVU1376
 4413              	.LBE462:
 4414              	.LBE461:
 4415              	.LBE456:
 4416              	.LBE455:
 933:Drivers/display_ILI-93xx_sm/lcd.c **** 	LCD_Write8(d >> 8);
 4417              		.loc 1 933 2 is_stmt 1 view .LVU1377
 4418 0056 974E     		ldr	r6, .L252+4
 4419 0058 1023     		movs	r3, #16
 4420 005a 3361     		str	r3, [r6, #16]
 934:Drivers/display_ILI-93xx_sm/lcd.c **** 	LCD_Write8(d);
 4421              		.loc 1 934 2 view .LVU1378
 4422 005c 030A     		lsrs	r3, r0, #8
 4423              	.LBB463:
 4424              	.LBI463:
 847:Drivers/display_ILI-93xx_sm/lcd.c **** 	// ------ PORT -----     --- Data ----
 4425              		.loc 1 847 13 view .LVU1379
 4426              	.LBB464:
 860:Drivers/display_ILI-93xx_sm/lcd.c **** 	GPIOB->ODR = (GPIOB->ODR & 0xFBC7) | (data & 0x08) | ((data & 0x10) << 1) | ((data & 0x20) >> 1) |
 4427              		.loc 1 860 2 view .LVU1380
 860:Drivers/display_ILI-93xx_sm/lcd.c **** 	GPIOB->ODR = (GPIOB->ODR & 0xFBC7) | (data & 0x08) | ((data & 0x10) << 1) | ((data & 0x20) >> 1) |
 4428              		.loc 1 860 21 is_stmt 0 view .LVU1381
 4429 005e F768     		ldr	r7, [r6, #12]
 860:Drivers/display_ILI-93xx_sm/lcd.c **** 	GPIOB->ODR = (GPIOB->ODR & 0xFBC7) | (data & 0x08) | ((data & 0x10) << 1) | ((data & 0x20) >> 1) |
 4430              		.loc 1 860 27 view .LVU1382
 4431 0060 27F4F067 		bic	r7, r7, #1920
 4432 0064 3F04     		lsls	r7, r7, #16
 4433 0066 3F0C     		lsrs	r7, r7, #16
 860:Drivers/display_ILI-93xx_sm/lcd.c **** 	GPIOB->ODR = (GPIOB->ODR & 0xFBC7) | (data & 0x08) | ((data & 0x10) << 1) | ((data & 0x20) >> 1) |
 4434              		.loc 1 860 54 view .LVU1383
 4435 0068 5D02     		lsls	r5, r3, #9
 4436 006a 05F40075 		and	r5, r5, #512
 860:Drivers/display_ILI-93xx_sm/lcd.c **** 	GPIOB->ODR = (GPIOB->ODR & 0xFBC7) | (data & 0x08) | ((data & 0x10) << 1) | ((data & 0x20) >> 1) |
 4437              		.loc 1 860 37 view .LVU1384
 4438 006e 2F43     		orrs	r7, r7, r5
 860:Drivers/display_ILI-93xx_sm/lcd.c **** 	GPIOB->ODR = (GPIOB->ODR & 0xFBC7) | (data & 0x08) | ((data & 0x10) << 1) | ((data & 0x20) >> 1) |
 4439              		.loc 1 860 77 view .LVU1385
 4440 0070 1D02     		lsls	r5, r3, #8
 4441 0072 05F48065 		and	r5, r5, #1024
 860:Drivers/display_ILI-93xx_sm/lcd.c **** 	GPIOB->ODR = (GPIOB->ODR & 0xFBC7) | (data & 0x08) | ((data & 0x10) << 1) | ((data & 0x20) >> 1) |
 4442              		.loc 1 860 60 view .LVU1386
 4443 0076 2F43     		orrs	r7, r7, r5
 860:Drivers/display_ILI-93xx_sm/lcd.c **** 	GPIOB->ODR = (GPIOB->ODR & 0xFBC7) | (data & 0x08) | ((data & 0x10) << 1) | ((data & 0x20) >> 1) |
 4444              		.loc 1 860 100 view .LVU1387
 4445 0078 4FEA430C 		lsl	ip, r3, #1
 4446 007c 0CF48075 		and	r5, ip, #256
 860:Drivers/display_ILI-93xx_sm/lcd.c **** 	GPIOB->ODR = (GPIOB->ODR & 0xFBC7) | (data & 0x08) | ((data & 0x10) << 1) | ((data & 0x20) >> 1) |
 4447              		.loc 1 860 83 view .LVU1388
 4448 0080 2F43     		orrs	r7, r7, r5
 860:Drivers/display_ILI-93xx_sm/lcd.c **** 	GPIOB->ODR = (GPIOB->ODR & 0xFBC7) | (data & 0x08) | ((data & 0x10) << 1) | ((data & 0x20) >> 1) |
ARM GAS  /tmp/cc47Teva.s 			page 123


 4449              		.loc 1 860 123 view .LVU1389
 4450 0082 9D01     		lsls	r5, r3, #6
 4451 0084 05F08005 		and	r5, r5, #128
 860:Drivers/display_ILI-93xx_sm/lcd.c **** 	GPIOB->ODR = (GPIOB->ODR & 0xFBC7) | (data & 0x08) | ((data & 0x10) << 1) | ((data & 0x20) >> 1) |
 4452              		.loc 1 860 106 view .LVU1390
 4453 0088 2F43     		orrs	r7, r7, r5
 860:Drivers/display_ILI-93xx_sm/lcd.c **** 	GPIOB->ODR = (GPIOB->ODR & 0xFBC7) | (data & 0x08) | ((data & 0x10) << 1) | ((data & 0x20) >> 1) |
 4454              		.loc 1 860 13 view .LVU1391
 4455 008a F760     		str	r7, [r6, #12]
 861:Drivers/display_ILI-93xx_sm/lcd.c **** #else
 4456              		.loc 1 861 2 is_stmt 1 view .LVU1392
 861:Drivers/display_ILI-93xx_sm/lcd.c **** #else
 4457              		.loc 1 861 21 is_stmt 0 view .LVU1393
 4458 008c 884F     		ldr	r7, .L252
 4459 008e FD68     		ldr	r5, [r7, #12]
 861:Drivers/display_ILI-93xx_sm/lcd.c **** #else
 4460              		.loc 1 861 27 view .LVU1394
 4461 0090 25F48765 		bic	r5, r5, #1080
 4462 0094 2D04     		lsls	r5, r5, #16
 4463 0096 2D0C     		lsrs	r5, r5, #16
 861:Drivers/display_ILI-93xx_sm/lcd.c **** #else
 4464              		.loc 1 861 45 view .LVU1395
 4465 0098 03F0080E 		and	lr, r3, #8
 861:Drivers/display_ILI-93xx_sm/lcd.c **** #else
 4466              		.loc 1 861 37 view .LVU1396
 4467 009c 45EA0E05 		orr	r5, r5, lr
 861:Drivers/display_ILI-93xx_sm/lcd.c **** #else
 4468              		.loc 1 861 70 view .LVU1397
 4469 00a0 0CF0200C 		and	ip, ip, #32
 861:Drivers/display_ILI-93xx_sm/lcd.c **** #else
 4470              		.loc 1 861 53 view .LVU1398
 4471 00a4 45EA0C05 		orr	r5, r5, ip
 861:Drivers/display_ILI-93xx_sm/lcd.c **** #else
 4472              		.loc 1 861 93 view .LVU1399
 4473 00a8 4FEA630C 		asr	ip, r3, #1
 4474 00ac 0CF0100C 		and	ip, ip, #16
 861:Drivers/display_ILI-93xx_sm/lcd.c **** #else
 4475              		.loc 1 861 76 view .LVU1400
 4476 00b0 45EA0C05 		orr	r5, r5, ip
 861:Drivers/display_ILI-93xx_sm/lcd.c **** #else
 4477              		.loc 1 861 116 view .LVU1401
 4478 00b4 1B01     		lsls	r3, r3, #4
 4479 00b6 03F48063 		and	r3, r3, #1024
 861:Drivers/display_ILI-93xx_sm/lcd.c **** #else
 4480              		.loc 1 861 99 view .LVU1402
 4481 00ba 2B43     		orrs	r3, r3, r5
 861:Drivers/display_ILI-93xx_sm/lcd.c **** #else
 4482              		.loc 1 861 13 view .LVU1403
 4483 00bc FB60     		str	r3, [r7, #12]
 869:Drivers/display_ILI-93xx_sm/lcd.c **** }
 4484              		.loc 1 869 2 is_stmt 1 view .LVU1404
 869:Drivers/display_ILI-93xx_sm/lcd.c **** }
 4485              		.loc 1 869 2 view .LVU1405
 4486 00be 4FF40033 		mov	r3, #131072
 4487 00c2 3361     		str	r3, [r6, #16]
 869:Drivers/display_ILI-93xx_sm/lcd.c **** }
 4488              		.loc 1 869 2 view .LVU1406
ARM GAS  /tmp/cc47Teva.s 			page 124


 4489              	.LVL263:
 4490              	.LBB465:
 4491              	.LBI465:
 668:Drivers/display_ILI-93xx_sm/lcd.c **** 	for (; t; t--) __asm("nop");
 4492              		.loc 1 668 13 view .LVU1407
 4493              	.LBB466:
 669:Drivers/display_ILI-93xx_sm/lcd.c **** }
 4494              		.loc 1 669 2 view .LVU1408
 4495              	.LBE466:
 4496              	.LBE465:
 869:Drivers/display_ILI-93xx_sm/lcd.c **** }
 4497              		.loc 1 869 2 is_stmt 0 view .LVU1409
 4498 00c4 0223     		movs	r3, #2
 4499              	.LVL264:
 4500              	.L211:
 4501              	.LBB468:
 4502              	.LBB467:
 669:Drivers/display_ILI-93xx_sm/lcd.c **** }
 4503              		.loc 1 669 2 view .LVU1410
 4504 00c6 13B1     		cbz	r3, .L242
 669:Drivers/display_ILI-93xx_sm/lcd.c **** }
 4505              		.loc 1 669 17 is_stmt 1 view .LVU1411
 4506              		.syntax unified
 4507              	@ 669 "Drivers/display_ILI-93xx_sm/lcd.c" 1
 4508 00c8 00BF     		nop
 4509              	@ 0 "" 2
 669:Drivers/display_ILI-93xx_sm/lcd.c **** }
 4510              		.loc 1 669 13 is_stmt 0 view .LVU1412
 4511              		.thumb
 4512              		.syntax unified
 4513 00ca 013B     		subs	r3, r3, #1
 4514              	.LVL265:
 669:Drivers/display_ILI-93xx_sm/lcd.c **** }
 4515              		.loc 1 669 13 view .LVU1413
 4516 00cc FBE7     		b	.L211
 4517              	.L242:
 4518              	.LVL266:
 669:Drivers/display_ILI-93xx_sm/lcd.c **** }
 4519              		.loc 1 669 13 view .LVU1414
 4520              	.LBE467:
 4521              	.LBE468:
 869:Drivers/display_ILI-93xx_sm/lcd.c **** }
 4522              		.loc 1 869 2 is_stmt 1 view .LVU1415
 4523 00ce 0223     		movs	r3, #2
 4524 00d0 784D     		ldr	r5, .L252+4
 4525 00d2 2B61     		str	r3, [r5, #16]
 869:Drivers/display_ILI-93xx_sm/lcd.c **** }
 4526              		.loc 1 869 2 view .LVU1416
 4527              	.LVL267:
 4528              	.LBB469:
 4529              	.LBI469:
 668:Drivers/display_ILI-93xx_sm/lcd.c **** 	for (; t; t--) __asm("nop");
 4530              		.loc 1 668 13 view .LVU1417
 4531              	.L213:
 4532              	.LBB470:
 669:Drivers/display_ILI-93xx_sm/lcd.c **** }
 4533              		.loc 1 669 2 is_stmt 0 view .LVU1418
ARM GAS  /tmp/cc47Teva.s 			page 125


 4534 00d4 13B1     		cbz	r3, .L243
 669:Drivers/display_ILI-93xx_sm/lcd.c **** }
 4535              		.loc 1 669 17 is_stmt 1 view .LVU1419
 4536              		.syntax unified
 4537              	@ 669 "Drivers/display_ILI-93xx_sm/lcd.c" 1
 4538 00d6 00BF     		nop
 4539              	@ 0 "" 2
 669:Drivers/display_ILI-93xx_sm/lcd.c **** }
 4540              		.loc 1 669 13 is_stmt 0 view .LVU1420
 4541              		.thumb
 4542              		.syntax unified
 4543 00d8 013B     		subs	r3, r3, #1
 4544              	.LVL268:
 669:Drivers/display_ILI-93xx_sm/lcd.c **** }
 4545              		.loc 1 669 13 view .LVU1421
 4546 00da FBE7     		b	.L213
 4547              	.L243:
 4548              	.LVL269:
 669:Drivers/display_ILI-93xx_sm/lcd.c **** }
 4549              		.loc 1 669 13 view .LVU1422
 4550              	.LBE470:
 4551              	.LBE469:
 4552              	.LBE464:
 4553              	.LBE463:
 935:Drivers/display_ILI-93xx_sm/lcd.c **** }
 4554              		.loc 1 935 2 is_stmt 1 view .LVU1423
 4555 00dc C0B2     		uxtb	r0, r0
 4556              	.LVL270:
 4557              	.LBB471:
 4558              	.LBI471:
 847:Drivers/display_ILI-93xx_sm/lcd.c **** 	// ------ PORT -----     --- Data ----
 4559              		.loc 1 847 13 view .LVU1424
 4560              	.LBB472:
 860:Drivers/display_ILI-93xx_sm/lcd.c **** 	GPIOB->ODR = (GPIOB->ODR & 0xFBC7) | (data & 0x08) | ((data & 0x10) << 1) | ((data & 0x20) >> 1) |
 4561              		.loc 1 860 2 view .LVU1425
 860:Drivers/display_ILI-93xx_sm/lcd.c **** 	GPIOB->ODR = (GPIOB->ODR & 0xFBC7) | (data & 0x08) | ((data & 0x10) << 1) | ((data & 0x20) >> 1) |
 4562              		.loc 1 860 21 is_stmt 0 view .LVU1426
 4563 00de 754E     		ldr	r6, .L252+4
 4564 00e0 F568     		ldr	r5, [r6, #12]
 860:Drivers/display_ILI-93xx_sm/lcd.c **** 	GPIOB->ODR = (GPIOB->ODR & 0xFBC7) | (data & 0x08) | ((data & 0x10) << 1) | ((data & 0x20) >> 1) |
 4565              		.loc 1 860 27 view .LVU1427
 4566 00e2 25F4F065 		bic	r5, r5, #1920
 4567 00e6 2D04     		lsls	r5, r5, #16
 4568 00e8 2D0C     		lsrs	r5, r5, #16
 860:Drivers/display_ILI-93xx_sm/lcd.c **** 	GPIOB->ODR = (GPIOB->ODR & 0xFBC7) | (data & 0x08) | ((data & 0x10) << 1) | ((data & 0x20) >> 1) |
 4569              		.loc 1 860 54 view .LVU1428
 4570 00ea 4302     		lsls	r3, r0, #9
 4571 00ec 03F40073 		and	r3, r3, #512
 860:Drivers/display_ILI-93xx_sm/lcd.c **** 	GPIOB->ODR = (GPIOB->ODR & 0xFBC7) | (data & 0x08) | ((data & 0x10) << 1) | ((data & 0x20) >> 1) |
 4572              		.loc 1 860 37 view .LVU1429
 4573 00f0 1D43     		orrs	r5, r5, r3
 860:Drivers/display_ILI-93xx_sm/lcd.c **** 	GPIOB->ODR = (GPIOB->ODR & 0xFBC7) | (data & 0x08) | ((data & 0x10) << 1) | ((data & 0x20) >> 1) |
 4574              		.loc 1 860 77 view .LVU1430
 4575 00f2 0302     		lsls	r3, r0, #8
 4576 00f4 03F48063 		and	r3, r3, #1024
 860:Drivers/display_ILI-93xx_sm/lcd.c **** 	GPIOB->ODR = (GPIOB->ODR & 0xFBC7) | (data & 0x08) | ((data & 0x10) << 1) | ((data & 0x20) >> 1) |
 4577              		.loc 1 860 60 view .LVU1431
ARM GAS  /tmp/cc47Teva.s 			page 126


 4578 00f8 1D43     		orrs	r5, r5, r3
 860:Drivers/display_ILI-93xx_sm/lcd.c **** 	GPIOB->ODR = (GPIOB->ODR & 0xFBC7) | (data & 0x08) | ((data & 0x10) << 1) | ((data & 0x20) >> 1) |
 4579              		.loc 1 860 100 view .LVU1432
 4580 00fa 4700     		lsls	r7, r0, #1
 4581 00fc 07F48073 		and	r3, r7, #256
 860:Drivers/display_ILI-93xx_sm/lcd.c **** 	GPIOB->ODR = (GPIOB->ODR & 0xFBC7) | (data & 0x08) | ((data & 0x10) << 1) | ((data & 0x20) >> 1) |
 4582              		.loc 1 860 83 view .LVU1433
 4583 0100 1D43     		orrs	r5, r5, r3
 860:Drivers/display_ILI-93xx_sm/lcd.c **** 	GPIOB->ODR = (GPIOB->ODR & 0xFBC7) | (data & 0x08) | ((data & 0x10) << 1) | ((data & 0x20) >> 1) |
 4584              		.loc 1 860 123 view .LVU1434
 4585 0102 8301     		lsls	r3, r0, #6
 4586 0104 03F08003 		and	r3, r3, #128
 860:Drivers/display_ILI-93xx_sm/lcd.c **** 	GPIOB->ODR = (GPIOB->ODR & 0xFBC7) | (data & 0x08) | ((data & 0x10) << 1) | ((data & 0x20) >> 1) |
 4587              		.loc 1 860 106 view .LVU1435
 4588 0108 1D43     		orrs	r5, r5, r3
 860:Drivers/display_ILI-93xx_sm/lcd.c **** 	GPIOB->ODR = (GPIOB->ODR & 0xFBC7) | (data & 0x08) | ((data & 0x10) << 1) | ((data & 0x20) >> 1) |
 4589              		.loc 1 860 13 view .LVU1436
 4590 010a F560     		str	r5, [r6, #12]
 861:Drivers/display_ILI-93xx_sm/lcd.c **** #else
 4591              		.loc 1 861 2 is_stmt 1 view .LVU1437
 861:Drivers/display_ILI-93xx_sm/lcd.c **** #else
 4592              		.loc 1 861 21 is_stmt 0 view .LVU1438
 4593 010c 684D     		ldr	r5, .L252
 4594 010e EB68     		ldr	r3, [r5, #12]
 861:Drivers/display_ILI-93xx_sm/lcd.c **** #else
 4595              		.loc 1 861 27 view .LVU1439
 4596 0110 23F48763 		bic	r3, r3, #1080
 4597 0114 1B04     		lsls	r3, r3, #16
 4598 0116 1B0C     		lsrs	r3, r3, #16
 861:Drivers/display_ILI-93xx_sm/lcd.c **** #else
 4599              		.loc 1 861 45 view .LVU1440
 4600 0118 00F0080C 		and	ip, r0, #8
 861:Drivers/display_ILI-93xx_sm/lcd.c **** #else
 4601              		.loc 1 861 37 view .LVU1441
 4602 011c 43EA0C03 		orr	r3, r3, ip
 861:Drivers/display_ILI-93xx_sm/lcd.c **** #else
 4603              		.loc 1 861 70 view .LVU1442
 4604 0120 07F02007 		and	r7, r7, #32
 861:Drivers/display_ILI-93xx_sm/lcd.c **** #else
 4605              		.loc 1 861 53 view .LVU1443
 4606 0124 3B43     		orrs	r3, r3, r7
 861:Drivers/display_ILI-93xx_sm/lcd.c **** #else
 4607              		.loc 1 861 93 view .LVU1444
 4608 0126 4710     		asrs	r7, r0, #1
 4609 0128 07F01007 		and	r7, r7, #16
 861:Drivers/display_ILI-93xx_sm/lcd.c **** #else
 4610              		.loc 1 861 76 view .LVU1445
 4611 012c 3B43     		orrs	r3, r3, r7
 861:Drivers/display_ILI-93xx_sm/lcd.c **** #else
 4612              		.loc 1 861 116 view .LVU1446
 4613 012e 0001     		lsls	r0, r0, #4
 4614              	.LVL271:
 861:Drivers/display_ILI-93xx_sm/lcd.c **** #else
 4615              		.loc 1 861 116 view .LVU1447
 4616 0130 00F48060 		and	r0, r0, #1024
 861:Drivers/display_ILI-93xx_sm/lcd.c **** #else
 4617              		.loc 1 861 99 view .LVU1448
ARM GAS  /tmp/cc47Teva.s 			page 127


 4618 0134 0343     		orrs	r3, r3, r0
 861:Drivers/display_ILI-93xx_sm/lcd.c **** #else
 4619              		.loc 1 861 13 view .LVU1449
 4620 0136 EB60     		str	r3, [r5, #12]
 869:Drivers/display_ILI-93xx_sm/lcd.c **** }
 4621              		.loc 1 869 2 is_stmt 1 view .LVU1450
 869:Drivers/display_ILI-93xx_sm/lcd.c **** }
 4622              		.loc 1 869 2 view .LVU1451
 4623 0138 4FF40033 		mov	r3, #131072
 4624 013c 3361     		str	r3, [r6, #16]
 869:Drivers/display_ILI-93xx_sm/lcd.c **** }
 4625              		.loc 1 869 2 view .LVU1452
 4626              	.LVL272:
 4627              	.LBB473:
 4628              	.LBI473:
 668:Drivers/display_ILI-93xx_sm/lcd.c **** 	for (; t; t--) __asm("nop");
 4629              		.loc 1 668 13 view .LVU1453
 4630              	.LBB474:
 669:Drivers/display_ILI-93xx_sm/lcd.c **** }
 4631              		.loc 1 669 2 view .LVU1454
 4632              	.LBE474:
 4633              	.LBE473:
 869:Drivers/display_ILI-93xx_sm/lcd.c **** }
 4634              		.loc 1 869 2 is_stmt 0 view .LVU1455
 4635 013e 0223     		movs	r3, #2
 4636              	.LVL273:
 4637              	.L215:
 4638              	.LBB476:
 4639              	.LBB475:
 669:Drivers/display_ILI-93xx_sm/lcd.c **** }
 4640              		.loc 1 669 2 view .LVU1456
 4641 0140 13B1     		cbz	r3, .L244
 669:Drivers/display_ILI-93xx_sm/lcd.c **** }
 4642              		.loc 1 669 17 is_stmt 1 view .LVU1457
 4643              		.syntax unified
 4644              	@ 669 "Drivers/display_ILI-93xx_sm/lcd.c" 1
 4645 0142 00BF     		nop
 4646              	@ 0 "" 2
 669:Drivers/display_ILI-93xx_sm/lcd.c **** }
 4647              		.loc 1 669 13 is_stmt 0 view .LVU1458
 4648              		.thumb
 4649              		.syntax unified
 4650 0144 013B     		subs	r3, r3, #1
 4651              	.LVL274:
 669:Drivers/display_ILI-93xx_sm/lcd.c **** }
 4652              		.loc 1 669 13 view .LVU1459
 4653 0146 FBE7     		b	.L215
 4654              	.L244:
 4655              	.LVL275:
 669:Drivers/display_ILI-93xx_sm/lcd.c **** }
 4656              		.loc 1 669 13 view .LVU1460
 4657              	.LBE475:
 4658              	.LBE476:
 869:Drivers/display_ILI-93xx_sm/lcd.c **** }
 4659              		.loc 1 869 2 is_stmt 1 view .LVU1461
 4660 0148 0223     		movs	r3, #2
 4661 014a 5A48     		ldr	r0, .L252+4
ARM GAS  /tmp/cc47Teva.s 			page 128


 4662 014c 0361     		str	r3, [r0, #16]
 869:Drivers/display_ILI-93xx_sm/lcd.c **** }
 4663              		.loc 1 869 2 view .LVU1462
 4664              	.LVL276:
 4665              	.LBB477:
 4666              	.LBI477:
 668:Drivers/display_ILI-93xx_sm/lcd.c **** 	for (; t; t--) __asm("nop");
 4667              		.loc 1 668 13 view .LVU1463
 4668 014e 01E0     		b	.L217
 4669              	.LVL277:
 4670              	.L218:
 4671              	.LBB478:
 669:Drivers/display_ILI-93xx_sm/lcd.c **** }
 4672              		.loc 1 669 17 view .LVU1464
 4673              		.syntax unified
 4674              	@ 669 "Drivers/display_ILI-93xx_sm/lcd.c" 1
 4675 0150 00BF     		nop
 4676              	@ 0 "" 2
 669:Drivers/display_ILI-93xx_sm/lcd.c **** }
 4677              		.loc 1 669 13 is_stmt 0 view .LVU1465
 4678              		.thumb
 4679              		.syntax unified
 4680 0152 013B     		subs	r3, r3, #1
 4681              	.LVL278:
 4682              	.L217:
 669:Drivers/display_ILI-93xx_sm/lcd.c **** }
 4683              		.loc 1 669 2 view .LVU1466
 4684 0154 002B     		cmp	r3, #0
 4685 0156 FBD1     		bne	.L218
 4686              	.LVL279:
 669:Drivers/display_ILI-93xx_sm/lcd.c **** }
 4687              		.loc 1 669 2 view .LVU1467
 4688              	.LBE478:
 4689              	.LBE477:
 4690              	.LBE472:
 4691              	.LBE471:
 4692              	.LBE454:
 4693              	.LBE453:
1369:Drivers/display_ILI-93xx_sm/lcd.c **** #elif defined(HX8347D) || defined(HX8347G)
1370:Drivers/display_ILI-93xx_sm/lcd.c **** 	LCD_Write16Register8(HX8347G_SRAM_WR, color);
1371:Drivers/display_ILI-93xx_sm/lcd.c **** #elif defined(HX8357D)
1372:Drivers/display_ILI-93xx_sm/lcd.c **** 	LCD_Write16Register8(HX8357_RAMWR, color);
1373:Drivers/display_ILI-93xx_sm/lcd.c **** #elif defined(SSD1297)
1374:Drivers/display_ILI-93xx_sm/lcd.c **** 	LCD_Write24Register8(SSD1297_RAMDATA_WRITE, LCD_Color565_to_888(color));
1375:Drivers/display_ILI-93xx_sm/lcd.c **** #endif
1376:Drivers/display_ILI-93xx_sm/lcd.c **** 	len--;
 4694              		.loc 1 1376 2 is_stmt 1 view .LVU1468
 4695              		.loc 1 1376 5 is_stmt 0 view .LVU1469
 4696 0158 0139     		subs	r1, r1, #1
 4697              	.LVL280:
1377:Drivers/display_ILI-93xx_sm/lcd.c **** #if defined(SSD1297)
1378:Drivers/display_ILI-93xx_sm/lcd.c **** 	if ((red == green) && (green == blue) && (red == blue)) {
1379:Drivers/display_ILI-93xx_sm/lcd.c **** #else
1380:Drivers/display_ILI-93xx_sm/lcd.c **** 	if (hi == lo) {
 4698              		.loc 1 1380 2 is_stmt 1 view .LVU1470
 4699              		.loc 1 1380 5 is_stmt 0 view .LVU1471
 4700 015a 9442     		cmp	r4, r2
ARM GAS  /tmp/cc47Teva.s 			page 129


 4701 015c 6DD1     		bne	.L220
 4702 015e 1BE0     		b	.L219
 4703              	.LVL281:
 4704              	.L247:
1381:Drivers/display_ILI-93xx_sm/lcd.c **** #endif
1382:Drivers/display_ILI-93xx_sm/lcd.c **** 		// High and low bytes are identical.  Leave prior data
1383:Drivers/display_ILI-93xx_sm/lcd.c **** 		// on the port(s) and just toggle the write strobe.
1384:Drivers/display_ILI-93xx_sm/lcd.c **** 		while (len--) {
1385:Drivers/display_ILI-93xx_sm/lcd.c **** #if defined(SSD1297)
1386:Drivers/display_ILI-93xx_sm/lcd.c **** 			LCD_WR_STROBE();
1387:Drivers/display_ILI-93xx_sm/lcd.c **** #endif
1388:Drivers/display_ILI-93xx_sm/lcd.c **** 			LCD_WR_STROBE();
 4705              		.loc 1 1388 4 is_stmt 1 view .LVU1472
 4706 0160 0223     		movs	r3, #2
 4707 0162 5449     		ldr	r1, .L252+4
 4708 0164 0B61     		str	r3, [r1, #16]
 4709              		.loc 1 1388 4 view .LVU1473
 4710              	.LVL282:
 4711              	.LBB479:
 4712              	.LBI479:
 668:Drivers/display_ILI-93xx_sm/lcd.c **** 	for (; t; t--) __asm("nop");
 4713              		.loc 1 668 13 view .LVU1474
 4714 0166 01E0     		b	.L223
 4715              	.LVL283:
 4716              	.L224:
 4717              	.LBB480:
 669:Drivers/display_ILI-93xx_sm/lcd.c **** }
 4718              		.loc 1 669 17 view .LVU1475
 4719              		.syntax unified
 4720              	@ 669 "Drivers/display_ILI-93xx_sm/lcd.c" 1
 4721 0168 00BF     		nop
 4722              	@ 0 "" 2
 669:Drivers/display_ILI-93xx_sm/lcd.c **** }
 4723              		.loc 1 669 13 is_stmt 0 view .LVU1476
 4724              		.thumb
 4725              		.syntax unified
 4726 016a 013B     		subs	r3, r3, #1
 4727              	.LVL284:
 4728              	.L223:
 669:Drivers/display_ILI-93xx_sm/lcd.c **** }
 4729              		.loc 1 669 2 view .LVU1477
 4730 016c 002B     		cmp	r3, #0
 4731 016e FBD1     		bne	.L224
 4732              	.LVL285:
 669:Drivers/display_ILI-93xx_sm/lcd.c **** }
 4733              		.loc 1 669 2 view .LVU1478
 4734              	.LBE480:
 4735              	.LBE479:
1389:Drivers/display_ILI-93xx_sm/lcd.c **** 			LCD_WR_STROBE();
 4736              		.loc 1 1389 4 is_stmt 1 view .LVU1479
 4737              		.loc 1 1389 4 view .LVU1480
 4738 0170 03F18043 		add	r3, r3, #1073741824
 4739 0174 03F58433 		add	r3, r3, #67584
 4740 0178 4FF40031 		mov	r1, #131072
 4741 017c 1961     		str	r1, [r3, #16]
 4742              		.loc 1 1389 4 view .LVU1481
 4743              	.LVL286:
ARM GAS  /tmp/cc47Teva.s 			page 130


 4744              	.LBB481:
 4745              	.LBI481:
 668:Drivers/display_ILI-93xx_sm/lcd.c **** 	for (; t; t--) __asm("nop");
 4746              		.loc 1 668 13 view .LVU1482
 4747              	.LBE481:
 4748              		.loc 1 1389 4 is_stmt 0 view .LVU1483
 4749 017e 0223     		movs	r3, #2
 4750              	.LVL287:
 4751              	.L225:
 4752              	.LBB483:
 4753              	.LBB482:
 669:Drivers/display_ILI-93xx_sm/lcd.c **** }
 4754              		.loc 1 669 2 view .LVU1484
 4755 0180 13B1     		cbz	r3, .L245
 669:Drivers/display_ILI-93xx_sm/lcd.c **** }
 4756              		.loc 1 669 17 is_stmt 1 view .LVU1485
 4757              		.syntax unified
 4758              	@ 669 "Drivers/display_ILI-93xx_sm/lcd.c" 1
 4759 0182 00BF     		nop
 4760              	@ 0 "" 2
 669:Drivers/display_ILI-93xx_sm/lcd.c **** }
 4761              		.loc 1 669 13 is_stmt 0 view .LVU1486
 4762              		.thumb
 4763              		.syntax unified
 4764 0184 013B     		subs	r3, r3, #1
 4765              	.LVL288:
 669:Drivers/display_ILI-93xx_sm/lcd.c **** }
 4766              		.loc 1 669 13 view .LVU1487
 4767 0186 FBE7     		b	.L225
 4768              	.L245:
 4769              	.LVL289:
 669:Drivers/display_ILI-93xx_sm/lcd.c **** }
 4770              		.loc 1 669 13 view .LVU1488
 4771              	.LBE482:
 4772              	.LBE483:
 4773              		.loc 1 1389 4 is_stmt 1 view .LVU1489
 4774 0188 0223     		movs	r3, #2
 4775 018a 4A49     		ldr	r1, .L252+4
 4776 018c 0B61     		str	r3, [r1, #16]
 4777              		.loc 1 1389 4 view .LVU1490
 4778              	.LVL290:
 4779              	.LBB484:
 4780              	.LBI484:
 668:Drivers/display_ILI-93xx_sm/lcd.c **** 	for (; t; t--) __asm("nop");
 4781              		.loc 1 668 13 view .LVU1491
 4782              	.L227:
 4783              	.LBB485:
 669:Drivers/display_ILI-93xx_sm/lcd.c **** }
 4784              		.loc 1 669 2 is_stmt 0 view .LVU1492
 4785 018e 13B1     		cbz	r3, .L246
 669:Drivers/display_ILI-93xx_sm/lcd.c **** }
 4786              		.loc 1 669 17 is_stmt 1 view .LVU1493
 4787              		.syntax unified
 4788              	@ 669 "Drivers/display_ILI-93xx_sm/lcd.c" 1
 4789 0190 00BF     		nop
 4790              	@ 0 "" 2
 669:Drivers/display_ILI-93xx_sm/lcd.c **** }
ARM GAS  /tmp/cc47Teva.s 			page 131


 4791              		.loc 1 669 13 is_stmt 0 view .LVU1494
 4792              		.thumb
 4793              		.syntax unified
 4794 0192 013B     		subs	r3, r3, #1
 4795              	.LVL291:
 669:Drivers/display_ILI-93xx_sm/lcd.c **** }
 4796              		.loc 1 669 13 view .LVU1495
 4797 0194 FBE7     		b	.L227
 4798              	.L246:
 669:Drivers/display_ILI-93xx_sm/lcd.c **** }
 4799              		.loc 1 669 13 view .LVU1496
 4800              	.LBE485:
 4801              	.LBE484:
1384:Drivers/display_ILI-93xx_sm/lcd.c **** #if defined(SSD1297)
 4802              		.loc 1 1384 13 view .LVU1497
 4803 0196 1146     		mov	r1, r2
 4804              	.LVL292:
 4805              	.L219:
1384:Drivers/display_ILI-93xx_sm/lcd.c **** #if defined(SSD1297)
 4806              		.loc 1 1384 13 view .LVU1498
 4807 0198 4A1E     		subs	r2, r1, #1
 4808              	.LVL293:
1384:Drivers/display_ILI-93xx_sm/lcd.c **** #if defined(SSD1297)
 4809              		.loc 1 1384 9 view .LVU1499
 4810 019a 0029     		cmp	r1, #0
 4811 019c 00F08480 		beq	.L230
1388:Drivers/display_ILI-93xx_sm/lcd.c **** 			LCD_WR_STROBE();
 4812              		.loc 1 1388 4 is_stmt 1 view .LVU1500
1388:Drivers/display_ILI-93xx_sm/lcd.c **** 			LCD_WR_STROBE();
 4813              		.loc 1 1388 4 view .LVU1501
 4814 01a0 444B     		ldr	r3, .L252+4
 4815 01a2 4FF40031 		mov	r1, #131072
 4816 01a6 1961     		str	r1, [r3, #16]
1388:Drivers/display_ILI-93xx_sm/lcd.c **** 			LCD_WR_STROBE();
 4817              		.loc 1 1388 4 view .LVU1502
 4818              	.LVL294:
 4819              	.LBB486:
 4820              	.LBI486:
 668:Drivers/display_ILI-93xx_sm/lcd.c **** 	for (; t; t--) __asm("nop");
 4821              		.loc 1 668 13 view .LVU1503
 4822              	.LBB487:
 669:Drivers/display_ILI-93xx_sm/lcd.c **** }
 4823              		.loc 1 669 2 view .LVU1504
 4824              	.LBE487:
 4825              	.LBE486:
1388:Drivers/display_ILI-93xx_sm/lcd.c **** 			LCD_WR_STROBE();
 4826              		.loc 1 1388 4 is_stmt 0 view .LVU1505
 4827 01a8 0223     		movs	r3, #2
 4828              	.LVL295:
 4829              	.L221:
 4830              	.LBB489:
 4831              	.LBB488:
 669:Drivers/display_ILI-93xx_sm/lcd.c **** }
 4832              		.loc 1 669 2 view .LVU1506
 4833 01aa 002B     		cmp	r3, #0
 4834 01ac D8D0     		beq	.L247
 669:Drivers/display_ILI-93xx_sm/lcd.c **** }
ARM GAS  /tmp/cc47Teva.s 			page 132


 4835              		.loc 1 669 17 is_stmt 1 view .LVU1507
 4836              		.syntax unified
 4837              	@ 669 "Drivers/display_ILI-93xx_sm/lcd.c" 1
 4838 01ae 00BF     		nop
 4839              	@ 0 "" 2
 669:Drivers/display_ILI-93xx_sm/lcd.c **** }
 4840              		.loc 1 669 13 is_stmt 0 view .LVU1508
 4841              		.thumb
 4842              		.syntax unified
 4843 01b0 013B     		subs	r3, r3, #1
 4844              	.LVL296:
 669:Drivers/display_ILI-93xx_sm/lcd.c **** }
 4845              		.loc 1 669 13 view .LVU1509
 4846 01b2 FAE7     		b	.L221
 4847              	.LVL297:
 4848              	.L251:
 669:Drivers/display_ILI-93xx_sm/lcd.c **** }
 4849              		.loc 1 669 13 view .LVU1510
 4850              	.LBE488:
 4851              	.LBE489:
 4852              	.LBB490:
 4853              	.LBB491:
 869:Drivers/display_ILI-93xx_sm/lcd.c **** }
 4854              		.loc 1 869 2 is_stmt 1 view .LVU1511
 4855 01b4 0223     		movs	r3, #2
 4856 01b6 3F49     		ldr	r1, .L252+4
 4857 01b8 0B61     		str	r3, [r1, #16]
 869:Drivers/display_ILI-93xx_sm/lcd.c **** }
 4858              		.loc 1 869 2 view .LVU1512
 4859              	.LVL298:
 4860              	.LBB492:
 4861              	.LBI492:
 668:Drivers/display_ILI-93xx_sm/lcd.c **** 	for (; t; t--) __asm("nop");
 4862              		.loc 1 668 13 view .LVU1513
 4863              	.L233:
 4864              	.LBB493:
 669:Drivers/display_ILI-93xx_sm/lcd.c **** }
 4865              		.loc 1 669 2 is_stmt 0 view .LVU1514
 4866 01ba 13B1     		cbz	r3, .L248
 669:Drivers/display_ILI-93xx_sm/lcd.c **** }
 4867              		.loc 1 669 17 is_stmt 1 view .LVU1515
 4868              		.syntax unified
 4869              	@ 669 "Drivers/display_ILI-93xx_sm/lcd.c" 1
 4870 01bc 00BF     		nop
 4871              	@ 0 "" 2
 669:Drivers/display_ILI-93xx_sm/lcd.c **** }
 4872              		.loc 1 669 13 is_stmt 0 view .LVU1516
 4873              		.thumb
 4874              		.syntax unified
 4875 01be 013B     		subs	r3, r3, #1
 4876              	.LVL299:
 669:Drivers/display_ILI-93xx_sm/lcd.c **** }
 4877              		.loc 1 669 13 view .LVU1517
 4878 01c0 FBE7     		b	.L233
 4879              	.L248:
 4880              	.LVL300:
 669:Drivers/display_ILI-93xx_sm/lcd.c **** }
ARM GAS  /tmp/cc47Teva.s 			page 133


 4881              		.loc 1 669 13 view .LVU1518
 4882              	.LBE493:
 4883              	.LBE492:
 4884              	.LBE491:
 4885              	.LBE490:
1390:Drivers/display_ILI-93xx_sm/lcd.c **** 		}
1391:Drivers/display_ILI-93xx_sm/lcd.c **** 	} else {
1392:Drivers/display_ILI-93xx_sm/lcd.c **** 		while (len--) {
1393:Drivers/display_ILI-93xx_sm/lcd.c **** #if defined(SSD1297)
1394:Drivers/display_ILI-93xx_sm/lcd.c **** 			LCD_Write8(red);
1395:Drivers/display_ILI-93xx_sm/lcd.c **** 			LCD_Write8(green);
1396:Drivers/display_ILI-93xx_sm/lcd.c **** 			LCD_Write8(blue);
1397:Drivers/display_ILI-93xx_sm/lcd.c **** #else
1398:Drivers/display_ILI-93xx_sm/lcd.c **** 			LCD_Write8(hi);
1399:Drivers/display_ILI-93xx_sm/lcd.c **** 			LCD_Write8(lo);
 4886              		.loc 1 1399 4 is_stmt 1 view .LVU1519
 4887              	.LBB499:
 4888              	.LBI499:
 847:Drivers/display_ILI-93xx_sm/lcd.c **** 	// ------ PORT -----     --- Data ----
 4889              		.loc 1 847 13 view .LVU1520
 4890              	.LBB500:
 860:Drivers/display_ILI-93xx_sm/lcd.c **** 	GPIOB->ODR = (GPIOB->ODR & 0xFBC7) | (data & 0x08) | ((data & 0x10) << 1) | ((data & 0x20) >> 1) |
 4891              		.loc 1 860 2 view .LVU1521
 860:Drivers/display_ILI-93xx_sm/lcd.c **** 	GPIOB->ODR = (GPIOB->ODR & 0xFBC7) | (data & 0x08) | ((data & 0x10) << 1) | ((data & 0x20) >> 1) |
 4892              		.loc 1 860 21 is_stmt 0 view .LVU1522
 4893 01c2 3C4D     		ldr	r5, .L252+4
 4894 01c4 E968     		ldr	r1, [r5, #12]
 860:Drivers/display_ILI-93xx_sm/lcd.c **** 	GPIOB->ODR = (GPIOB->ODR & 0xFBC7) | (data & 0x08) | ((data & 0x10) << 1) | ((data & 0x20) >> 1) |
 4895              		.loc 1 860 27 view .LVU1523
 4896 01c6 21F4F061 		bic	r1, r1, #1920
 4897 01ca 0904     		lsls	r1, r1, #16
 4898 01cc 090C     		lsrs	r1, r1, #16
 860:Drivers/display_ILI-93xx_sm/lcd.c **** 	GPIOB->ODR = (GPIOB->ODR & 0xFBC7) | (data & 0x08) | ((data & 0x10) << 1) | ((data & 0x20) >> 1) |
 4899              		.loc 1 860 54 view .LVU1524
 4900 01ce 5302     		lsls	r3, r2, #9
 4901 01d0 03F40073 		and	r3, r3, #512
 860:Drivers/display_ILI-93xx_sm/lcd.c **** 	GPIOB->ODR = (GPIOB->ODR & 0xFBC7) | (data & 0x08) | ((data & 0x10) << 1) | ((data & 0x20) >> 1) |
 4902              		.loc 1 860 37 view .LVU1525
 4903 01d4 1943     		orrs	r1, r1, r3
 860:Drivers/display_ILI-93xx_sm/lcd.c **** 	GPIOB->ODR = (GPIOB->ODR & 0xFBC7) | (data & 0x08) | ((data & 0x10) << 1) | ((data & 0x20) >> 1) |
 4904              		.loc 1 860 77 view .LVU1526
 4905 01d6 1302     		lsls	r3, r2, #8
 4906 01d8 03F48063 		and	r3, r3, #1024
 860:Drivers/display_ILI-93xx_sm/lcd.c **** 	GPIOB->ODR = (GPIOB->ODR & 0xFBC7) | (data & 0x08) | ((data & 0x10) << 1) | ((data & 0x20) >> 1) |
 4907              		.loc 1 860 60 view .LVU1527
 4908 01dc 1943     		orrs	r1, r1, r3
 860:Drivers/display_ILI-93xx_sm/lcd.c **** 	GPIOB->ODR = (GPIOB->ODR & 0xFBC7) | (data & 0x08) | ((data & 0x10) << 1) | ((data & 0x20) >> 1) |
 4909              		.loc 1 860 100 view .LVU1528
 4910 01de 5600     		lsls	r6, r2, #1
 4911 01e0 06F48073 		and	r3, r6, #256
 860:Drivers/display_ILI-93xx_sm/lcd.c **** 	GPIOB->ODR = (GPIOB->ODR & 0xFBC7) | (data & 0x08) | ((data & 0x10) << 1) | ((data & 0x20) >> 1) |
 4912              		.loc 1 860 83 view .LVU1529
 4913 01e4 1943     		orrs	r1, r1, r3
 860:Drivers/display_ILI-93xx_sm/lcd.c **** 	GPIOB->ODR = (GPIOB->ODR & 0xFBC7) | (data & 0x08) | ((data & 0x10) << 1) | ((data & 0x20) >> 1) |
 4914              		.loc 1 860 123 view .LVU1530
 4915 01e6 9301     		lsls	r3, r2, #6
 4916 01e8 03F08003 		and	r3, r3, #128
ARM GAS  /tmp/cc47Teva.s 			page 134


 860:Drivers/display_ILI-93xx_sm/lcd.c **** 	GPIOB->ODR = (GPIOB->ODR & 0xFBC7) | (data & 0x08) | ((data & 0x10) << 1) | ((data & 0x20) >> 1) |
 4917              		.loc 1 860 106 view .LVU1531
 4918 01ec 1943     		orrs	r1, r1, r3
 860:Drivers/display_ILI-93xx_sm/lcd.c **** 	GPIOB->ODR = (GPIOB->ODR & 0xFBC7) | (data & 0x08) | ((data & 0x10) << 1) | ((data & 0x20) >> 1) |
 4919              		.loc 1 860 13 view .LVU1532
 4920 01ee E960     		str	r1, [r5, #12]
 861:Drivers/display_ILI-93xx_sm/lcd.c **** #else
 4921              		.loc 1 861 2 is_stmt 1 view .LVU1533
 861:Drivers/display_ILI-93xx_sm/lcd.c **** #else
 4922              		.loc 1 861 21 is_stmt 0 view .LVU1534
 4923 01f0 2F4F     		ldr	r7, .L252
 4924 01f2 FB68     		ldr	r3, [r7, #12]
 861:Drivers/display_ILI-93xx_sm/lcd.c **** #else
 4925              		.loc 1 861 27 view .LVU1535
 4926 01f4 23F48763 		bic	r3, r3, #1080
 4927 01f8 1B04     		lsls	r3, r3, #16
 4928 01fa 1B0C     		lsrs	r3, r3, #16
 861:Drivers/display_ILI-93xx_sm/lcd.c **** #else
 4929              		.loc 1 861 45 view .LVU1536
 4930 01fc 02F00801 		and	r1, r2, #8
 861:Drivers/display_ILI-93xx_sm/lcd.c **** #else
 4931              		.loc 1 861 37 view .LVU1537
 4932 0200 0B43     		orrs	r3, r3, r1
 861:Drivers/display_ILI-93xx_sm/lcd.c **** #else
 4933              		.loc 1 861 70 view .LVU1538
 4934 0202 06F02006 		and	r6, r6, #32
 861:Drivers/display_ILI-93xx_sm/lcd.c **** #else
 4935              		.loc 1 861 53 view .LVU1539
 4936 0206 3343     		orrs	r3, r3, r6
 861:Drivers/display_ILI-93xx_sm/lcd.c **** #else
 4937              		.loc 1 861 93 view .LVU1540
 4938 0208 5110     		asrs	r1, r2, #1
 4939 020a 01F01001 		and	r1, r1, #16
 861:Drivers/display_ILI-93xx_sm/lcd.c **** #else
 4940              		.loc 1 861 76 view .LVU1541
 4941 020e 0B43     		orrs	r3, r3, r1
 861:Drivers/display_ILI-93xx_sm/lcd.c **** #else
 4942              		.loc 1 861 116 view .LVU1542
 4943 0210 1101     		lsls	r1, r2, #4
 4944 0212 01F48061 		and	r1, r1, #1024
 861:Drivers/display_ILI-93xx_sm/lcd.c **** #else
 4945              		.loc 1 861 99 view .LVU1543
 4946 0216 0B43     		orrs	r3, r3, r1
 861:Drivers/display_ILI-93xx_sm/lcd.c **** #else
 4947              		.loc 1 861 13 view .LVU1544
 4948 0218 FB60     		str	r3, [r7, #12]
 869:Drivers/display_ILI-93xx_sm/lcd.c **** }
 4949              		.loc 1 869 2 is_stmt 1 view .LVU1545
 869:Drivers/display_ILI-93xx_sm/lcd.c **** }
 4950              		.loc 1 869 2 view .LVU1546
 4951 021a 4FF40033 		mov	r3, #131072
 4952 021e 2B61     		str	r3, [r5, #16]
 869:Drivers/display_ILI-93xx_sm/lcd.c **** }
 4953              		.loc 1 869 2 view .LVU1547
 4954              	.LVL301:
 4955              	.LBB501:
 4956              	.LBI501:
ARM GAS  /tmp/cc47Teva.s 			page 135


 668:Drivers/display_ILI-93xx_sm/lcd.c **** 	for (; t; t--) __asm("nop");
 4957              		.loc 1 668 13 view .LVU1548
 4958              	.LBB502:
 669:Drivers/display_ILI-93xx_sm/lcd.c **** }
 4959              		.loc 1 669 2 view .LVU1549
 4960              	.LBE502:
 4961              	.LBE501:
 869:Drivers/display_ILI-93xx_sm/lcd.c **** }
 4962              		.loc 1 869 2 is_stmt 0 view .LVU1550
 4963 0220 0223     		movs	r3, #2
 4964              	.LVL302:
 4965              	.L235:
 4966              	.LBB504:
 4967              	.LBB503:
 669:Drivers/display_ILI-93xx_sm/lcd.c **** }
 4968              		.loc 1 669 2 view .LVU1551
 4969 0222 13B1     		cbz	r3, .L249
 669:Drivers/display_ILI-93xx_sm/lcd.c **** }
 4970              		.loc 1 669 17 is_stmt 1 view .LVU1552
 4971              		.syntax unified
 4972              	@ 669 "Drivers/display_ILI-93xx_sm/lcd.c" 1
 4973 0224 00BF     		nop
 4974              	@ 0 "" 2
 669:Drivers/display_ILI-93xx_sm/lcd.c **** }
 4975              		.loc 1 669 13 is_stmt 0 view .LVU1553
 4976              		.thumb
 4977              		.syntax unified
 4978 0226 013B     		subs	r3, r3, #1
 4979              	.LVL303:
 669:Drivers/display_ILI-93xx_sm/lcd.c **** }
 4980              		.loc 1 669 13 view .LVU1554
 4981 0228 FBE7     		b	.L235
 4982              	.L249:
 4983              	.LVL304:
 669:Drivers/display_ILI-93xx_sm/lcd.c **** }
 4984              		.loc 1 669 13 view .LVU1555
 4985              	.LBE503:
 4986              	.LBE504:
 869:Drivers/display_ILI-93xx_sm/lcd.c **** }
 4987              		.loc 1 869 2 is_stmt 1 view .LVU1556
 4988 022a 0223     		movs	r3, #2
 4989 022c 2149     		ldr	r1, .L252+4
 4990 022e 0B61     		str	r3, [r1, #16]
 869:Drivers/display_ILI-93xx_sm/lcd.c **** }
 4991              		.loc 1 869 2 view .LVU1557
 4992              	.LVL305:
 4993              	.LBB505:
 4994              	.LBI505:
 668:Drivers/display_ILI-93xx_sm/lcd.c **** 	for (; t; t--) __asm("nop");
 4995              		.loc 1 668 13 view .LVU1558
 4996              	.L237:
 4997              	.LBB506:
 669:Drivers/display_ILI-93xx_sm/lcd.c **** }
 4998              		.loc 1 669 2 is_stmt 0 view .LVU1559
 4999 0230 13B1     		cbz	r3, .L250
 669:Drivers/display_ILI-93xx_sm/lcd.c **** }
 5000              		.loc 1 669 17 is_stmt 1 view .LVU1560
ARM GAS  /tmp/cc47Teva.s 			page 136


 5001              		.syntax unified
 5002              	@ 669 "Drivers/display_ILI-93xx_sm/lcd.c" 1
 5003 0232 00BF     		nop
 5004              	@ 0 "" 2
 669:Drivers/display_ILI-93xx_sm/lcd.c **** }
 5005              		.loc 1 669 13 is_stmt 0 view .LVU1561
 5006              		.thumb
 5007              		.syntax unified
 5008 0234 013B     		subs	r3, r3, #1
 5009              	.LVL306:
 669:Drivers/display_ILI-93xx_sm/lcd.c **** }
 5010              		.loc 1 669 13 view .LVU1562
 5011 0236 FBE7     		b	.L237
 5012              	.L250:
 669:Drivers/display_ILI-93xx_sm/lcd.c **** }
 5013              		.loc 1 669 13 view .LVU1563
 5014              	.LBE506:
 5015              	.LBE505:
 5016              	.LBE500:
 5017              	.LBE499:
1392:Drivers/display_ILI-93xx_sm/lcd.c **** #if defined(SSD1297)
 5018              		.loc 1 1392 13 view .LVU1564
 5019 0238 0146     		mov	r1, r0
 5020              	.LVL307:
 5021              	.L220:
1392:Drivers/display_ILI-93xx_sm/lcd.c **** #if defined(SSD1297)
 5022              		.loc 1 1392 13 view .LVU1565
 5023 023a 481E     		subs	r0, r1, #1
 5024              	.LVL308:
1392:Drivers/display_ILI-93xx_sm/lcd.c **** #if defined(SSD1297)
 5025              		.loc 1 1392 9 view .LVU1566
 5026 023c A1B3     		cbz	r1, .L230
1398:Drivers/display_ILI-93xx_sm/lcd.c **** 			LCD_Write8(lo);
 5027              		.loc 1 1398 4 is_stmt 1 view .LVU1567
 5028              	.LVL309:
 5029              	.LBB507:
 5030              	.LBI490:
 847:Drivers/display_ILI-93xx_sm/lcd.c **** 	// ------ PORT -----     --- Data ----
 5031              		.loc 1 847 13 view .LVU1568
 5032              	.LBB498:
 860:Drivers/display_ILI-93xx_sm/lcd.c **** 	GPIOB->ODR = (GPIOB->ODR & 0xFBC7) | (data & 0x08) | ((data & 0x10) << 1) | ((data & 0x20) >> 1) |
 5033              		.loc 1 860 2 view .LVU1569
 860:Drivers/display_ILI-93xx_sm/lcd.c **** 	GPIOB->ODR = (GPIOB->ODR & 0xFBC7) | (data & 0x08) | ((data & 0x10) << 1) | ((data & 0x20) >> 1) |
 5034              		.loc 1 860 21 is_stmt 0 view .LVU1570
 5035 023e 1D4D     		ldr	r5, .L252+4
 5036 0240 E968     		ldr	r1, [r5, #12]
 860:Drivers/display_ILI-93xx_sm/lcd.c **** 	GPIOB->ODR = (GPIOB->ODR & 0xFBC7) | (data & 0x08) | ((data & 0x10) << 1) | ((data & 0x20) >> 1) |
 5037              		.loc 1 860 27 view .LVU1571
 5038 0242 21F4F061 		bic	r1, r1, #1920
 5039 0246 0904     		lsls	r1, r1, #16
 5040 0248 090C     		lsrs	r1, r1, #16
 860:Drivers/display_ILI-93xx_sm/lcd.c **** 	GPIOB->ODR = (GPIOB->ODR & 0xFBC7) | (data & 0x08) | ((data & 0x10) << 1) | ((data & 0x20) >> 1) |
 5041              		.loc 1 860 54 view .LVU1572
 5042 024a 6302     		lsls	r3, r4, #9
 5043 024c 03F40073 		and	r3, r3, #512
 860:Drivers/display_ILI-93xx_sm/lcd.c **** 	GPIOB->ODR = (GPIOB->ODR & 0xFBC7) | (data & 0x08) | ((data & 0x10) << 1) | ((data & 0x20) >> 1) |
 5044              		.loc 1 860 37 view .LVU1573
ARM GAS  /tmp/cc47Teva.s 			page 137


 5045 0250 1943     		orrs	r1, r1, r3
 860:Drivers/display_ILI-93xx_sm/lcd.c **** 	GPIOB->ODR = (GPIOB->ODR & 0xFBC7) | (data & 0x08) | ((data & 0x10) << 1) | ((data & 0x20) >> 1) |
 5046              		.loc 1 860 77 view .LVU1574
 5047 0252 2302     		lsls	r3, r4, #8
 5048 0254 03F48063 		and	r3, r3, #1024
 860:Drivers/display_ILI-93xx_sm/lcd.c **** 	GPIOB->ODR = (GPIOB->ODR & 0xFBC7) | (data & 0x08) | ((data & 0x10) << 1) | ((data & 0x20) >> 1) |
 5049              		.loc 1 860 60 view .LVU1575
 5050 0258 1943     		orrs	r1, r1, r3
 860:Drivers/display_ILI-93xx_sm/lcd.c **** 	GPIOB->ODR = (GPIOB->ODR & 0xFBC7) | (data & 0x08) | ((data & 0x10) << 1) | ((data & 0x20) >> 1) |
 5051              		.loc 1 860 100 view .LVU1576
 5052 025a 6600     		lsls	r6, r4, #1
 5053 025c 06F48073 		and	r3, r6, #256
 860:Drivers/display_ILI-93xx_sm/lcd.c **** 	GPIOB->ODR = (GPIOB->ODR & 0xFBC7) | (data & 0x08) | ((data & 0x10) << 1) | ((data & 0x20) >> 1) |
 5054              		.loc 1 860 83 view .LVU1577
 5055 0260 1943     		orrs	r1, r1, r3
 860:Drivers/display_ILI-93xx_sm/lcd.c **** 	GPIOB->ODR = (GPIOB->ODR & 0xFBC7) | (data & 0x08) | ((data & 0x10) << 1) | ((data & 0x20) >> 1) |
 5056              		.loc 1 860 123 view .LVU1578
 5057 0262 A301     		lsls	r3, r4, #6
 5058 0264 03F08003 		and	r3, r3, #128
 860:Drivers/display_ILI-93xx_sm/lcd.c **** 	GPIOB->ODR = (GPIOB->ODR & 0xFBC7) | (data & 0x08) | ((data & 0x10) << 1) | ((data & 0x20) >> 1) |
 5059              		.loc 1 860 106 view .LVU1579
 5060 0268 1943     		orrs	r1, r1, r3
 860:Drivers/display_ILI-93xx_sm/lcd.c **** 	GPIOB->ODR = (GPIOB->ODR & 0xFBC7) | (data & 0x08) | ((data & 0x10) << 1) | ((data & 0x20) >> 1) |
 5061              		.loc 1 860 13 view .LVU1580
 5062 026a E960     		str	r1, [r5, #12]
 861:Drivers/display_ILI-93xx_sm/lcd.c **** #else
 5063              		.loc 1 861 2 is_stmt 1 view .LVU1581
 861:Drivers/display_ILI-93xx_sm/lcd.c **** #else
 5064              		.loc 1 861 21 is_stmt 0 view .LVU1582
 5065 026c 104F     		ldr	r7, .L252
 5066 026e FB68     		ldr	r3, [r7, #12]
 861:Drivers/display_ILI-93xx_sm/lcd.c **** #else
 5067              		.loc 1 861 27 view .LVU1583
 5068 0270 23F48763 		bic	r3, r3, #1080
 5069 0274 1B04     		lsls	r3, r3, #16
 5070 0276 1B0C     		lsrs	r3, r3, #16
 861:Drivers/display_ILI-93xx_sm/lcd.c **** #else
 5071              		.loc 1 861 45 view .LVU1584
 5072 0278 04F00801 		and	r1, r4, #8
 861:Drivers/display_ILI-93xx_sm/lcd.c **** #else
 5073              		.loc 1 861 37 view .LVU1585
 5074 027c 0B43     		orrs	r3, r3, r1
 861:Drivers/display_ILI-93xx_sm/lcd.c **** #else
 5075              		.loc 1 861 70 view .LVU1586
 5076 027e 06F02006 		and	r6, r6, #32
 861:Drivers/display_ILI-93xx_sm/lcd.c **** #else
 5077              		.loc 1 861 53 view .LVU1587
 5078 0282 3343     		orrs	r3, r3, r6
 861:Drivers/display_ILI-93xx_sm/lcd.c **** #else
 5079              		.loc 1 861 93 view .LVU1588
 5080 0284 6110     		asrs	r1, r4, #1
 5081 0286 01F01001 		and	r1, r1, #16
 861:Drivers/display_ILI-93xx_sm/lcd.c **** #else
 5082              		.loc 1 861 76 view .LVU1589
 5083 028a 0B43     		orrs	r3, r3, r1
 861:Drivers/display_ILI-93xx_sm/lcd.c **** #else
 5084              		.loc 1 861 116 view .LVU1590
ARM GAS  /tmp/cc47Teva.s 			page 138


 5085 028c 2101     		lsls	r1, r4, #4
 5086 028e 01F48061 		and	r1, r1, #1024
 861:Drivers/display_ILI-93xx_sm/lcd.c **** #else
 5087              		.loc 1 861 99 view .LVU1591
 5088 0292 0B43     		orrs	r3, r3, r1
 861:Drivers/display_ILI-93xx_sm/lcd.c **** #else
 5089              		.loc 1 861 13 view .LVU1592
 5090 0294 FB60     		str	r3, [r7, #12]
 869:Drivers/display_ILI-93xx_sm/lcd.c **** }
 5091              		.loc 1 869 2 is_stmt 1 view .LVU1593
 869:Drivers/display_ILI-93xx_sm/lcd.c **** }
 5092              		.loc 1 869 2 view .LVU1594
 5093 0296 4FF40033 		mov	r3, #131072
 5094 029a 2B61     		str	r3, [r5, #16]
 869:Drivers/display_ILI-93xx_sm/lcd.c **** }
 5095              		.loc 1 869 2 view .LVU1595
 5096              	.LVL310:
 5097              	.LBB494:
 5098              	.LBI494:
 668:Drivers/display_ILI-93xx_sm/lcd.c **** 	for (; t; t--) __asm("nop");
 5099              		.loc 1 668 13 view .LVU1596
 5100              	.LBB495:
 669:Drivers/display_ILI-93xx_sm/lcd.c **** }
 5101              		.loc 1 669 2 view .LVU1597
 5102              	.LBE495:
 5103              	.LBE494:
 869:Drivers/display_ILI-93xx_sm/lcd.c **** }
 5104              		.loc 1 869 2 is_stmt 0 view .LVU1598
 5105 029c 0223     		movs	r3, #2
 5106              	.LVL311:
 5107              	.L231:
 5108              	.LBB497:
 5109              	.LBB496:
 669:Drivers/display_ILI-93xx_sm/lcd.c **** }
 5110              		.loc 1 669 2 view .LVU1599
 5111 029e 002B     		cmp	r3, #0
 5112 02a0 88D0     		beq	.L251
 669:Drivers/display_ILI-93xx_sm/lcd.c **** }
 5113              		.loc 1 669 17 is_stmt 1 view .LVU1600
 5114              		.syntax unified
 5115              	@ 669 "Drivers/display_ILI-93xx_sm/lcd.c" 1
 5116 02a2 00BF     		nop
 5117              	@ 0 "" 2
 669:Drivers/display_ILI-93xx_sm/lcd.c **** }
 5118              		.loc 1 669 13 is_stmt 0 view .LVU1601
 5119              		.thumb
 5120              		.syntax unified
 5121 02a4 013B     		subs	r3, r3, #1
 5122              	.LVL312:
 669:Drivers/display_ILI-93xx_sm/lcd.c **** }
 5123              		.loc 1 669 13 view .LVU1602
 5124 02a6 FAE7     		b	.L231
 5125              	.LVL313:
 5126              	.L230:
 669:Drivers/display_ILI-93xx_sm/lcd.c **** }
 5127              		.loc 1 669 13 view .LVU1603
 5128              	.LBE496:
ARM GAS  /tmp/cc47Teva.s 			page 139


 5129              	.LBE497:
 5130              	.LBE498:
 5131              	.LBE507:
1400:Drivers/display_ILI-93xx_sm/lcd.c **** #endif
1401:Drivers/display_ILI-93xx_sm/lcd.c **** 		}
1402:Drivers/display_ILI-93xx_sm/lcd.c **** 	}
1403:Drivers/display_ILI-93xx_sm/lcd.c **** 
1404:Drivers/display_ILI-93xx_sm/lcd.c **** 	LCD_CS_IDLE();
 5132              		.loc 1 1404 2 is_stmt 1 view .LVU1604
 5133 02a8 014B     		ldr	r3, .L252
 5134 02aa 0122     		movs	r2, #1
 5135 02ac 1A61     		str	r2, [r3, #16]
1405:Drivers/display_ILI-93xx_sm/lcd.c **** }
 5136              		.loc 1 1405 1 is_stmt 0 view .LVU1605
 5137 02ae F0BD     		pop	{r4, r5, r6, r7, pc}
 5138              	.LVL314:
 5139              	.L253:
 5140              		.loc 1 1405 1 view .LVU1606
 5141              		.align	2
 5142              	.L252:
 5143 02b0 000C0140 		.word	1073810432
 5144 02b4 00080140 		.word	1073809408
 5145              		.cfi_endproc
 5146              	.LFE81:
 5148              		.section	.text.LCD_Reset,"ax",%progbits
 5149              		.align	1
 5150              		.global	LCD_Reset
 5151              		.syntax unified
 5152              		.thumb
 5153              		.thumb_func
 5154              		.fpu softvfp
 5156              	LCD_Reset:
 5157              	.LFB83:
1406:Drivers/display_ILI-93xx_sm/lcd.c **** 
1407:Drivers/display_ILI-93xx_sm/lcd.c **** /**
1408:Drivers/display_ILI-93xx_sm/lcd.c ****  * \brief Fills the screen with the specified color
1409:Drivers/display_ILI-93xx_sm/lcd.c ****  *
1410:Drivers/display_ILI-93xx_sm/lcd.c ****  * \param color	Color
1411:Drivers/display_ILI-93xx_sm/lcd.c ****  *
1412:Drivers/display_ILI-93xx_sm/lcd.c ****  * \return void
1413:Drivers/display_ILI-93xx_sm/lcd.c ****  */
1414:Drivers/display_ILI-93xx_sm/lcd.c **** void LCD_FillScreen(uint16_t color) {
1415:Drivers/display_ILI-93xx_sm/lcd.c **** #if defined(ILI9325) || defined(ILI9328) || defined(R61505) || defined(R61505V) || defined(SSD1297)
1416:Drivers/display_ILI-93xx_sm/lcd.c **** 	/* 
1417:Drivers/display_ILI-93xx_sm/lcd.c **** 		For the 932X, a full-screen address window is already the default
1418:Drivers/display_ILI-93xx_sm/lcd.c **** 		state, just need to set the address pointer to the top-left corner.
1419:Drivers/display_ILI-93xx_sm/lcd.c **** 		Although we could fill in any direction, the code uses the current
1420:Drivers/display_ILI-93xx_sm/lcd.c **** 		screen rotation because some users find it disconcerting when a
1421:Drivers/display_ILI-93xx_sm/lcd.c **** 		fill does not occur top-to-bottom. 
1422:Drivers/display_ILI-93xx_sm/lcd.c **** 	*/
1423:Drivers/display_ILI-93xx_sm/lcd.c **** 	uint16_t x, y;
1424:Drivers/display_ILI-93xx_sm/lcd.c **** 	switch (m_rotation) {
1425:Drivers/display_ILI-93xx_sm/lcd.c **** 	default:
1426:Drivers/display_ILI-93xx_sm/lcd.c **** 		x = 0;
1427:Drivers/display_ILI-93xx_sm/lcd.c **** 		y = 0;
1428:Drivers/display_ILI-93xx_sm/lcd.c **** 		break;
1429:Drivers/display_ILI-93xx_sm/lcd.c **** 	case 1:
ARM GAS  /tmp/cc47Teva.s 			page 140


1430:Drivers/display_ILI-93xx_sm/lcd.c **** 		x = TFTWIDTH - 1;
1431:Drivers/display_ILI-93xx_sm/lcd.c **** 		y = 0;
1432:Drivers/display_ILI-93xx_sm/lcd.c **** 		break;
1433:Drivers/display_ILI-93xx_sm/lcd.c **** 	case 2:
1434:Drivers/display_ILI-93xx_sm/lcd.c **** 		x = TFTWIDTH - 1;
1435:Drivers/display_ILI-93xx_sm/lcd.c **** 		y = TFTHEIGHT - 1;
1436:Drivers/display_ILI-93xx_sm/lcd.c **** 		break;
1437:Drivers/display_ILI-93xx_sm/lcd.c **** 	case 3:
1438:Drivers/display_ILI-93xx_sm/lcd.c **** 		x = 0;
1439:Drivers/display_ILI-93xx_sm/lcd.c **** 		y = TFTHEIGHT - 1;
1440:Drivers/display_ILI-93xx_sm/lcd.c **** 		break;
1441:Drivers/display_ILI-93xx_sm/lcd.c **** 	}
1442:Drivers/display_ILI-93xx_sm/lcd.c **** 	LCD_CS_ACTIVE();
1443:Drivers/display_ILI-93xx_sm/lcd.c **** #if defined(SSD1297)
1444:Drivers/display_ILI-93xx_sm/lcd.c **** 	LCD_Write16Register8(SSD1297_SETXCOUNTER, x); //GRAM Address Set
1445:Drivers/display_ILI-93xx_sm/lcd.c **** 	LCD_Write16Register8(SSD1297_SETYCOUNTER, y);
1446:Drivers/display_ILI-93xx_sm/lcd.c **** #else
1447:Drivers/display_ILI-93xx_sm/lcd.c **** 	LCD_Write16Register16(ILI932X_GRAM_HOR_AD, x);
1448:Drivers/display_ILI-93xx_sm/lcd.c **** 	LCD_Write16Register16(ILI932X_GRAM_VER_AD, y);
1449:Drivers/display_ILI-93xx_sm/lcd.c **** #endif
1450:Drivers/display_ILI-93xx_sm/lcd.c **** 	LCD_CS_IDLE();
1451:Drivers/display_ILI-93xx_sm/lcd.c **** #elif defined(ILI9340) || defined(ILI9341) || defined(ILI9341_00)\
1452:Drivers/display_ILI-93xx_sm/lcd.c **** 	|| defined(R61520) || defined(S6D0154) \
1453:Drivers/display_ILI-93xx_sm/lcd.c **** 	|| defined(UNKNOWN1602) || defined(HX8347D) || defined(HX8347G) || defined(HX8357D)
1454:Drivers/display_ILI-93xx_sm/lcd.c **** 	/*
1455:Drivers/display_ILI-93xx_sm/lcd.c **** 		For these, there is no settable address pointer, instead the
1456:Drivers/display_ILI-93xx_sm/lcd.c **** 		address window must be set for each drawing operation.  However,
1457:Drivers/display_ILI-93xx_sm/lcd.c **** 		this display takes rotation into account for the parameters, no
1458:Drivers/display_ILI-93xx_sm/lcd.c **** 		need to do extra rotation math here.
1459:Drivers/display_ILI-93xx_sm/lcd.c **** 	*/
1460:Drivers/display_ILI-93xx_sm/lcd.c **** 	LCD_SetAddrWindow(0, 0, m_width - 1, m_height - 1);
1461:Drivers/display_ILI-93xx_sm/lcd.c **** #endif
1462:Drivers/display_ILI-93xx_sm/lcd.c **** 	LCD_Flood(color, (long) TFTWIDTH * (long) TFTHEIGHT);
1463:Drivers/display_ILI-93xx_sm/lcd.c **** }
1464:Drivers/display_ILI-93xx_sm/lcd.c **** 
1465:Drivers/display_ILI-93xx_sm/lcd.c **** /**
1466:Drivers/display_ILI-93xx_sm/lcd.c ****  * \brief Resets the Display
1467:Drivers/display_ILI-93xx_sm/lcd.c ****  *
1468:Drivers/display_ILI-93xx_sm/lcd.c ****  * \param
1469:Drivers/display_ILI-93xx_sm/lcd.c ****  *
1470:Drivers/display_ILI-93xx_sm/lcd.c ****  * \return void
1471:Drivers/display_ILI-93xx_sm/lcd.c ****  */
1472:Drivers/display_ILI-93xx_sm/lcd.c **** void LCD_Reset(void) {
 5158              		.loc 1 1472 22 is_stmt 1 view -0
 5159              		.cfi_startproc
 5160              		@ args = 0, pretend = 0, frame = 0
 5161              		@ frame_needed = 0, uses_anonymous_args = 0
 5162 0000 F8B5     		push	{r3, r4, r5, r6, r7, lr}
 5163              	.LCFI19:
 5164              		.cfi_def_cfa_offset 24
 5165              		.cfi_offset 3, -24
 5166              		.cfi_offset 4, -20
 5167              		.cfi_offset 5, -16
 5168              		.cfi_offset 6, -12
 5169              		.cfi_offset 7, -8
 5170              		.cfi_offset 14, -4
1473:Drivers/display_ILI-93xx_sm/lcd.c **** 	LCD_CS_IDLE();
ARM GAS  /tmp/cc47Teva.s 			page 141


 5171              		.loc 1 1473 2 view .LVU1608
 5172 0002 274E     		ldr	r6, .L269
 5173 0004 0123     		movs	r3, #1
 5174 0006 3361     		str	r3, [r6, #16]
1474:Drivers/display_ILI-93xx_sm/lcd.c **** 	LCD_CD_DATA();
 5175              		.loc 1 1474 2 view .LVU1609
 5176 0008 264D     		ldr	r5, .L269+4
 5177 000a 1022     		movs	r2, #16
 5178 000c 2A61     		str	r2, [r5, #16]
1475:Drivers/display_ILI-93xx_sm/lcd.c **** 	LCD_WR_IDLE();
 5179              		.loc 1 1475 2 view .LVU1610
 5180 000e 0224     		movs	r4, #2
 5181 0010 2C61     		str	r4, [r5, #16]
1476:Drivers/display_ILI-93xx_sm/lcd.c **** 	LCD_RD_IDLE();
 5182              		.loc 1 1476 2 view .LVU1611
 5183 0012 2B61     		str	r3, [r5, #16]
1477:Drivers/display_ILI-93xx_sm/lcd.c **** 
1478:Drivers/display_ILI-93xx_sm/lcd.c **** 	LCD_RST_ACTIVE();
 5184              		.loc 1 1478 2 view .LVU1612
 5185 0014 4FF40037 		mov	r7, #131072
 5186 0018 3761     		str	r7, [r6, #16]
1479:Drivers/display_ILI-93xx_sm/lcd.c **** 	HAL_Delay(2);
 5187              		.loc 1 1479 2 view .LVU1613
 5188 001a 2046     		mov	r0, r4
 5189 001c FFF7FEFF 		bl	HAL_Delay
 5190              	.LVL315:
1480:Drivers/display_ILI-93xx_sm/lcd.c **** 	LCD_RST_IDLE();
 5191              		.loc 1 1480 2 view .LVU1614
 5192 0020 3461     		str	r4, [r6, #16]
1481:Drivers/display_ILI-93xx_sm/lcd.c **** 	HAL_Delay(120);
 5193              		.loc 1 1481 2 view .LVU1615
 5194 0022 7820     		movs	r0, #120
 5195 0024 FFF7FEFF 		bl	HAL_Delay
 5196              	.LVL316:
1482:Drivers/display_ILI-93xx_sm/lcd.c **** 	// Data transfer sync
1483:Drivers/display_ILI-93xx_sm/lcd.c **** 	LCD_CS_ACTIVE();
 5197              		.loc 1 1483 2 view .LVU1616
 5198 0028 4FF48033 		mov	r3, #65536
 5199 002c 3361     		str	r3, [r6, #16]
1484:Drivers/display_ILI-93xx_sm/lcd.c **** 	LCD_CD_COMMAND();
 5200              		.loc 1 1484 2 view .LVU1617
 5201 002e 4FF48013 		mov	r3, #1048576
 5202 0032 2B61     		str	r3, [r5, #16]
1485:Drivers/display_ILI-93xx_sm/lcd.c **** 	LCD_Write8(0x00);
 5203              		.loc 1 1485 2 view .LVU1618
 5204              	.LVL317:
 5205              	.LBB519:
 5206              	.LBI519:
 847:Drivers/display_ILI-93xx_sm/lcd.c **** 	// ------ PORT -----     --- Data ----
 5207              		.loc 1 847 13 view .LVU1619
 5208              	.LBB520:
 860:Drivers/display_ILI-93xx_sm/lcd.c **** 	GPIOB->ODR = (GPIOB->ODR & 0xFBC7) | (data & 0x08) | ((data & 0x10) << 1) | ((data & 0x20) >> 1) |
 5209              		.loc 1 860 2 view .LVU1620
 860:Drivers/display_ILI-93xx_sm/lcd.c **** 	GPIOB->ODR = (GPIOB->ODR & 0xFBC7) | (data & 0x08) | ((data & 0x10) << 1) | ((data & 0x20) >> 1) |
 5210              		.loc 1 860 21 is_stmt 0 view .LVU1621
 5211 0034 EB68     		ldr	r3, [r5, #12]
 860:Drivers/display_ILI-93xx_sm/lcd.c **** 	GPIOB->ODR = (GPIOB->ODR & 0xFBC7) | (data & 0x08) | ((data & 0x10) << 1) | ((data & 0x20) >> 1) |
ARM GAS  /tmp/cc47Teva.s 			page 142


 5212              		.loc 1 860 27 view .LVU1622
 5213 0036 23F4F063 		bic	r3, r3, #1920
 5214 003a 1B04     		lsls	r3, r3, #16
 5215 003c 1B0C     		lsrs	r3, r3, #16
 860:Drivers/display_ILI-93xx_sm/lcd.c **** 	GPIOB->ODR = (GPIOB->ODR & 0xFBC7) | (data & 0x08) | ((data & 0x10) << 1) | ((data & 0x20) >> 1) |
 5216              		.loc 1 860 13 view .LVU1623
 5217 003e EB60     		str	r3, [r5, #12]
 861:Drivers/display_ILI-93xx_sm/lcd.c **** #else
 5218              		.loc 1 861 2 is_stmt 1 view .LVU1624
 861:Drivers/display_ILI-93xx_sm/lcd.c **** #else
 5219              		.loc 1 861 21 is_stmt 0 view .LVU1625
 5220 0040 F368     		ldr	r3, [r6, #12]
 861:Drivers/display_ILI-93xx_sm/lcd.c **** #else
 5221              		.loc 1 861 27 view .LVU1626
 5222 0042 23F48763 		bic	r3, r3, #1080
 5223 0046 1B04     		lsls	r3, r3, #16
 5224 0048 1B0C     		lsrs	r3, r3, #16
 861:Drivers/display_ILI-93xx_sm/lcd.c **** #else
 5225              		.loc 1 861 13 view .LVU1627
 5226 004a F360     		str	r3, [r6, #12]
 869:Drivers/display_ILI-93xx_sm/lcd.c **** }
 5227              		.loc 1 869 2 is_stmt 1 view .LVU1628
 869:Drivers/display_ILI-93xx_sm/lcd.c **** }
 5228              		.loc 1 869 2 view .LVU1629
 5229 004c 2F61     		str	r7, [r5, #16]
 869:Drivers/display_ILI-93xx_sm/lcd.c **** }
 5230              		.loc 1 869 2 view .LVU1630
 5231              	.LVL318:
 5232              	.LBB521:
 5233              	.LBI521:
 668:Drivers/display_ILI-93xx_sm/lcd.c **** 	for (; t; t--) __asm("nop");
 5234              		.loc 1 668 13 view .LVU1631
 5235              	.LBB522:
 669:Drivers/display_ILI-93xx_sm/lcd.c **** }
 5236              		.loc 1 669 2 view .LVU1632
 5237 004e 01E0     		b	.L255
 5238              	.LVL319:
 5239              	.L256:
 669:Drivers/display_ILI-93xx_sm/lcd.c **** }
 5240              		.loc 1 669 17 view .LVU1633
 5241              		.syntax unified
 5242              	@ 669 "Drivers/display_ILI-93xx_sm/lcd.c" 1
 5243 0050 00BF     		nop
 5244              	@ 0 "" 2
 669:Drivers/display_ILI-93xx_sm/lcd.c **** }
 5245              		.loc 1 669 13 is_stmt 0 view .LVU1634
 5246              		.thumb
 5247              		.syntax unified
 5248 0052 013C     		subs	r4, r4, #1
 5249              	.LVL320:
 5250              	.L255:
 669:Drivers/display_ILI-93xx_sm/lcd.c **** }
 5251              		.loc 1 669 2 view .LVU1635
 5252 0054 002C     		cmp	r4, #0
 5253 0056 FBD1     		bne	.L256
 5254              	.LVL321:
 669:Drivers/display_ILI-93xx_sm/lcd.c **** }
ARM GAS  /tmp/cc47Teva.s 			page 143


 5255              		.loc 1 669 2 view .LVU1636
 5256              	.LBE522:
 5257              	.LBE521:
 869:Drivers/display_ILI-93xx_sm/lcd.c **** }
 5258              		.loc 1 869 2 is_stmt 1 view .LVU1637
 5259 0058 0223     		movs	r3, #2
 5260 005a 124A     		ldr	r2, .L269+4
 5261 005c 1361     		str	r3, [r2, #16]
 869:Drivers/display_ILI-93xx_sm/lcd.c **** }
 5262              		.loc 1 869 2 view .LVU1638
 5263              	.LVL322:
 5264              	.LBB523:
 5265              	.LBI523:
 668:Drivers/display_ILI-93xx_sm/lcd.c **** 	for (; t; t--) __asm("nop");
 5266              		.loc 1 668 13 view .LVU1639
 5267 005e 01E0     		b	.L257
 5268              	.LVL323:
 5269              	.L258:
 5270              	.LBB524:
 669:Drivers/display_ILI-93xx_sm/lcd.c **** }
 5271              		.loc 1 669 17 view .LVU1640
 5272              		.syntax unified
 5273              	@ 669 "Drivers/display_ILI-93xx_sm/lcd.c" 1
 5274 0060 00BF     		nop
 5275              	@ 0 "" 2
 669:Drivers/display_ILI-93xx_sm/lcd.c **** }
 5276              		.loc 1 669 13 is_stmt 0 view .LVU1641
 5277              		.thumb
 5278              		.syntax unified
 5279 0062 013B     		subs	r3, r3, #1
 5280              	.LVL324:
 5281              	.L257:
 669:Drivers/display_ILI-93xx_sm/lcd.c **** }
 5282              		.loc 1 669 2 view .LVU1642
 5283 0064 002B     		cmp	r3, #0
 5284 0066 FBD1     		bne	.L258
 5285              	.LBE524:
 5286              	.LBE523:
 5287              	.LBE520:
 5288              	.LBE519:
 5289              	.LBB525:
1486:Drivers/display_ILI-93xx_sm/lcd.c **** 	for (uint8_t i = 0; i < 3; i++) LCD_WR_STROBE(); // Three extra 0x00s
 5290              		.loc 1 1486 15 view .LVU1643
 5291 0068 0022     		movs	r2, #0
 5292 006a 08E0     		b	.L259
 5293              	.LVL325:
 5294              	.L268:
 5295              		.loc 1 1486 34 is_stmt 1 discriminator 3 view .LVU1644
 5296 006c 0223     		movs	r3, #2
 5297 006e 0D49     		ldr	r1, .L269+4
 5298 0070 0B61     		str	r3, [r1, #16]
 5299              		.loc 1 1486 34 discriminator 3 view .LVU1645
 5300              	.LVL326:
 5301              	.LBB526:
 5302              	.LBI526:
 668:Drivers/display_ILI-93xx_sm/lcd.c **** 	for (; t; t--) __asm("nop");
 5303              		.loc 1 668 13 discriminator 3 view .LVU1646
ARM GAS  /tmp/cc47Teva.s 			page 144


 5304              	.L262:
 5305              	.LBB527:
 669:Drivers/display_ILI-93xx_sm/lcd.c **** }
 5306              		.loc 1 669 2 is_stmt 0 view .LVU1647
 5307 0072 13B1     		cbz	r3, .L266
 669:Drivers/display_ILI-93xx_sm/lcd.c **** }
 5308              		.loc 1 669 17 is_stmt 1 view .LVU1648
 5309              		.syntax unified
 5310              	@ 669 "Drivers/display_ILI-93xx_sm/lcd.c" 1
 5311 0074 00BF     		nop
 5312              	@ 0 "" 2
 669:Drivers/display_ILI-93xx_sm/lcd.c **** }
 5313              		.loc 1 669 13 is_stmt 0 view .LVU1649
 5314              		.thumb
 5315              		.syntax unified
 5316 0076 013B     		subs	r3, r3, #1
 5317              	.LVL327:
 669:Drivers/display_ILI-93xx_sm/lcd.c **** }
 5318              		.loc 1 669 13 view .LVU1650
 5319 0078 FBE7     		b	.L262
 5320              	.L266:
 5321              	.LVL328:
 669:Drivers/display_ILI-93xx_sm/lcd.c **** }
 5322              		.loc 1 669 13 view .LVU1651
 5323              	.LBE527:
 5324              	.LBE526:
 5325              		.loc 1 1486 30 discriminator 3 view .LVU1652
 5326 007a 0132     		adds	r2, r2, #1
 5327              	.LVL329:
 5328              		.loc 1 1486 30 discriminator 3 view .LVU1653
 5329 007c D2B2     		uxtb	r2, r2
 5330              	.LVL330:
 5331              	.L259:
 5332              		.loc 1 1486 2 discriminator 1 view .LVU1654
 5333 007e 022A     		cmp	r2, #2
 5334 0080 09D8     		bhi	.L267
 5335              		.loc 1 1486 34 is_stmt 1 discriminator 3 view .LVU1655
 5336              		.loc 1 1486 34 discriminator 3 view .LVU1656
 5337 0082 084B     		ldr	r3, .L269+4
 5338 0084 4FF40031 		mov	r1, #131072
 5339 0088 1961     		str	r1, [r3, #16]
 5340              		.loc 1 1486 34 discriminator 3 view .LVU1657
 5341              	.LVL331:
 5342              	.LBB528:
 5343              	.LBI528:
 668:Drivers/display_ILI-93xx_sm/lcd.c **** 	for (; t; t--) __asm("nop");
 5344              		.loc 1 668 13 discriminator 3 view .LVU1658
 5345              	.LBB529:
 669:Drivers/display_ILI-93xx_sm/lcd.c **** }
 5346              		.loc 1 669 2 discriminator 3 view .LVU1659
 5347              	.LBE529:
 5348              	.LBE528:
 5349              		.loc 1 1486 34 is_stmt 0 discriminator 3 view .LVU1660
 5350 008a 0223     		movs	r3, #2
 5351              	.LVL332:
 5352              	.L260:
 5353              	.LBB531:
ARM GAS  /tmp/cc47Teva.s 			page 145


 5354              	.LBB530:
 669:Drivers/display_ILI-93xx_sm/lcd.c **** }
 5355              		.loc 1 669 2 view .LVU1661
 5356 008c 002B     		cmp	r3, #0
 5357 008e EDD0     		beq	.L268
 669:Drivers/display_ILI-93xx_sm/lcd.c **** }
 5358              		.loc 1 669 17 is_stmt 1 view .LVU1662
 5359              		.syntax unified
 5360              	@ 669 "Drivers/display_ILI-93xx_sm/lcd.c" 1
 5361 0090 00BF     		nop
 5362              	@ 0 "" 2
 669:Drivers/display_ILI-93xx_sm/lcd.c **** }
 5363              		.loc 1 669 13 is_stmt 0 view .LVU1663
 5364              		.thumb
 5365              		.syntax unified
 5366 0092 013B     		subs	r3, r3, #1
 5367              	.LVL333:
 669:Drivers/display_ILI-93xx_sm/lcd.c **** }
 5368              		.loc 1 669 13 view .LVU1664
 5369 0094 FAE7     		b	.L260
 5370              	.LVL334:
 5371              	.L267:
 669:Drivers/display_ILI-93xx_sm/lcd.c **** }
 5372              		.loc 1 669 13 view .LVU1665
 5373              	.LBE530:
 5374              	.LBE531:
 5375              	.LBE525:
1487:Drivers/display_ILI-93xx_sm/lcd.c **** 	LCD_CS_IDLE();
 5376              		.loc 1 1487 2 is_stmt 1 view .LVU1666
 5377 0096 024B     		ldr	r3, .L269
 5378 0098 0122     		movs	r2, #1
 5379              	.LVL335:
 5380              		.loc 1 1487 2 is_stmt 0 view .LVU1667
 5381 009a 1A61     		str	r2, [r3, #16]
1488:Drivers/display_ILI-93xx_sm/lcd.c **** }
 5382              		.loc 1 1488 1 view .LVU1668
 5383 009c F8BD     		pop	{r3, r4, r5, r6, r7, pc}
 5384              	.L270:
 5385 009e 00BF     		.align	2
 5386              	.L269:
 5387 00a0 000C0140 		.word	1073810432
 5388 00a4 00080140 		.word	1073809408
 5389              		.cfi_endproc
 5390              	.LFE83:
 5392              		.section	.text.LCD_SetAddrWindow,"ax",%progbits
 5393              		.align	1
 5394              		.global	LCD_SetAddrWindow
 5395              		.syntax unified
 5396              		.thumb
 5397              		.thumb_func
 5398              		.fpu softvfp
 5400              	LCD_SetAddrWindow:
 5401              	.LVL336:
 5402              	.LFB84:
1489:Drivers/display_ILI-93xx_sm/lcd.c **** 
1490:Drivers/display_ILI-93xx_sm/lcd.c **** 
1491:Drivers/display_ILI-93xx_sm/lcd.c **** /**
ARM GAS  /tmp/cc47Teva.s 			page 146


1492:Drivers/display_ILI-93xx_sm/lcd.c ****  * \brief Sets window address
1493:Drivers/display_ILI-93xx_sm/lcd.c ****  *
1494:Drivers/display_ILI-93xx_sm/lcd.c ****  * \param x1
1495:Drivers/display_ILI-93xx_sm/lcd.c ****  * \param y1
1496:Drivers/display_ILI-93xx_sm/lcd.c ****  * \param x2
1497:Drivers/display_ILI-93xx_sm/lcd.c ****  * \param y2
1498:Drivers/display_ILI-93xx_sm/lcd.c ****  *
1499:Drivers/display_ILI-93xx_sm/lcd.c ****  * \return void
1500:Drivers/display_ILI-93xx_sm/lcd.c ****  */
1501:Drivers/display_ILI-93xx_sm/lcd.c **** void LCD_SetAddrWindow(uint16_t x1, uint16_t y1, uint16_t x2, uint16_t y2) {
 5403              		.loc 1 1501 76 is_stmt 1 view -0
 5404              		.cfi_startproc
 5405              		@ args = 0, pretend = 0, frame = 0
 5406              		@ frame_needed = 0, uses_anonymous_args = 0
 5407              		@ link register save eliminated.
 5408              		.loc 1 1501 76 is_stmt 0 view .LVU1670
 5409 0000 F0B4     		push	{r4, r5, r6, r7}
 5410              	.LCFI20:
 5411              		.cfi_def_cfa_offset 16
 5412              		.cfi_offset 4, -16
 5413              		.cfi_offset 5, -12
 5414              		.cfi_offset 6, -8
 5415              		.cfi_offset 7, -4
1502:Drivers/display_ILI-93xx_sm/lcd.c **** 	LCD_CS_ACTIVE();
 5416              		.loc 1 1502 2 is_stmt 1 view .LVU1671
 5417 0002 A54D     		ldr	r5, .L332
 5418 0004 4FF48034 		mov	r4, #65536
 5419 0008 2C61     		str	r4, [r5, #16]
1503:Drivers/display_ILI-93xx_sm/lcd.c **** #if	defined(ILI9325) || defined(ILI9328) || defined(R61505) || defined(R61505V) || defined(S6D0154)
1504:Drivers/display_ILI-93xx_sm/lcd.c **** 	/* 
1505:Drivers/display_ILI-93xx_sm/lcd.c **** 		Values passed are in current (possibly rotated) coordinate
1506:Drivers/display_ILI-93xx_sm/lcd.c **** 		system.  932X requires hardware-native coords regardless of
1507:Drivers/display_ILI-93xx_sm/lcd.c **** 		MADCTL, so rotate inputs as needed.  The address counter is
1508:Drivers/display_ILI-93xx_sm/lcd.c **** 		set to the top-left corner -- although fill operations can be
1509:Drivers/display_ILI-93xx_sm/lcd.c **** 		done in any direction, the current screen rotation is applied
1510:Drivers/display_ILI-93xx_sm/lcd.c **** 		because some users find it disconcerting when a fill does not
1511:Drivers/display_ILI-93xx_sm/lcd.c **** 		occur top-to-bottom.
1512:Drivers/display_ILI-93xx_sm/lcd.c **** 	*/
1513:Drivers/display_ILI-93xx_sm/lcd.c **** 	int x, y, t;
1514:Drivers/display_ILI-93xx_sm/lcd.c **** 	switch (m_rotation) {
1515:Drivers/display_ILI-93xx_sm/lcd.c **** 	default:
1516:Drivers/display_ILI-93xx_sm/lcd.c **** 		x = x1;
1517:Drivers/display_ILI-93xx_sm/lcd.c **** 		y = y1;
1518:Drivers/display_ILI-93xx_sm/lcd.c **** 		break;
1519:Drivers/display_ILI-93xx_sm/lcd.c **** 	case 1:
1520:Drivers/display_ILI-93xx_sm/lcd.c **** 		t = y1;
1521:Drivers/display_ILI-93xx_sm/lcd.c **** 		y1 = x1;
1522:Drivers/display_ILI-93xx_sm/lcd.c **** 		x1 = TFTWIDTH - 1 - y2;
1523:Drivers/display_ILI-93xx_sm/lcd.c **** 		y2 = x2;
1524:Drivers/display_ILI-93xx_sm/lcd.c **** 		x2 = TFTWIDTH - 1 - t;
1525:Drivers/display_ILI-93xx_sm/lcd.c **** 		x = x2;
1526:Drivers/display_ILI-93xx_sm/lcd.c **** 		y = y1;
1527:Drivers/display_ILI-93xx_sm/lcd.c **** 		break;
1528:Drivers/display_ILI-93xx_sm/lcd.c **** 	case 2:
1529:Drivers/display_ILI-93xx_sm/lcd.c **** 		t = x1;
1530:Drivers/display_ILI-93xx_sm/lcd.c **** 		x1 = TFTWIDTH - 1 - x2;
1531:Drivers/display_ILI-93xx_sm/lcd.c **** 		x2 = TFTWIDTH - 1 - t;
ARM GAS  /tmp/cc47Teva.s 			page 147


1532:Drivers/display_ILI-93xx_sm/lcd.c **** 		t = y1;
1533:Drivers/display_ILI-93xx_sm/lcd.c **** 		y1 = TFTHEIGHT - 1 - y2;
1534:Drivers/display_ILI-93xx_sm/lcd.c **** 		y2 = TFTHEIGHT - 1 - t;
1535:Drivers/display_ILI-93xx_sm/lcd.c **** 		x = x2;
1536:Drivers/display_ILI-93xx_sm/lcd.c **** 		y = y2;
1537:Drivers/display_ILI-93xx_sm/lcd.c **** 		break;
1538:Drivers/display_ILI-93xx_sm/lcd.c **** 	case 3:
1539:Drivers/display_ILI-93xx_sm/lcd.c **** 		t = x1;
1540:Drivers/display_ILI-93xx_sm/lcd.c **** 		x1 = y1;
1541:Drivers/display_ILI-93xx_sm/lcd.c **** 		y1 = TFTHEIGHT - 1 - x2;
1542:Drivers/display_ILI-93xx_sm/lcd.c **** 		x2 = y2;
1543:Drivers/display_ILI-93xx_sm/lcd.c **** 		y2 = TFTHEIGHT - 1 - t;
1544:Drivers/display_ILI-93xx_sm/lcd.c **** 		x = x1;
1545:Drivers/display_ILI-93xx_sm/lcd.c **** 		y = y2;
1546:Drivers/display_ILI-93xx_sm/lcd.c **** 		break;
1547:Drivers/display_ILI-93xx_sm/lcd.c **** 	}
1548:Drivers/display_ILI-93xx_sm/lcd.c **** #if defined(ILI9325) || defined(ILI9328) || defined(R61505) || defined(R61505V)
1549:Drivers/display_ILI-93xx_sm/lcd.c **** 	LCD_Write16Register16(ILI932X_HOR_START_AD, x1); // Set address window
1550:Drivers/display_ILI-93xx_sm/lcd.c **** 	LCD_Write16Register16(ILI932X_HOR_END_AD, x2);
1551:Drivers/display_ILI-93xx_sm/lcd.c **** 	LCD_Write16Register16(ILI932X_VER_START_AD, y1);
1552:Drivers/display_ILI-93xx_sm/lcd.c **** 	LCD_Write16Register16(ILI932X_VER_END_AD, y2);
1553:Drivers/display_ILI-93xx_sm/lcd.c **** 	LCD_Write16Register16(ILI932X_GRAM_HOR_AD, x); // Set address counter to top left
1554:Drivers/display_ILI-93xx_sm/lcd.c **** 	LCD_Write16Register16(ILI932X_GRAM_VER_AD, y);
1555:Drivers/display_ILI-93xx_sm/lcd.c **** #elif defined(S6D0154)
1556:Drivers/display_ILI-93xx_sm/lcd.c **** 	LCD_Write16Register16(0x37, x1); //HorizontalStartAddress
1557:Drivers/display_ILI-93xx_sm/lcd.c **** 	LCD_Write16Register16(0x36, x2); //HorizontalEndAddress
1558:Drivers/display_ILI-93xx_sm/lcd.c **** 	LCD_Write16Register16(0x39, y1); //VerticalStartAddress
1559:Drivers/display_ILI-93xx_sm/lcd.c **** 	LCD_Write16Register16(0x38, y2); //VertocalEndAddress
1560:Drivers/display_ILI-93xx_sm/lcd.c **** 	LCD_Write16Register16(0x20, x); //GRAM Address Set
1561:Drivers/display_ILI-93xx_sm/lcd.c **** 	LCD_Write16Register16(0x21, y);
1562:Drivers/display_ILI-93xx_sm/lcd.c **** 	LCD_Write8Register8(0x22, 0);
1563:Drivers/display_ILI-93xx_sm/lcd.c **** #endif
1564:Drivers/display_ILI-93xx_sm/lcd.c **** #elif defined(ILI9340) || defined(ILI9341) || defined(ILI9341_00) || defined(R61520) || defined(UNK
1565:Drivers/display_ILI-93xx_sm/lcd.c **** 	LCD_Write32Register8(ILI9341_COLADDRSET, (x1 << 16) | x2);
 5420              		.loc 1 1565 2 view .LVU1672
 5421              		.loc 1 1565 54 is_stmt 0 view .LVU1673
 5422 000a 42EA0042 		orr	r2, r2, r0, lsl #16
 5423              	.LVL337:
 5424              	.LBB596:
 5425              	.LBI596:
 963:Drivers/display_ILI-93xx_sm/lcd.c **** 	LCD_CD_COMMAND();
 5426              		.loc 1 963 13 is_stmt 1 view .LVU1674
 5427              	.LBB597:
 964:Drivers/display_ILI-93xx_sm/lcd.c **** 	LCD_Write8(a);
 5428              		.loc 1 964 2 view .LVU1675
 5429 000e 04F18044 		add	r4, r4, #1073741824
 5430 0012 04F50064 		add	r4, r4, #2048
 5431 0016 4FF48010 		mov	r0, #1048576
 5432              	.LVL338:
 964:Drivers/display_ILI-93xx_sm/lcd.c **** 	LCD_Write8(a);
 5433              		.loc 1 964 2 is_stmt 0 view .LVU1676
 5434 001a 2061     		str	r0, [r4, #16]
 965:Drivers/display_ILI-93xx_sm/lcd.c **** 	LCD_CD_DATA();
 5435              		.loc 1 965 2 is_stmt 1 view .LVU1677
 5436              	.LVL339:
 5437              	.LBB598:
 5438              	.LBI598:
ARM GAS  /tmp/cc47Teva.s 			page 148


 847:Drivers/display_ILI-93xx_sm/lcd.c **** 	// ------ PORT -----     --- Data ----
 5439              		.loc 1 847 13 view .LVU1678
 5440              	.LBB599:
 860:Drivers/display_ILI-93xx_sm/lcd.c **** 	GPIOB->ODR = (GPIOB->ODR & 0xFBC7) | (data & 0x08) | ((data & 0x10) << 1) | ((data & 0x20) >> 1) |
 5441              		.loc 1 860 2 view .LVU1679
 860:Drivers/display_ILI-93xx_sm/lcd.c **** 	GPIOB->ODR = (GPIOB->ODR & 0xFBC7) | (data & 0x08) | ((data & 0x10) << 1) | ((data & 0x20) >> 1) |
 5442              		.loc 1 860 21 is_stmt 0 view .LVU1680
 5443 001c E068     		ldr	r0, [r4, #12]
 860:Drivers/display_ILI-93xx_sm/lcd.c **** 	GPIOB->ODR = (GPIOB->ODR & 0xFBC7) | (data & 0x08) | ((data & 0x10) << 1) | ((data & 0x20) >> 1) |
 5444              		.loc 1 860 27 view .LVU1681
 5445 001e 20F4F060 		bic	r0, r0, #1920
 5446 0022 0004     		lsls	r0, r0, #16
 5447 0024 000C     		lsrs	r0, r0, #16
 860:Drivers/display_ILI-93xx_sm/lcd.c **** 	GPIOB->ODR = (GPIOB->ODR & 0xFBC7) | (data & 0x08) | ((data & 0x10) << 1) | ((data & 0x20) >> 1) |
 5448              		.loc 1 860 106 view .LVU1682
 5449 0026 40F08000 		orr	r0, r0, #128
 860:Drivers/display_ILI-93xx_sm/lcd.c **** 	GPIOB->ODR = (GPIOB->ODR & 0xFBC7) | (data & 0x08) | ((data & 0x10) << 1) | ((data & 0x20) >> 1) |
 5450              		.loc 1 860 13 view .LVU1683
 5451 002a E060     		str	r0, [r4, #12]
 861:Drivers/display_ILI-93xx_sm/lcd.c **** #else
 5452              		.loc 1 861 2 is_stmt 1 view .LVU1684
 861:Drivers/display_ILI-93xx_sm/lcd.c **** #else
 5453              		.loc 1 861 21 is_stmt 0 view .LVU1685
 5454 002c E868     		ldr	r0, [r5, #12]
 861:Drivers/display_ILI-93xx_sm/lcd.c **** #else
 5455              		.loc 1 861 27 view .LVU1686
 5456 002e 20F48760 		bic	r0, r0, #1080
 5457 0032 0004     		lsls	r0, r0, #16
 5458 0034 000C     		lsrs	r0, r0, #16
 861:Drivers/display_ILI-93xx_sm/lcd.c **** #else
 5459              		.loc 1 861 76 view .LVU1687
 5460 0036 40F01800 		orr	r0, r0, #24
 861:Drivers/display_ILI-93xx_sm/lcd.c **** #else
 5461              		.loc 1 861 13 view .LVU1688
 5462 003a E860     		str	r0, [r5, #12]
 869:Drivers/display_ILI-93xx_sm/lcd.c **** }
 5463              		.loc 1 869 2 is_stmt 1 view .LVU1689
 869:Drivers/display_ILI-93xx_sm/lcd.c **** }
 5464              		.loc 1 869 2 view .LVU1690
 5465 003c 4FF40030 		mov	r0, #131072
 5466 0040 2061     		str	r0, [r4, #16]
 869:Drivers/display_ILI-93xx_sm/lcd.c **** }
 5467              		.loc 1 869 2 view .LVU1691
 5468              	.LVL340:
 5469              	.LBB600:
 5470              	.LBI600:
 668:Drivers/display_ILI-93xx_sm/lcd.c **** 	for (; t; t--) __asm("nop");
 5471              		.loc 1 668 13 view .LVU1692
 5472              	.LBB601:
 669:Drivers/display_ILI-93xx_sm/lcd.c **** }
 5473              		.loc 1 669 2 view .LVU1693
 5474              	.LBE601:
 5475              	.LBE600:
 869:Drivers/display_ILI-93xx_sm/lcd.c **** }
 5476              		.loc 1 869 2 is_stmt 0 view .LVU1694
 5477 0042 0220     		movs	r0, #2
 5478              	.LVL341:
ARM GAS  /tmp/cc47Teva.s 			page 149


 5479              	.L272:
 5480              	.LBB603:
 5481              	.LBB602:
 669:Drivers/display_ILI-93xx_sm/lcd.c **** }
 5482              		.loc 1 669 2 view .LVU1695
 5483 0044 10B1     		cbz	r0, .L313
 669:Drivers/display_ILI-93xx_sm/lcd.c **** }
 5484              		.loc 1 669 17 is_stmt 1 view .LVU1696
 5485              		.syntax unified
 5486              	@ 669 "Drivers/display_ILI-93xx_sm/lcd.c" 1
 5487 0046 00BF     		nop
 5488              	@ 0 "" 2
 669:Drivers/display_ILI-93xx_sm/lcd.c **** }
 5489              		.loc 1 669 13 is_stmt 0 view .LVU1697
 5490              		.thumb
 5491              		.syntax unified
 5492 0048 0138     		subs	r0, r0, #1
 5493              	.LVL342:
 669:Drivers/display_ILI-93xx_sm/lcd.c **** }
 5494              		.loc 1 669 13 view .LVU1698
 5495 004a FBE7     		b	.L272
 5496              	.L313:
 5497              	.LVL343:
 669:Drivers/display_ILI-93xx_sm/lcd.c **** }
 5498              		.loc 1 669 13 view .LVU1699
 5499              	.LBE602:
 5500              	.LBE603:
 869:Drivers/display_ILI-93xx_sm/lcd.c **** }
 5501              		.loc 1 869 2 is_stmt 1 view .LVU1700
 5502 004c 0220     		movs	r0, #2
 5503 004e 934C     		ldr	r4, .L332+4
 5504 0050 2061     		str	r0, [r4, #16]
 869:Drivers/display_ILI-93xx_sm/lcd.c **** }
 5505              		.loc 1 869 2 view .LVU1701
 5506              	.LVL344:
 5507              	.LBB604:
 5508              	.LBI604:
 668:Drivers/display_ILI-93xx_sm/lcd.c **** 	for (; t; t--) __asm("nop");
 5509              		.loc 1 668 13 view .LVU1702
 5510              	.L274:
 5511              	.LBB605:
 669:Drivers/display_ILI-93xx_sm/lcd.c **** }
 5512              		.loc 1 669 2 is_stmt 0 view .LVU1703
 5513 0052 10B1     		cbz	r0, .L314
 669:Drivers/display_ILI-93xx_sm/lcd.c **** }
 5514              		.loc 1 669 17 is_stmt 1 view .LVU1704
 5515              		.syntax unified
 5516              	@ 669 "Drivers/display_ILI-93xx_sm/lcd.c" 1
 5517 0054 00BF     		nop
 5518              	@ 0 "" 2
 669:Drivers/display_ILI-93xx_sm/lcd.c **** }
 5519              		.loc 1 669 13 is_stmt 0 view .LVU1705
 5520              		.thumb
 5521              		.syntax unified
 5522 0056 0138     		subs	r0, r0, #1
 5523              	.LVL345:
 669:Drivers/display_ILI-93xx_sm/lcd.c **** }
ARM GAS  /tmp/cc47Teva.s 			page 150


 5524              		.loc 1 669 13 view .LVU1706
 5525 0058 FBE7     		b	.L274
 5526              	.L314:
 5527              	.LVL346:
 669:Drivers/display_ILI-93xx_sm/lcd.c **** }
 5528              		.loc 1 669 13 view .LVU1707
 5529              	.LBE605:
 5530              	.LBE604:
 5531              	.LBE599:
 5532              	.LBE598:
 966:Drivers/display_ILI-93xx_sm/lcd.c **** 	LCD_Write8(d >> 24);
 5533              		.loc 1 966 2 is_stmt 1 view .LVU1708
 5534 005a 904E     		ldr	r6, .L332+4
 5535 005c 1020     		movs	r0, #16
 5536 005e 3061     		str	r0, [r6, #16]
 967:Drivers/display_ILI-93xx_sm/lcd.c **** 	LCD_Write8(d >> 16);
 5537              		.loc 1 967 2 view .LVU1709
 5538 0060 140E     		lsrs	r4, r2, #24
 5539              	.LBB606:
 5540              	.LBI606:
 847:Drivers/display_ILI-93xx_sm/lcd.c **** 	// ------ PORT -----     --- Data ----
 5541              		.loc 1 847 13 view .LVU1710
 5542              	.LBB607:
 860:Drivers/display_ILI-93xx_sm/lcd.c **** 	GPIOB->ODR = (GPIOB->ODR & 0xFBC7) | (data & 0x08) | ((data & 0x10) << 1) | ((data & 0x20) >> 1) |
 5543              		.loc 1 860 2 view .LVU1711
 860:Drivers/display_ILI-93xx_sm/lcd.c **** 	GPIOB->ODR = (GPIOB->ODR & 0xFBC7) | (data & 0x08) | ((data & 0x10) << 1) | ((data & 0x20) >> 1) |
 5544              		.loc 1 860 21 is_stmt 0 view .LVU1712
 5545 0062 F568     		ldr	r5, [r6, #12]
 860:Drivers/display_ILI-93xx_sm/lcd.c **** 	GPIOB->ODR = (GPIOB->ODR & 0xFBC7) | (data & 0x08) | ((data & 0x10) << 1) | ((data & 0x20) >> 1) |
 5546              		.loc 1 860 27 view .LVU1713
 5547 0064 25F4F065 		bic	r5, r5, #1920
 5548 0068 2D04     		lsls	r5, r5, #16
 5549 006a 2D0C     		lsrs	r5, r5, #16
 860:Drivers/display_ILI-93xx_sm/lcd.c **** 	GPIOB->ODR = (GPIOB->ODR & 0xFBC7) | (data & 0x08) | ((data & 0x10) << 1) | ((data & 0x20) >> 1) |
 5550              		.loc 1 860 54 view .LVU1714
 5551 006c 6002     		lsls	r0, r4, #9
 5552 006e 00F40070 		and	r0, r0, #512
 860:Drivers/display_ILI-93xx_sm/lcd.c **** 	GPIOB->ODR = (GPIOB->ODR & 0xFBC7) | (data & 0x08) | ((data & 0x10) << 1) | ((data & 0x20) >> 1) |
 5553              		.loc 1 860 37 view .LVU1715
 5554 0072 0543     		orrs	r5, r5, r0
 860:Drivers/display_ILI-93xx_sm/lcd.c **** 	GPIOB->ODR = (GPIOB->ODR & 0xFBC7) | (data & 0x08) | ((data & 0x10) << 1) | ((data & 0x20) >> 1) |
 5555              		.loc 1 860 77 view .LVU1716
 5556 0074 2002     		lsls	r0, r4, #8
 5557 0076 00F48060 		and	r0, r0, #1024
 860:Drivers/display_ILI-93xx_sm/lcd.c **** 	GPIOB->ODR = (GPIOB->ODR & 0xFBC7) | (data & 0x08) | ((data & 0x10) << 1) | ((data & 0x20) >> 1) |
 5558              		.loc 1 860 60 view .LVU1717
 5559 007a 0543     		orrs	r5, r5, r0
 860:Drivers/display_ILI-93xx_sm/lcd.c **** 	GPIOB->ODR = (GPIOB->ODR & 0xFBC7) | (data & 0x08) | ((data & 0x10) << 1) | ((data & 0x20) >> 1) |
 5560              		.loc 1 860 100 view .LVU1718
 5561 007c 6700     		lsls	r7, r4, #1
 5562 007e 07F48070 		and	r0, r7, #256
 860:Drivers/display_ILI-93xx_sm/lcd.c **** 	GPIOB->ODR = (GPIOB->ODR & 0xFBC7) | (data & 0x08) | ((data & 0x10) << 1) | ((data & 0x20) >> 1) |
 5563              		.loc 1 860 83 view .LVU1719
 5564 0082 0543     		orrs	r5, r5, r0
 860:Drivers/display_ILI-93xx_sm/lcd.c **** 	GPIOB->ODR = (GPIOB->ODR & 0xFBC7) | (data & 0x08) | ((data & 0x10) << 1) | ((data & 0x20) >> 1) |
 5565              		.loc 1 860 123 view .LVU1720
 5566 0084 A001     		lsls	r0, r4, #6
ARM GAS  /tmp/cc47Teva.s 			page 151


 5567 0086 00F08000 		and	r0, r0, #128
 860:Drivers/display_ILI-93xx_sm/lcd.c **** 	GPIOB->ODR = (GPIOB->ODR & 0xFBC7) | (data & 0x08) | ((data & 0x10) << 1) | ((data & 0x20) >> 1) |
 5568              		.loc 1 860 106 view .LVU1721
 5569 008a 0543     		orrs	r5, r5, r0
 860:Drivers/display_ILI-93xx_sm/lcd.c **** 	GPIOB->ODR = (GPIOB->ODR & 0xFBC7) | (data & 0x08) | ((data & 0x10) << 1) | ((data & 0x20) >> 1) |
 5570              		.loc 1 860 13 view .LVU1722
 5571 008c F560     		str	r5, [r6, #12]
 861:Drivers/display_ILI-93xx_sm/lcd.c **** #else
 5572              		.loc 1 861 2 is_stmt 1 view .LVU1723
 861:Drivers/display_ILI-93xx_sm/lcd.c **** #else
 5573              		.loc 1 861 21 is_stmt 0 view .LVU1724
 5574 008e 824D     		ldr	r5, .L332
 5575 0090 E868     		ldr	r0, [r5, #12]
 861:Drivers/display_ILI-93xx_sm/lcd.c **** #else
 5576              		.loc 1 861 27 view .LVU1725
 5577 0092 20F48760 		bic	r0, r0, #1080
 5578 0096 0004     		lsls	r0, r0, #16
 5579 0098 000C     		lsrs	r0, r0, #16
 861:Drivers/display_ILI-93xx_sm/lcd.c **** #else
 5580              		.loc 1 861 45 view .LVU1726
 5581 009a 04F0080C 		and	ip, r4, #8
 861:Drivers/display_ILI-93xx_sm/lcd.c **** #else
 5582              		.loc 1 861 37 view .LVU1727
 5583 009e 40EA0C00 		orr	r0, r0, ip
 861:Drivers/display_ILI-93xx_sm/lcd.c **** #else
 5584              		.loc 1 861 70 view .LVU1728
 5585 00a2 07F02007 		and	r7, r7, #32
 861:Drivers/display_ILI-93xx_sm/lcd.c **** #else
 5586              		.loc 1 861 53 view .LVU1729
 5587 00a6 3843     		orrs	r0, r0, r7
 861:Drivers/display_ILI-93xx_sm/lcd.c **** #else
 5588              		.loc 1 861 93 view .LVU1730
 5589 00a8 6710     		asrs	r7, r4, #1
 5590 00aa 07F01007 		and	r7, r7, #16
 861:Drivers/display_ILI-93xx_sm/lcd.c **** #else
 5591              		.loc 1 861 76 view .LVU1731
 5592 00ae 3843     		orrs	r0, r0, r7
 861:Drivers/display_ILI-93xx_sm/lcd.c **** #else
 5593              		.loc 1 861 116 view .LVU1732
 5594 00b0 2401     		lsls	r4, r4, #4
 5595 00b2 04F48064 		and	r4, r4, #1024
 861:Drivers/display_ILI-93xx_sm/lcd.c **** #else
 5596              		.loc 1 861 99 view .LVU1733
 5597 00b6 0443     		orrs	r4, r4, r0
 861:Drivers/display_ILI-93xx_sm/lcd.c **** #else
 5598              		.loc 1 861 13 view .LVU1734
 5599 00b8 EC60     		str	r4, [r5, #12]
 869:Drivers/display_ILI-93xx_sm/lcd.c **** }
 5600              		.loc 1 869 2 is_stmt 1 view .LVU1735
 869:Drivers/display_ILI-93xx_sm/lcd.c **** }
 5601              		.loc 1 869 2 view .LVU1736
 5602 00ba 4FF40030 		mov	r0, #131072
 5603 00be 3061     		str	r0, [r6, #16]
 869:Drivers/display_ILI-93xx_sm/lcd.c **** }
 5604              		.loc 1 869 2 view .LVU1737
 5605              	.LVL347:
 5606              	.LBB608:
ARM GAS  /tmp/cc47Teva.s 			page 152


 5607              	.LBI608:
 668:Drivers/display_ILI-93xx_sm/lcd.c **** 	for (; t; t--) __asm("nop");
 5608              		.loc 1 668 13 view .LVU1738
 5609              	.LBB609:
 669:Drivers/display_ILI-93xx_sm/lcd.c **** }
 5610              		.loc 1 669 2 view .LVU1739
 5611              	.LBE609:
 5612              	.LBE608:
 869:Drivers/display_ILI-93xx_sm/lcd.c **** }
 5613              		.loc 1 869 2 is_stmt 0 view .LVU1740
 5614 00c0 0220     		movs	r0, #2
 5615              	.LVL348:
 5616              	.L276:
 5617              	.LBB611:
 5618              	.LBB610:
 669:Drivers/display_ILI-93xx_sm/lcd.c **** }
 5619              		.loc 1 669 2 view .LVU1741
 5620 00c2 10B1     		cbz	r0, .L315
 669:Drivers/display_ILI-93xx_sm/lcd.c **** }
 5621              		.loc 1 669 17 is_stmt 1 view .LVU1742
 5622              		.syntax unified
 5623              	@ 669 "Drivers/display_ILI-93xx_sm/lcd.c" 1
 5624 00c4 00BF     		nop
 5625              	@ 0 "" 2
 669:Drivers/display_ILI-93xx_sm/lcd.c **** }
 5626              		.loc 1 669 13 is_stmt 0 view .LVU1743
 5627              		.thumb
 5628              		.syntax unified
 5629 00c6 0138     		subs	r0, r0, #1
 5630              	.LVL349:
 669:Drivers/display_ILI-93xx_sm/lcd.c **** }
 5631              		.loc 1 669 13 view .LVU1744
 5632 00c8 FBE7     		b	.L276
 5633              	.L315:
 5634              	.LVL350:
 669:Drivers/display_ILI-93xx_sm/lcd.c **** }
 5635              		.loc 1 669 13 view .LVU1745
 5636              	.LBE610:
 5637              	.LBE611:
 869:Drivers/display_ILI-93xx_sm/lcd.c **** }
 5638              		.loc 1 869 2 is_stmt 1 view .LVU1746
 5639 00ca 0220     		movs	r0, #2
 5640 00cc 734C     		ldr	r4, .L332+4
 5641 00ce 2061     		str	r0, [r4, #16]
 869:Drivers/display_ILI-93xx_sm/lcd.c **** }
 5642              		.loc 1 869 2 view .LVU1747
 5643              	.LVL351:
 5644              	.LBB612:
 5645              	.LBI612:
 668:Drivers/display_ILI-93xx_sm/lcd.c **** 	for (; t; t--) __asm("nop");
 5646              		.loc 1 668 13 view .LVU1748
 5647              	.L278:
 5648              	.LBB613:
 669:Drivers/display_ILI-93xx_sm/lcd.c **** }
 5649              		.loc 1 669 2 is_stmt 0 view .LVU1749
 5650 00d0 10B1     		cbz	r0, .L316
 669:Drivers/display_ILI-93xx_sm/lcd.c **** }
ARM GAS  /tmp/cc47Teva.s 			page 153


 5651              		.loc 1 669 17 is_stmt 1 view .LVU1750
 5652              		.syntax unified
 5653              	@ 669 "Drivers/display_ILI-93xx_sm/lcd.c" 1
 5654 00d2 00BF     		nop
 5655              	@ 0 "" 2
 669:Drivers/display_ILI-93xx_sm/lcd.c **** }
 5656              		.loc 1 669 13 is_stmt 0 view .LVU1751
 5657              		.thumb
 5658              		.syntax unified
 5659 00d4 0138     		subs	r0, r0, #1
 5660              	.LVL352:
 669:Drivers/display_ILI-93xx_sm/lcd.c **** }
 5661              		.loc 1 669 13 view .LVU1752
 5662 00d6 FBE7     		b	.L278
 5663              	.L316:
 5664              	.LVL353:
 669:Drivers/display_ILI-93xx_sm/lcd.c **** }
 5665              		.loc 1 669 13 view .LVU1753
 5666              	.LBE613:
 5667              	.LBE612:
 5668              	.LBE607:
 5669              	.LBE606:
 968:Drivers/display_ILI-93xx_sm/lcd.c **** 	LCD_Write8(d >> 8);
 5670              		.loc 1 968 2 is_stmt 1 view .LVU1754
 5671 00d8 C2F30744 		ubfx	r4, r2, #16, #8
 5672              	.LBB614:
 5673              	.LBI614:
 847:Drivers/display_ILI-93xx_sm/lcd.c **** 	// ------ PORT -----     --- Data ----
 5674              		.loc 1 847 13 view .LVU1755
 5675              	.LBB615:
 860:Drivers/display_ILI-93xx_sm/lcd.c **** 	GPIOB->ODR = (GPIOB->ODR & 0xFBC7) | (data & 0x08) | ((data & 0x10) << 1) | ((data & 0x20) >> 1) |
 5676              		.loc 1 860 2 view .LVU1756
 860:Drivers/display_ILI-93xx_sm/lcd.c **** 	GPIOB->ODR = (GPIOB->ODR & 0xFBC7) | (data & 0x08) | ((data & 0x10) << 1) | ((data & 0x20) >> 1) |
 5677              		.loc 1 860 21 is_stmt 0 view .LVU1757
 5678 00dc 6F4E     		ldr	r6, .L332+4
 5679 00de F568     		ldr	r5, [r6, #12]
 860:Drivers/display_ILI-93xx_sm/lcd.c **** 	GPIOB->ODR = (GPIOB->ODR & 0xFBC7) | (data & 0x08) | ((data & 0x10) << 1) | ((data & 0x20) >> 1) |
 5680              		.loc 1 860 27 view .LVU1758
 5681 00e0 25F4F065 		bic	r5, r5, #1920
 5682 00e4 2D04     		lsls	r5, r5, #16
 5683 00e6 2D0C     		lsrs	r5, r5, #16
 860:Drivers/display_ILI-93xx_sm/lcd.c **** 	GPIOB->ODR = (GPIOB->ODR & 0xFBC7) | (data & 0x08) | ((data & 0x10) << 1) | ((data & 0x20) >> 1) |
 5684              		.loc 1 860 54 view .LVU1759
 5685 00e8 6002     		lsls	r0, r4, #9
 5686 00ea 00F40070 		and	r0, r0, #512
 860:Drivers/display_ILI-93xx_sm/lcd.c **** 	GPIOB->ODR = (GPIOB->ODR & 0xFBC7) | (data & 0x08) | ((data & 0x10) << 1) | ((data & 0x20) >> 1) |
 5687              		.loc 1 860 37 view .LVU1760
 5688 00ee 0543     		orrs	r5, r5, r0
 860:Drivers/display_ILI-93xx_sm/lcd.c **** 	GPIOB->ODR = (GPIOB->ODR & 0xFBC7) | (data & 0x08) | ((data & 0x10) << 1) | ((data & 0x20) >> 1) |
 5689              		.loc 1 860 77 view .LVU1761
 5690 00f0 2002     		lsls	r0, r4, #8
 5691 00f2 00F48060 		and	r0, r0, #1024
 860:Drivers/display_ILI-93xx_sm/lcd.c **** 	GPIOB->ODR = (GPIOB->ODR & 0xFBC7) | (data & 0x08) | ((data & 0x10) << 1) | ((data & 0x20) >> 1) |
 5692              		.loc 1 860 60 view .LVU1762
 5693 00f6 0543     		orrs	r5, r5, r0
 860:Drivers/display_ILI-93xx_sm/lcd.c **** 	GPIOB->ODR = (GPIOB->ODR & 0xFBC7) | (data & 0x08) | ((data & 0x10) << 1) | ((data & 0x20) >> 1) |
 5694              		.loc 1 860 100 view .LVU1763
ARM GAS  /tmp/cc47Teva.s 			page 154


 5695 00f8 6700     		lsls	r7, r4, #1
 5696 00fa 07F48070 		and	r0, r7, #256
 860:Drivers/display_ILI-93xx_sm/lcd.c **** 	GPIOB->ODR = (GPIOB->ODR & 0xFBC7) | (data & 0x08) | ((data & 0x10) << 1) | ((data & 0x20) >> 1) |
 5697              		.loc 1 860 83 view .LVU1764
 5698 00fe 0543     		orrs	r5, r5, r0
 860:Drivers/display_ILI-93xx_sm/lcd.c **** 	GPIOB->ODR = (GPIOB->ODR & 0xFBC7) | (data & 0x08) | ((data & 0x10) << 1) | ((data & 0x20) >> 1) |
 5699              		.loc 1 860 123 view .LVU1765
 5700 0100 A001     		lsls	r0, r4, #6
 5701 0102 00F08000 		and	r0, r0, #128
 860:Drivers/display_ILI-93xx_sm/lcd.c **** 	GPIOB->ODR = (GPIOB->ODR & 0xFBC7) | (data & 0x08) | ((data & 0x10) << 1) | ((data & 0x20) >> 1) |
 5702              		.loc 1 860 106 view .LVU1766
 5703 0106 0543     		orrs	r5, r5, r0
 860:Drivers/display_ILI-93xx_sm/lcd.c **** 	GPIOB->ODR = (GPIOB->ODR & 0xFBC7) | (data & 0x08) | ((data & 0x10) << 1) | ((data & 0x20) >> 1) |
 5704              		.loc 1 860 13 view .LVU1767
 5705 0108 F560     		str	r5, [r6, #12]
 861:Drivers/display_ILI-93xx_sm/lcd.c **** #else
 5706              		.loc 1 861 2 is_stmt 1 view .LVU1768
 861:Drivers/display_ILI-93xx_sm/lcd.c **** #else
 5707              		.loc 1 861 21 is_stmt 0 view .LVU1769
 5708 010a 634D     		ldr	r5, .L332
 5709 010c E868     		ldr	r0, [r5, #12]
 861:Drivers/display_ILI-93xx_sm/lcd.c **** #else
 5710              		.loc 1 861 27 view .LVU1770
 5711 010e 20F48760 		bic	r0, r0, #1080
 5712 0112 0004     		lsls	r0, r0, #16
 5713 0114 000C     		lsrs	r0, r0, #16
 861:Drivers/display_ILI-93xx_sm/lcd.c **** #else
 5714              		.loc 1 861 45 view .LVU1771
 5715 0116 04F0080C 		and	ip, r4, #8
 861:Drivers/display_ILI-93xx_sm/lcd.c **** #else
 5716              		.loc 1 861 37 view .LVU1772
 5717 011a 40EA0C00 		orr	r0, r0, ip
 861:Drivers/display_ILI-93xx_sm/lcd.c **** #else
 5718              		.loc 1 861 70 view .LVU1773
 5719 011e 07F02007 		and	r7, r7, #32
 861:Drivers/display_ILI-93xx_sm/lcd.c **** #else
 5720              		.loc 1 861 53 view .LVU1774
 5721 0122 3843     		orrs	r0, r0, r7
 861:Drivers/display_ILI-93xx_sm/lcd.c **** #else
 5722              		.loc 1 861 93 view .LVU1775
 5723 0124 6710     		asrs	r7, r4, #1
 5724 0126 07F01007 		and	r7, r7, #16
 861:Drivers/display_ILI-93xx_sm/lcd.c **** #else
 5725              		.loc 1 861 76 view .LVU1776
 5726 012a 3843     		orrs	r0, r0, r7
 861:Drivers/display_ILI-93xx_sm/lcd.c **** #else
 5727              		.loc 1 861 116 view .LVU1777
 5728 012c 2401     		lsls	r4, r4, #4
 5729 012e 04F48064 		and	r4, r4, #1024
 861:Drivers/display_ILI-93xx_sm/lcd.c **** #else
 5730              		.loc 1 861 99 view .LVU1778
 5731 0132 0443     		orrs	r4, r4, r0
 861:Drivers/display_ILI-93xx_sm/lcd.c **** #else
 5732              		.loc 1 861 13 view .LVU1779
 5733 0134 EC60     		str	r4, [r5, #12]
 869:Drivers/display_ILI-93xx_sm/lcd.c **** }
 5734              		.loc 1 869 2 is_stmt 1 view .LVU1780
ARM GAS  /tmp/cc47Teva.s 			page 155


 869:Drivers/display_ILI-93xx_sm/lcd.c **** }
 5735              		.loc 1 869 2 view .LVU1781
 5736 0136 4FF40030 		mov	r0, #131072
 5737 013a 3061     		str	r0, [r6, #16]
 869:Drivers/display_ILI-93xx_sm/lcd.c **** }
 5738              		.loc 1 869 2 view .LVU1782
 5739              	.LVL354:
 5740              	.LBB616:
 5741              	.LBI616:
 668:Drivers/display_ILI-93xx_sm/lcd.c **** 	for (; t; t--) __asm("nop");
 5742              		.loc 1 668 13 view .LVU1783
 5743              	.LBB617:
 669:Drivers/display_ILI-93xx_sm/lcd.c **** }
 5744              		.loc 1 669 2 view .LVU1784
 5745              	.LBE617:
 5746              	.LBE616:
 869:Drivers/display_ILI-93xx_sm/lcd.c **** }
 5747              		.loc 1 869 2 is_stmt 0 view .LVU1785
 5748 013c 0220     		movs	r0, #2
 5749              	.LVL355:
 5750              	.L280:
 5751              	.LBB619:
 5752              	.LBB618:
 669:Drivers/display_ILI-93xx_sm/lcd.c **** }
 5753              		.loc 1 669 2 view .LVU1786
 5754 013e 10B1     		cbz	r0, .L317
 669:Drivers/display_ILI-93xx_sm/lcd.c **** }
 5755              		.loc 1 669 17 is_stmt 1 view .LVU1787
 5756              		.syntax unified
 5757              	@ 669 "Drivers/display_ILI-93xx_sm/lcd.c" 1
 5758 0140 00BF     		nop
 5759              	@ 0 "" 2
 669:Drivers/display_ILI-93xx_sm/lcd.c **** }
 5760              		.loc 1 669 13 is_stmt 0 view .LVU1788
 5761              		.thumb
 5762              		.syntax unified
 5763 0142 0138     		subs	r0, r0, #1
 5764              	.LVL356:
 669:Drivers/display_ILI-93xx_sm/lcd.c **** }
 5765              		.loc 1 669 13 view .LVU1789
 5766 0144 FBE7     		b	.L280
 5767              	.L317:
 5768              	.LVL357:
 669:Drivers/display_ILI-93xx_sm/lcd.c **** }
 5769              		.loc 1 669 13 view .LVU1790
 5770              	.LBE618:
 5771              	.LBE619:
 869:Drivers/display_ILI-93xx_sm/lcd.c **** }
 5772              		.loc 1 869 2 is_stmt 1 view .LVU1791
 5773 0146 0220     		movs	r0, #2
 5774 0148 544C     		ldr	r4, .L332+4
 5775 014a 2061     		str	r0, [r4, #16]
 869:Drivers/display_ILI-93xx_sm/lcd.c **** }
 5776              		.loc 1 869 2 view .LVU1792
 5777              	.LVL358:
 5778              	.LBB620:
 5779              	.LBI620:
ARM GAS  /tmp/cc47Teva.s 			page 156


 668:Drivers/display_ILI-93xx_sm/lcd.c **** 	for (; t; t--) __asm("nop");
 5780              		.loc 1 668 13 view .LVU1793
 5781              	.L282:
 5782              	.LBB621:
 669:Drivers/display_ILI-93xx_sm/lcd.c **** }
 5783              		.loc 1 669 2 is_stmt 0 view .LVU1794
 5784 014c 10B1     		cbz	r0, .L318
 669:Drivers/display_ILI-93xx_sm/lcd.c **** }
 5785              		.loc 1 669 17 is_stmt 1 view .LVU1795
 5786              		.syntax unified
 5787              	@ 669 "Drivers/display_ILI-93xx_sm/lcd.c" 1
 5788 014e 00BF     		nop
 5789              	@ 0 "" 2
 669:Drivers/display_ILI-93xx_sm/lcd.c **** }
 5790              		.loc 1 669 13 is_stmt 0 view .LVU1796
 5791              		.thumb
 5792              		.syntax unified
 5793 0150 0138     		subs	r0, r0, #1
 5794              	.LVL359:
 669:Drivers/display_ILI-93xx_sm/lcd.c **** }
 5795              		.loc 1 669 13 view .LVU1797
 5796 0152 FBE7     		b	.L282
 5797              	.L318:
 5798              	.LVL360:
 669:Drivers/display_ILI-93xx_sm/lcd.c **** }
 5799              		.loc 1 669 13 view .LVU1798
 5800              	.LBE621:
 5801              	.LBE620:
 5802              	.LBE615:
 5803              	.LBE614:
 969:Drivers/display_ILI-93xx_sm/lcd.c **** 	LCD_Write8(d);
 5804              		.loc 1 969 2 is_stmt 1 view .LVU1799
 5805 0154 C2F30724 		ubfx	r4, r2, #8, #8
 5806              	.LBB622:
 5807              	.LBI622:
 847:Drivers/display_ILI-93xx_sm/lcd.c **** 	// ------ PORT -----     --- Data ----
 5808              		.loc 1 847 13 view .LVU1800
 5809              	.LBB623:
 860:Drivers/display_ILI-93xx_sm/lcd.c **** 	GPIOB->ODR = (GPIOB->ODR & 0xFBC7) | (data & 0x08) | ((data & 0x10) << 1) | ((data & 0x20) >> 1) |
 5810              		.loc 1 860 2 view .LVU1801
 860:Drivers/display_ILI-93xx_sm/lcd.c **** 	GPIOB->ODR = (GPIOB->ODR & 0xFBC7) | (data & 0x08) | ((data & 0x10) << 1) | ((data & 0x20) >> 1) |
 5811              		.loc 1 860 21 is_stmt 0 view .LVU1802
 5812 0158 504E     		ldr	r6, .L332+4
 5813 015a F068     		ldr	r0, [r6, #12]
 860:Drivers/display_ILI-93xx_sm/lcd.c **** 	GPIOB->ODR = (GPIOB->ODR & 0xFBC7) | (data & 0x08) | ((data & 0x10) << 1) | ((data & 0x20) >> 1) |
 5814              		.loc 1 860 27 view .LVU1803
 5815 015c 20F4F060 		bic	r0, r0, #1920
 5816 0160 0004     		lsls	r0, r0, #16
 5817 0162 000C     		lsrs	r0, r0, #16
 860:Drivers/display_ILI-93xx_sm/lcd.c **** 	GPIOB->ODR = (GPIOB->ODR & 0xFBC7) | (data & 0x08) | ((data & 0x10) << 1) | ((data & 0x20) >> 1) |
 5818              		.loc 1 860 54 view .LVU1804
 5819 0164 6502     		lsls	r5, r4, #9
 5820 0166 05F40075 		and	r5, r5, #512
 860:Drivers/display_ILI-93xx_sm/lcd.c **** 	GPIOB->ODR = (GPIOB->ODR & 0xFBC7) | (data & 0x08) | ((data & 0x10) << 1) | ((data & 0x20) >> 1) |
 5821              		.loc 1 860 37 view .LVU1805
 5822 016a 2843     		orrs	r0, r0, r5
 860:Drivers/display_ILI-93xx_sm/lcd.c **** 	GPIOB->ODR = (GPIOB->ODR & 0xFBC7) | (data & 0x08) | ((data & 0x10) << 1) | ((data & 0x20) >> 1) |
ARM GAS  /tmp/cc47Teva.s 			page 157


 5823              		.loc 1 860 77 view .LVU1806
 5824 016c 2502     		lsls	r5, r4, #8
 5825 016e 05F48065 		and	r5, r5, #1024
 860:Drivers/display_ILI-93xx_sm/lcd.c **** 	GPIOB->ODR = (GPIOB->ODR & 0xFBC7) | (data & 0x08) | ((data & 0x10) << 1) | ((data & 0x20) >> 1) |
 5826              		.loc 1 860 60 view .LVU1807
 5827 0172 2843     		orrs	r0, r0, r5
 860:Drivers/display_ILI-93xx_sm/lcd.c **** 	GPIOB->ODR = (GPIOB->ODR & 0xFBC7) | (data & 0x08) | ((data & 0x10) << 1) | ((data & 0x20) >> 1) |
 5828              		.loc 1 860 100 view .LVU1808
 5829 0174 6700     		lsls	r7, r4, #1
 5830 0176 07F48075 		and	r5, r7, #256
 860:Drivers/display_ILI-93xx_sm/lcd.c **** 	GPIOB->ODR = (GPIOB->ODR & 0xFBC7) | (data & 0x08) | ((data & 0x10) << 1) | ((data & 0x20) >> 1) |
 5831              		.loc 1 860 83 view .LVU1809
 5832 017a 2843     		orrs	r0, r0, r5
 860:Drivers/display_ILI-93xx_sm/lcd.c **** 	GPIOB->ODR = (GPIOB->ODR & 0xFBC7) | (data & 0x08) | ((data & 0x10) << 1) | ((data & 0x20) >> 1) |
 5833              		.loc 1 860 123 view .LVU1810
 5834 017c A501     		lsls	r5, r4, #6
 5835 017e 05F08005 		and	r5, r5, #128
 860:Drivers/display_ILI-93xx_sm/lcd.c **** 	GPIOB->ODR = (GPIOB->ODR & 0xFBC7) | (data & 0x08) | ((data & 0x10) << 1) | ((data & 0x20) >> 1) |
 5836              		.loc 1 860 106 view .LVU1811
 5837 0182 2843     		orrs	r0, r0, r5
 860:Drivers/display_ILI-93xx_sm/lcd.c **** 	GPIOB->ODR = (GPIOB->ODR & 0xFBC7) | (data & 0x08) | ((data & 0x10) << 1) | ((data & 0x20) >> 1) |
 5838              		.loc 1 860 13 view .LVU1812
 5839 0184 F060     		str	r0, [r6, #12]
 861:Drivers/display_ILI-93xx_sm/lcd.c **** #else
 5840              		.loc 1 861 2 is_stmt 1 view .LVU1813
 861:Drivers/display_ILI-93xx_sm/lcd.c **** #else
 5841              		.loc 1 861 21 is_stmt 0 view .LVU1814
 5842 0186 4448     		ldr	r0, .L332
 5843 0188 C568     		ldr	r5, [r0, #12]
 861:Drivers/display_ILI-93xx_sm/lcd.c **** #else
 5844              		.loc 1 861 27 view .LVU1815
 5845 018a 25F48765 		bic	r5, r5, #1080
 5846 018e 2D04     		lsls	r5, r5, #16
 5847 0190 2D0C     		lsrs	r5, r5, #16
 861:Drivers/display_ILI-93xx_sm/lcd.c **** #else
 5848              		.loc 1 861 45 view .LVU1816
 5849 0192 04F0080C 		and	ip, r4, #8
 861:Drivers/display_ILI-93xx_sm/lcd.c **** #else
 5850              		.loc 1 861 37 view .LVU1817
 5851 0196 45EA0C05 		orr	r5, r5, ip
 861:Drivers/display_ILI-93xx_sm/lcd.c **** #else
 5852              		.loc 1 861 70 view .LVU1818
 5853 019a 07F02007 		and	r7, r7, #32
 861:Drivers/display_ILI-93xx_sm/lcd.c **** #else
 5854              		.loc 1 861 53 view .LVU1819
 5855 019e 3D43     		orrs	r5, r5, r7
 861:Drivers/display_ILI-93xx_sm/lcd.c **** #else
 5856              		.loc 1 861 93 view .LVU1820
 5857 01a0 6710     		asrs	r7, r4, #1
 5858 01a2 07F01007 		and	r7, r7, #16
 861:Drivers/display_ILI-93xx_sm/lcd.c **** #else
 5859              		.loc 1 861 76 view .LVU1821
 5860 01a6 3D43     		orrs	r5, r5, r7
 861:Drivers/display_ILI-93xx_sm/lcd.c **** #else
 5861              		.loc 1 861 116 view .LVU1822
 5862 01a8 2401     		lsls	r4, r4, #4
 5863 01aa 04F48064 		and	r4, r4, #1024
ARM GAS  /tmp/cc47Teva.s 			page 158


 861:Drivers/display_ILI-93xx_sm/lcd.c **** #else
 5864              		.loc 1 861 99 view .LVU1823
 5865 01ae 2C43     		orrs	r4, r4, r5
 861:Drivers/display_ILI-93xx_sm/lcd.c **** #else
 5866              		.loc 1 861 13 view .LVU1824
 5867 01b0 C460     		str	r4, [r0, #12]
 869:Drivers/display_ILI-93xx_sm/lcd.c **** }
 5868              		.loc 1 869 2 is_stmt 1 view .LVU1825
 869:Drivers/display_ILI-93xx_sm/lcd.c **** }
 5869              		.loc 1 869 2 view .LVU1826
 5870 01b2 4FF40030 		mov	r0, #131072
 5871 01b6 3061     		str	r0, [r6, #16]
 869:Drivers/display_ILI-93xx_sm/lcd.c **** }
 5872              		.loc 1 869 2 view .LVU1827
 5873              	.LVL361:
 5874              	.LBB624:
 5875              	.LBI624:
 668:Drivers/display_ILI-93xx_sm/lcd.c **** 	for (; t; t--) __asm("nop");
 5876              		.loc 1 668 13 view .LVU1828
 5877              	.LBB625:
 669:Drivers/display_ILI-93xx_sm/lcd.c **** }
 5878              		.loc 1 669 2 view .LVU1829
 5879              	.LBE625:
 5880              	.LBE624:
 869:Drivers/display_ILI-93xx_sm/lcd.c **** }
 5881              		.loc 1 869 2 is_stmt 0 view .LVU1830
 5882 01b8 0220     		movs	r0, #2
 5883              	.LVL362:
 5884              	.L284:
 5885              	.LBB627:
 5886              	.LBB626:
 669:Drivers/display_ILI-93xx_sm/lcd.c **** }
 5887              		.loc 1 669 2 view .LVU1831
 5888 01ba 10B1     		cbz	r0, .L319
 669:Drivers/display_ILI-93xx_sm/lcd.c **** }
 5889              		.loc 1 669 17 is_stmt 1 view .LVU1832
 5890              		.syntax unified
 5891              	@ 669 "Drivers/display_ILI-93xx_sm/lcd.c" 1
 5892 01bc 00BF     		nop
 5893              	@ 0 "" 2
 669:Drivers/display_ILI-93xx_sm/lcd.c **** }
 5894              		.loc 1 669 13 is_stmt 0 view .LVU1833
 5895              		.thumb
 5896              		.syntax unified
 5897 01be 0138     		subs	r0, r0, #1
 5898              	.LVL363:
 669:Drivers/display_ILI-93xx_sm/lcd.c **** }
 5899              		.loc 1 669 13 view .LVU1834
 5900 01c0 FBE7     		b	.L284
 5901              	.L319:
 5902              	.LVL364:
 669:Drivers/display_ILI-93xx_sm/lcd.c **** }
 5903              		.loc 1 669 13 view .LVU1835
 5904              	.LBE626:
 5905              	.LBE627:
 869:Drivers/display_ILI-93xx_sm/lcd.c **** }
 5906              		.loc 1 869 2 is_stmt 1 view .LVU1836
ARM GAS  /tmp/cc47Teva.s 			page 159


 5907 01c2 0220     		movs	r0, #2
 5908 01c4 354C     		ldr	r4, .L332+4
 5909 01c6 2061     		str	r0, [r4, #16]
 869:Drivers/display_ILI-93xx_sm/lcd.c **** }
 5910              		.loc 1 869 2 view .LVU1837
 5911              	.LVL365:
 5912              	.LBB628:
 5913              	.LBI628:
 668:Drivers/display_ILI-93xx_sm/lcd.c **** 	for (; t; t--) __asm("nop");
 5914              		.loc 1 668 13 view .LVU1838
 5915 01c8 01E0     		b	.L286
 5916              	.LVL366:
 5917              	.L287:
 5918              	.LBB629:
 669:Drivers/display_ILI-93xx_sm/lcd.c **** }
 5919              		.loc 1 669 17 view .LVU1839
 5920              		.syntax unified
 5921              	@ 669 "Drivers/display_ILI-93xx_sm/lcd.c" 1
 5922 01ca 00BF     		nop
 5923              	@ 0 "" 2
 669:Drivers/display_ILI-93xx_sm/lcd.c **** }
 5924              		.loc 1 669 13 is_stmt 0 view .LVU1840
 5925              		.thumb
 5926              		.syntax unified
 5927 01cc 0138     		subs	r0, r0, #1
 5928              	.LVL367:
 5929              	.L286:
 669:Drivers/display_ILI-93xx_sm/lcd.c **** }
 5930              		.loc 1 669 2 view .LVU1841
 5931 01ce 0028     		cmp	r0, #0
 5932 01d0 FBD1     		bne	.L287
 5933              	.LVL368:
 669:Drivers/display_ILI-93xx_sm/lcd.c **** }
 5934              		.loc 1 669 2 view .LVU1842
 5935              	.LBE629:
 5936              	.LBE628:
 5937              	.LBE623:
 5938              	.LBE622:
 970:Drivers/display_ILI-93xx_sm/lcd.c **** }
 5939              		.loc 1 970 2 is_stmt 1 view .LVU1843
 5940 01d2 D2B2     		uxtb	r2, r2
 5941              	.LVL369:
 5942              	.LBB630:
 5943              	.LBI630:
 847:Drivers/display_ILI-93xx_sm/lcd.c **** 	// ------ PORT -----     --- Data ----
 5944              		.loc 1 847 13 view .LVU1844
 5945              	.LBB631:
 860:Drivers/display_ILI-93xx_sm/lcd.c **** 	GPIOB->ODR = (GPIOB->ODR & 0xFBC7) | (data & 0x08) | ((data & 0x10) << 1) | ((data & 0x20) >> 1) |
 5946              		.loc 1 860 2 view .LVU1845
 860:Drivers/display_ILI-93xx_sm/lcd.c **** 	GPIOB->ODR = (GPIOB->ODR & 0xFBC7) | (data & 0x08) | ((data & 0x10) << 1) | ((data & 0x20) >> 1) |
 5947              		.loc 1 860 21 is_stmt 0 view .LVU1846
 5948 01d4 314D     		ldr	r5, .L332+4
 5949 01d6 E868     		ldr	r0, [r5, #12]
 860:Drivers/display_ILI-93xx_sm/lcd.c **** 	GPIOB->ODR = (GPIOB->ODR & 0xFBC7) | (data & 0x08) | ((data & 0x10) << 1) | ((data & 0x20) >> 1) |
 5950              		.loc 1 860 27 view .LVU1847
 5951 01d8 20F4F060 		bic	r0, r0, #1920
 5952 01dc 0004     		lsls	r0, r0, #16
ARM GAS  /tmp/cc47Teva.s 			page 160


 5953 01de 000C     		lsrs	r0, r0, #16
 860:Drivers/display_ILI-93xx_sm/lcd.c **** 	GPIOB->ODR = (GPIOB->ODR & 0xFBC7) | (data & 0x08) | ((data & 0x10) << 1) | ((data & 0x20) >> 1) |
 5954              		.loc 1 860 54 view .LVU1848
 5955 01e0 5402     		lsls	r4, r2, #9
 5956 01e2 04F40074 		and	r4, r4, #512
 860:Drivers/display_ILI-93xx_sm/lcd.c **** 	GPIOB->ODR = (GPIOB->ODR & 0xFBC7) | (data & 0x08) | ((data & 0x10) << 1) | ((data & 0x20) >> 1) |
 5957              		.loc 1 860 37 view .LVU1849
 5958 01e6 2043     		orrs	r0, r0, r4
 860:Drivers/display_ILI-93xx_sm/lcd.c **** 	GPIOB->ODR = (GPIOB->ODR & 0xFBC7) | (data & 0x08) | ((data & 0x10) << 1) | ((data & 0x20) >> 1) |
 5959              		.loc 1 860 77 view .LVU1850
 5960 01e8 1402     		lsls	r4, r2, #8
 5961 01ea 04F48064 		and	r4, r4, #1024
 860:Drivers/display_ILI-93xx_sm/lcd.c **** 	GPIOB->ODR = (GPIOB->ODR & 0xFBC7) | (data & 0x08) | ((data & 0x10) << 1) | ((data & 0x20) >> 1) |
 5962              		.loc 1 860 60 view .LVU1851
 5963 01ee 2043     		orrs	r0, r0, r4
 860:Drivers/display_ILI-93xx_sm/lcd.c **** 	GPIOB->ODR = (GPIOB->ODR & 0xFBC7) | (data & 0x08) | ((data & 0x10) << 1) | ((data & 0x20) >> 1) |
 5964              		.loc 1 860 100 view .LVU1852
 5965 01f0 5600     		lsls	r6, r2, #1
 5966 01f2 06F48074 		and	r4, r6, #256
 860:Drivers/display_ILI-93xx_sm/lcd.c **** 	GPIOB->ODR = (GPIOB->ODR & 0xFBC7) | (data & 0x08) | ((data & 0x10) << 1) | ((data & 0x20) >> 1) |
 5967              		.loc 1 860 83 view .LVU1853
 5968 01f6 2043     		orrs	r0, r0, r4
 860:Drivers/display_ILI-93xx_sm/lcd.c **** 	GPIOB->ODR = (GPIOB->ODR & 0xFBC7) | (data & 0x08) | ((data & 0x10) << 1) | ((data & 0x20) >> 1) |
 5969              		.loc 1 860 123 view .LVU1854
 5970 01f8 9401     		lsls	r4, r2, #6
 5971 01fa 04F08004 		and	r4, r4, #128
 860:Drivers/display_ILI-93xx_sm/lcd.c **** 	GPIOB->ODR = (GPIOB->ODR & 0xFBC7) | (data & 0x08) | ((data & 0x10) << 1) | ((data & 0x20) >> 1) |
 5972              		.loc 1 860 106 view .LVU1855
 5973 01fe 2043     		orrs	r0, r0, r4
 860:Drivers/display_ILI-93xx_sm/lcd.c **** 	GPIOB->ODR = (GPIOB->ODR & 0xFBC7) | (data & 0x08) | ((data & 0x10) << 1) | ((data & 0x20) >> 1) |
 5974              		.loc 1 860 13 view .LVU1856
 5975 0200 E860     		str	r0, [r5, #12]
 861:Drivers/display_ILI-93xx_sm/lcd.c **** #else
 5976              		.loc 1 861 2 is_stmt 1 view .LVU1857
 861:Drivers/display_ILI-93xx_sm/lcd.c **** #else
 5977              		.loc 1 861 21 is_stmt 0 view .LVU1858
 5978 0202 2548     		ldr	r0, .L332
 5979 0204 C468     		ldr	r4, [r0, #12]
 861:Drivers/display_ILI-93xx_sm/lcd.c **** #else
 5980              		.loc 1 861 27 view .LVU1859
 5981 0206 24F48764 		bic	r4, r4, #1080
 5982 020a 2404     		lsls	r4, r4, #16
 5983 020c 240C     		lsrs	r4, r4, #16
 861:Drivers/display_ILI-93xx_sm/lcd.c **** #else
 5984              		.loc 1 861 45 view .LVU1860
 5985 020e 02F00807 		and	r7, r2, #8
 861:Drivers/display_ILI-93xx_sm/lcd.c **** #else
 5986              		.loc 1 861 37 view .LVU1861
 5987 0212 3C43     		orrs	r4, r4, r7
 861:Drivers/display_ILI-93xx_sm/lcd.c **** #else
 5988              		.loc 1 861 70 view .LVU1862
 5989 0214 06F02006 		and	r6, r6, #32
 861:Drivers/display_ILI-93xx_sm/lcd.c **** #else
 5990              		.loc 1 861 53 view .LVU1863
 5991 0218 3443     		orrs	r4, r4, r6
 861:Drivers/display_ILI-93xx_sm/lcd.c **** #else
 5992              		.loc 1 861 93 view .LVU1864
ARM GAS  /tmp/cc47Teva.s 			page 161


 5993 021a 5610     		asrs	r6, r2, #1
 5994 021c 06F01006 		and	r6, r6, #16
 861:Drivers/display_ILI-93xx_sm/lcd.c **** #else
 5995              		.loc 1 861 76 view .LVU1865
 5996 0220 3443     		orrs	r4, r4, r6
 861:Drivers/display_ILI-93xx_sm/lcd.c **** #else
 5997              		.loc 1 861 116 view .LVU1866
 5998 0222 1201     		lsls	r2, r2, #4
 5999              	.LVL370:
 861:Drivers/display_ILI-93xx_sm/lcd.c **** #else
 6000              		.loc 1 861 116 view .LVU1867
 6001 0224 02F48062 		and	r2, r2, #1024
 861:Drivers/display_ILI-93xx_sm/lcd.c **** #else
 6002              		.loc 1 861 99 view .LVU1868
 6003 0228 2243     		orrs	r2, r2, r4
 861:Drivers/display_ILI-93xx_sm/lcd.c **** #else
 6004              		.loc 1 861 13 view .LVU1869
 6005 022a C260     		str	r2, [r0, #12]
 869:Drivers/display_ILI-93xx_sm/lcd.c **** }
 6006              		.loc 1 869 2 is_stmt 1 view .LVU1870
 869:Drivers/display_ILI-93xx_sm/lcd.c **** }
 6007              		.loc 1 869 2 view .LVU1871
 6008 022c 4FF40032 		mov	r2, #131072
 6009 0230 2A61     		str	r2, [r5, #16]
 869:Drivers/display_ILI-93xx_sm/lcd.c **** }
 6010              		.loc 1 869 2 view .LVU1872
 6011              	.LVL371:
 6012              	.LBB632:
 6013              	.LBI632:
 668:Drivers/display_ILI-93xx_sm/lcd.c **** 	for (; t; t--) __asm("nop");
 6014              		.loc 1 668 13 view .LVU1873
 6015              	.LBB633:
 669:Drivers/display_ILI-93xx_sm/lcd.c **** }
 6016              		.loc 1 669 2 view .LVU1874
 6017              	.LBE633:
 6018              	.LBE632:
 869:Drivers/display_ILI-93xx_sm/lcd.c **** }
 6019              		.loc 1 869 2 is_stmt 0 view .LVU1875
 6020 0232 0222     		movs	r2, #2
 6021              	.LVL372:
 6022              	.L288:
 6023              	.LBB635:
 6024              	.LBB634:
 669:Drivers/display_ILI-93xx_sm/lcd.c **** }
 6025              		.loc 1 669 2 view .LVU1876
 6026 0234 12B1     		cbz	r2, .L320
 669:Drivers/display_ILI-93xx_sm/lcd.c **** }
 6027              		.loc 1 669 17 is_stmt 1 view .LVU1877
 6028              		.syntax unified
 6029              	@ 669 "Drivers/display_ILI-93xx_sm/lcd.c" 1
 6030 0236 00BF     		nop
 6031              	@ 0 "" 2
 669:Drivers/display_ILI-93xx_sm/lcd.c **** }
 6032              		.loc 1 669 13 is_stmt 0 view .LVU1878
 6033              		.thumb
 6034              		.syntax unified
 6035 0238 013A     		subs	r2, r2, #1
ARM GAS  /tmp/cc47Teva.s 			page 162


 6036              	.LVL373:
 669:Drivers/display_ILI-93xx_sm/lcd.c **** }
 6037              		.loc 1 669 13 view .LVU1879
 6038 023a FBE7     		b	.L288
 6039              	.L320:
 6040              	.LVL374:
 669:Drivers/display_ILI-93xx_sm/lcd.c **** }
 6041              		.loc 1 669 13 view .LVU1880
 6042              	.LBE634:
 6043              	.LBE635:
 869:Drivers/display_ILI-93xx_sm/lcd.c **** }
 6044              		.loc 1 869 2 is_stmt 1 view .LVU1881
 6045 023c 0222     		movs	r2, #2
 6046 023e 1748     		ldr	r0, .L332+4
 6047 0240 0261     		str	r2, [r0, #16]
 869:Drivers/display_ILI-93xx_sm/lcd.c **** }
 6048              		.loc 1 869 2 view .LVU1882
 6049              	.LVL375:
 6050              	.LBB636:
 6051              	.LBI636:
 668:Drivers/display_ILI-93xx_sm/lcd.c **** 	for (; t; t--) __asm("nop");
 6052              		.loc 1 668 13 view .LVU1883
 6053              	.L290:
 6054              	.LBB637:
 669:Drivers/display_ILI-93xx_sm/lcd.c **** }
 6055              		.loc 1 669 2 is_stmt 0 view .LVU1884
 6056 0242 12B1     		cbz	r2, .L321
 669:Drivers/display_ILI-93xx_sm/lcd.c **** }
 6057              		.loc 1 669 17 is_stmt 1 view .LVU1885
 6058              		.syntax unified
 6059              	@ 669 "Drivers/display_ILI-93xx_sm/lcd.c" 1
 6060 0244 00BF     		nop
 6061              	@ 0 "" 2
 669:Drivers/display_ILI-93xx_sm/lcd.c **** }
 6062              		.loc 1 669 13 is_stmt 0 view .LVU1886
 6063              		.thumb
 6064              		.syntax unified
 6065 0246 013A     		subs	r2, r2, #1
 6066              	.LVL376:
 669:Drivers/display_ILI-93xx_sm/lcd.c **** }
 6067              		.loc 1 669 13 view .LVU1887
 6068 0248 FBE7     		b	.L290
 6069              	.L321:
 6070              	.LVL377:
 669:Drivers/display_ILI-93xx_sm/lcd.c **** }
 6071              		.loc 1 669 13 view .LVU1888
 6072              	.LBE637:
 6073              	.LBE636:
 6074              	.LBE631:
 6075              	.LBE630:
 6076              	.LBE597:
 6077              	.LBE596:
1566:Drivers/display_ILI-93xx_sm/lcd.c **** 	LCD_Write32Register8(ILI9341_PAGEADDRSET, (y1 << 16) | y2);
 6078              		.loc 1 1566 2 is_stmt 1 view .LVU1889
 6079              		.loc 1 1566 55 is_stmt 0 view .LVU1890
 6080 024a 43EA0143 		orr	r3, r3, r1, lsl #16
 6081              	.LVL378:
ARM GAS  /tmp/cc47Teva.s 			page 163


 6082              	.LBB638:
 6083              	.LBI638:
 963:Drivers/display_ILI-93xx_sm/lcd.c **** 	LCD_CD_COMMAND();
 6084              		.loc 1 963 13 is_stmt 1 view .LVU1891
 6085              	.LBB639:
 964:Drivers/display_ILI-93xx_sm/lcd.c **** 	LCD_Write8(a);
 6086              		.loc 1 964 2 view .LVU1892
 6087 024e 1349     		ldr	r1, .L332+4
 6088              	.LVL379:
 964:Drivers/display_ILI-93xx_sm/lcd.c **** 	LCD_Write8(a);
 6089              		.loc 1 964 2 is_stmt 0 view .LVU1893
 6090 0250 4FF48012 		mov	r2, #1048576
 6091 0254 0A61     		str	r2, [r1, #16]
 965:Drivers/display_ILI-93xx_sm/lcd.c **** 	LCD_CD_DATA();
 6092              		.loc 1 965 2 is_stmt 1 view .LVU1894
 6093              	.LVL380:
 6094              	.LBB640:
 6095              	.LBI640:
 847:Drivers/display_ILI-93xx_sm/lcd.c **** 	// ------ PORT -----     --- Data ----
 6096              		.loc 1 847 13 view .LVU1895
 6097              	.LBB641:
 860:Drivers/display_ILI-93xx_sm/lcd.c **** 	GPIOB->ODR = (GPIOB->ODR & 0xFBC7) | (data & 0x08) | ((data & 0x10) << 1) | ((data & 0x20) >> 1) |
 6098              		.loc 1 860 2 view .LVU1896
 860:Drivers/display_ILI-93xx_sm/lcd.c **** 	GPIOB->ODR = (GPIOB->ODR & 0xFBC7) | (data & 0x08) | ((data & 0x10) << 1) | ((data & 0x20) >> 1) |
 6099              		.loc 1 860 21 is_stmt 0 view .LVU1897
 6100 0256 CA68     		ldr	r2, [r1, #12]
 860:Drivers/display_ILI-93xx_sm/lcd.c **** 	GPIOB->ODR = (GPIOB->ODR & 0xFBC7) | (data & 0x08) | ((data & 0x10) << 1) | ((data & 0x20) >> 1) |
 6101              		.loc 1 860 27 view .LVU1898
 6102 0258 22F4F062 		bic	r2, r2, #1920
 6103 025c 1204     		lsls	r2, r2, #16
 6104 025e 120C     		lsrs	r2, r2, #16
 860:Drivers/display_ILI-93xx_sm/lcd.c **** 	GPIOB->ODR = (GPIOB->ODR & 0xFBC7) | (data & 0x08) | ((data & 0x10) << 1) | ((data & 0x20) >> 1) |
 6105              		.loc 1 860 106 view .LVU1899
 6106 0260 42F42072 		orr	r2, r2, #640
 860:Drivers/display_ILI-93xx_sm/lcd.c **** 	GPIOB->ODR = (GPIOB->ODR & 0xFBC7) | (data & 0x08) | ((data & 0x10) << 1) | ((data & 0x20) >> 1) |
 6107              		.loc 1 860 13 view .LVU1900
 6108 0264 CA60     		str	r2, [r1, #12]
 861:Drivers/display_ILI-93xx_sm/lcd.c **** #else
 6109              		.loc 1 861 2 is_stmt 1 view .LVU1901
 861:Drivers/display_ILI-93xx_sm/lcd.c **** #else
 6110              		.loc 1 861 21 is_stmt 0 view .LVU1902
 6111 0266 0C48     		ldr	r0, .L332
 6112 0268 C268     		ldr	r2, [r0, #12]
 861:Drivers/display_ILI-93xx_sm/lcd.c **** #else
 6113              		.loc 1 861 27 view .LVU1903
 6114 026a 22F48762 		bic	r2, r2, #1080
 6115 026e 1204     		lsls	r2, r2, #16
 6116 0270 120C     		lsrs	r2, r2, #16
 861:Drivers/display_ILI-93xx_sm/lcd.c **** #else
 6117              		.loc 1 861 76 view .LVU1904
 6118 0272 42F01802 		orr	r2, r2, #24
 861:Drivers/display_ILI-93xx_sm/lcd.c **** #else
 6119              		.loc 1 861 13 view .LVU1905
 6120 0276 C260     		str	r2, [r0, #12]
 869:Drivers/display_ILI-93xx_sm/lcd.c **** }
 6121              		.loc 1 869 2 is_stmt 1 view .LVU1906
 869:Drivers/display_ILI-93xx_sm/lcd.c **** }
ARM GAS  /tmp/cc47Teva.s 			page 164


 6122              		.loc 1 869 2 view .LVU1907
 6123 0278 4FF40032 		mov	r2, #131072
 6124 027c 0A61     		str	r2, [r1, #16]
 869:Drivers/display_ILI-93xx_sm/lcd.c **** }
 6125              		.loc 1 869 2 view .LVU1908
 6126              	.LVL381:
 6127              	.LBB642:
 6128              	.LBI642:
 668:Drivers/display_ILI-93xx_sm/lcd.c **** 	for (; t; t--) __asm("nop");
 6129              		.loc 1 668 13 view .LVU1909
 6130              	.LBB643:
 669:Drivers/display_ILI-93xx_sm/lcd.c **** }
 6131              		.loc 1 669 2 view .LVU1910
 6132              	.LBE643:
 6133              	.LBE642:
 869:Drivers/display_ILI-93xx_sm/lcd.c **** }
 6134              		.loc 1 869 2 is_stmt 0 view .LVU1911
 6135 027e 0222     		movs	r2, #2
 6136              	.LVL382:
 6137              	.L292:
 6138              	.LBB645:
 6139              	.LBB644:
 669:Drivers/display_ILI-93xx_sm/lcd.c **** }
 6140              		.loc 1 669 2 view .LVU1912
 6141 0280 12B1     		cbz	r2, .L322
 669:Drivers/display_ILI-93xx_sm/lcd.c **** }
 6142              		.loc 1 669 17 is_stmt 1 view .LVU1913
 6143              		.syntax unified
 6144              	@ 669 "Drivers/display_ILI-93xx_sm/lcd.c" 1
 6145 0282 00BF     		nop
 6146              	@ 0 "" 2
 669:Drivers/display_ILI-93xx_sm/lcd.c **** }
 6147              		.loc 1 669 13 is_stmt 0 view .LVU1914
 6148              		.thumb
 6149              		.syntax unified
 6150 0284 013A     		subs	r2, r2, #1
 6151              	.LVL383:
 669:Drivers/display_ILI-93xx_sm/lcd.c **** }
 6152              		.loc 1 669 13 view .LVU1915
 6153 0286 FBE7     		b	.L292
 6154              	.L322:
 6155              	.LVL384:
 669:Drivers/display_ILI-93xx_sm/lcd.c **** }
 6156              		.loc 1 669 13 view .LVU1916
 6157              	.LBE644:
 6158              	.LBE645:
 869:Drivers/display_ILI-93xx_sm/lcd.c **** }
 6159              		.loc 1 869 2 is_stmt 1 view .LVU1917
 6160 0288 0222     		movs	r2, #2
 6161 028a 0449     		ldr	r1, .L332+4
 6162 028c 0A61     		str	r2, [r1, #16]
 869:Drivers/display_ILI-93xx_sm/lcd.c **** }
 6163              		.loc 1 869 2 view .LVU1918
 6164              	.LVL385:
 6165              	.LBB646:
 6166              	.LBI646:
 668:Drivers/display_ILI-93xx_sm/lcd.c **** 	for (; t; t--) __asm("nop");
ARM GAS  /tmp/cc47Teva.s 			page 165


 6167              		.loc 1 668 13 view .LVU1919
 6168              	.L294:
 6169              	.LBB647:
 669:Drivers/display_ILI-93xx_sm/lcd.c **** }
 6170              		.loc 1 669 2 is_stmt 0 view .LVU1920
 6171 028e 3AB1     		cbz	r2, .L323
 669:Drivers/display_ILI-93xx_sm/lcd.c **** }
 6172              		.loc 1 669 17 is_stmt 1 view .LVU1921
 6173              		.syntax unified
 6174              	@ 669 "Drivers/display_ILI-93xx_sm/lcd.c" 1
 6175 0290 00BF     		nop
 6176              	@ 0 "" 2
 669:Drivers/display_ILI-93xx_sm/lcd.c **** }
 6177              		.loc 1 669 13 is_stmt 0 view .LVU1922
 6178              		.thumb
 6179              		.syntax unified
 6180 0292 013A     		subs	r2, r2, #1
 6181              	.LVL386:
 669:Drivers/display_ILI-93xx_sm/lcd.c **** }
 6182              		.loc 1 669 13 view .LVU1923
 6183 0294 FBE7     		b	.L294
 6184              	.L333:
 6185 0296 00BF     		.align	2
 6186              	.L332:
 6187 0298 000C0140 		.word	1073810432
 6188 029c 00080140 		.word	1073809408
 6189              	.L323:
 6190              	.LVL387:
 669:Drivers/display_ILI-93xx_sm/lcd.c **** }
 6191              		.loc 1 669 13 view .LVU1924
 6192              	.LBE647:
 6193              	.LBE646:
 6194              	.LBE641:
 6195              	.LBE640:
 966:Drivers/display_ILI-93xx_sm/lcd.c **** 	LCD_Write8(d >> 24);
 6196              		.loc 1 966 2 is_stmt 1 view .LVU1925
 6197 02a0 7C4C     		ldr	r4, .L334
 6198 02a2 1022     		movs	r2, #16
 6199 02a4 2261     		str	r2, [r4, #16]
 967:Drivers/display_ILI-93xx_sm/lcd.c **** 	LCD_Write8(d >> 16);
 6200              		.loc 1 967 2 view .LVU1926
 6201 02a6 1A0E     		lsrs	r2, r3, #24
 6202              	.LBB648:
 6203              	.LBI648:
 847:Drivers/display_ILI-93xx_sm/lcd.c **** 	// ------ PORT -----     --- Data ----
 6204              		.loc 1 847 13 view .LVU1927
 6205              	.LBB649:
 860:Drivers/display_ILI-93xx_sm/lcd.c **** 	GPIOB->ODR = (GPIOB->ODR & 0xFBC7) | (data & 0x08) | ((data & 0x10) << 1) | ((data & 0x20) >> 1) |
 6206              		.loc 1 860 2 view .LVU1928
 860:Drivers/display_ILI-93xx_sm/lcd.c **** 	GPIOB->ODR = (GPIOB->ODR & 0xFBC7) | (data & 0x08) | ((data & 0x10) << 1) | ((data & 0x20) >> 1) |
 6207              		.loc 1 860 21 is_stmt 0 view .LVU1929
 6208 02a8 E068     		ldr	r0, [r4, #12]
 860:Drivers/display_ILI-93xx_sm/lcd.c **** 	GPIOB->ODR = (GPIOB->ODR & 0xFBC7) | (data & 0x08) | ((data & 0x10) << 1) | ((data & 0x20) >> 1) |
 6209              		.loc 1 860 27 view .LVU1930
 6210 02aa 20F4F060 		bic	r0, r0, #1920
 6211 02ae 0004     		lsls	r0, r0, #16
 6212 02b0 000C     		lsrs	r0, r0, #16
ARM GAS  /tmp/cc47Teva.s 			page 166


 860:Drivers/display_ILI-93xx_sm/lcd.c **** 	GPIOB->ODR = (GPIOB->ODR & 0xFBC7) | (data & 0x08) | ((data & 0x10) << 1) | ((data & 0x20) >> 1) |
 6213              		.loc 1 860 54 view .LVU1931
 6214 02b2 5102     		lsls	r1, r2, #9
 6215 02b4 01F40071 		and	r1, r1, #512
 860:Drivers/display_ILI-93xx_sm/lcd.c **** 	GPIOB->ODR = (GPIOB->ODR & 0xFBC7) | (data & 0x08) | ((data & 0x10) << 1) | ((data & 0x20) >> 1) |
 6216              		.loc 1 860 37 view .LVU1932
 6217 02b8 0843     		orrs	r0, r0, r1
 860:Drivers/display_ILI-93xx_sm/lcd.c **** 	GPIOB->ODR = (GPIOB->ODR & 0xFBC7) | (data & 0x08) | ((data & 0x10) << 1) | ((data & 0x20) >> 1) |
 6218              		.loc 1 860 77 view .LVU1933
 6219 02ba 1102     		lsls	r1, r2, #8
 6220 02bc 01F48061 		and	r1, r1, #1024
 860:Drivers/display_ILI-93xx_sm/lcd.c **** 	GPIOB->ODR = (GPIOB->ODR & 0xFBC7) | (data & 0x08) | ((data & 0x10) << 1) | ((data & 0x20) >> 1) |
 6221              		.loc 1 860 60 view .LVU1934
 6222 02c0 0843     		orrs	r0, r0, r1
 860:Drivers/display_ILI-93xx_sm/lcd.c **** 	GPIOB->ODR = (GPIOB->ODR & 0xFBC7) | (data & 0x08) | ((data & 0x10) << 1) | ((data & 0x20) >> 1) |
 6223              		.loc 1 860 100 view .LVU1935
 6224 02c2 5500     		lsls	r5, r2, #1
 6225 02c4 05F48071 		and	r1, r5, #256
 860:Drivers/display_ILI-93xx_sm/lcd.c **** 	GPIOB->ODR = (GPIOB->ODR & 0xFBC7) | (data & 0x08) | ((data & 0x10) << 1) | ((data & 0x20) >> 1) |
 6226              		.loc 1 860 83 view .LVU1936
 6227 02c8 0843     		orrs	r0, r0, r1
 860:Drivers/display_ILI-93xx_sm/lcd.c **** 	GPIOB->ODR = (GPIOB->ODR & 0xFBC7) | (data & 0x08) | ((data & 0x10) << 1) | ((data & 0x20) >> 1) |
 6228              		.loc 1 860 123 view .LVU1937
 6229 02ca 9101     		lsls	r1, r2, #6
 6230 02cc 01F08001 		and	r1, r1, #128
 860:Drivers/display_ILI-93xx_sm/lcd.c **** 	GPIOB->ODR = (GPIOB->ODR & 0xFBC7) | (data & 0x08) | ((data & 0x10) << 1) | ((data & 0x20) >> 1) |
 6231              		.loc 1 860 106 view .LVU1938
 6232 02d0 0843     		orrs	r0, r0, r1
 860:Drivers/display_ILI-93xx_sm/lcd.c **** 	GPIOB->ODR = (GPIOB->ODR & 0xFBC7) | (data & 0x08) | ((data & 0x10) << 1) | ((data & 0x20) >> 1) |
 6233              		.loc 1 860 13 view .LVU1939
 6234 02d2 E060     		str	r0, [r4, #12]
 861:Drivers/display_ILI-93xx_sm/lcd.c **** #else
 6235              		.loc 1 861 2 is_stmt 1 view .LVU1940
 861:Drivers/display_ILI-93xx_sm/lcd.c **** #else
 6236              		.loc 1 861 21 is_stmt 0 view .LVU1941
 6237 02d4 7048     		ldr	r0, .L334+4
 6238 02d6 C168     		ldr	r1, [r0, #12]
 861:Drivers/display_ILI-93xx_sm/lcd.c **** #else
 6239              		.loc 1 861 27 view .LVU1942
 6240 02d8 21F48761 		bic	r1, r1, #1080
 6241 02dc 0904     		lsls	r1, r1, #16
 6242 02de 090C     		lsrs	r1, r1, #16
 861:Drivers/display_ILI-93xx_sm/lcd.c **** #else
 6243              		.loc 1 861 45 view .LVU1943
 6244 02e0 02F00806 		and	r6, r2, #8
 861:Drivers/display_ILI-93xx_sm/lcd.c **** #else
 6245              		.loc 1 861 37 view .LVU1944
 6246 02e4 3143     		orrs	r1, r1, r6
 861:Drivers/display_ILI-93xx_sm/lcd.c **** #else
 6247              		.loc 1 861 70 view .LVU1945
 6248 02e6 05F02005 		and	r5, r5, #32
 861:Drivers/display_ILI-93xx_sm/lcd.c **** #else
 6249              		.loc 1 861 53 view .LVU1946
 6250 02ea 2943     		orrs	r1, r1, r5
 861:Drivers/display_ILI-93xx_sm/lcd.c **** #else
 6251              		.loc 1 861 93 view .LVU1947
 6252 02ec 5510     		asrs	r5, r2, #1
ARM GAS  /tmp/cc47Teva.s 			page 167


 6253 02ee 05F01005 		and	r5, r5, #16
 861:Drivers/display_ILI-93xx_sm/lcd.c **** #else
 6254              		.loc 1 861 76 view .LVU1948
 6255 02f2 2943     		orrs	r1, r1, r5
 861:Drivers/display_ILI-93xx_sm/lcd.c **** #else
 6256              		.loc 1 861 116 view .LVU1949
 6257 02f4 1201     		lsls	r2, r2, #4
 6258 02f6 02F48062 		and	r2, r2, #1024
 861:Drivers/display_ILI-93xx_sm/lcd.c **** #else
 6259              		.loc 1 861 99 view .LVU1950
 6260 02fa 0A43     		orrs	r2, r2, r1
 861:Drivers/display_ILI-93xx_sm/lcd.c **** #else
 6261              		.loc 1 861 13 view .LVU1951
 6262 02fc C260     		str	r2, [r0, #12]
 869:Drivers/display_ILI-93xx_sm/lcd.c **** }
 6263              		.loc 1 869 2 is_stmt 1 view .LVU1952
 869:Drivers/display_ILI-93xx_sm/lcd.c **** }
 6264              		.loc 1 869 2 view .LVU1953
 6265 02fe 4FF40032 		mov	r2, #131072
 6266 0302 2261     		str	r2, [r4, #16]
 869:Drivers/display_ILI-93xx_sm/lcd.c **** }
 6267              		.loc 1 869 2 view .LVU1954
 6268              	.LVL388:
 6269              	.LBB650:
 6270              	.LBI650:
 668:Drivers/display_ILI-93xx_sm/lcd.c **** 	for (; t; t--) __asm("nop");
 6271              		.loc 1 668 13 view .LVU1955
 6272              	.LBB651:
 669:Drivers/display_ILI-93xx_sm/lcd.c **** }
 6273              		.loc 1 669 2 view .LVU1956
 6274              	.LBE651:
 6275              	.LBE650:
 869:Drivers/display_ILI-93xx_sm/lcd.c **** }
 6276              		.loc 1 869 2 is_stmt 0 view .LVU1957
 6277 0304 0222     		movs	r2, #2
 6278              	.LVL389:
 6279              	.L296:
 6280              	.LBB653:
 6281              	.LBB652:
 669:Drivers/display_ILI-93xx_sm/lcd.c **** }
 6282              		.loc 1 669 2 view .LVU1958
 6283 0306 12B1     		cbz	r2, .L324
 669:Drivers/display_ILI-93xx_sm/lcd.c **** }
 6284              		.loc 1 669 17 is_stmt 1 view .LVU1959
 6285              		.syntax unified
 6286              	@ 669 "Drivers/display_ILI-93xx_sm/lcd.c" 1
 6287 0308 00BF     		nop
 6288              	@ 0 "" 2
 669:Drivers/display_ILI-93xx_sm/lcd.c **** }
 6289              		.loc 1 669 13 is_stmt 0 view .LVU1960
 6290              		.thumb
 6291              		.syntax unified
 6292 030a 013A     		subs	r2, r2, #1
 6293              	.LVL390:
 669:Drivers/display_ILI-93xx_sm/lcd.c **** }
 6294              		.loc 1 669 13 view .LVU1961
 6295 030c FBE7     		b	.L296
ARM GAS  /tmp/cc47Teva.s 			page 168


 6296              	.L324:
 6297              	.LVL391:
 669:Drivers/display_ILI-93xx_sm/lcd.c **** }
 6298              		.loc 1 669 13 view .LVU1962
 6299              	.LBE652:
 6300              	.LBE653:
 869:Drivers/display_ILI-93xx_sm/lcd.c **** }
 6301              		.loc 1 869 2 is_stmt 1 view .LVU1963
 6302 030e 0222     		movs	r2, #2
 6303 0310 6049     		ldr	r1, .L334
 6304 0312 0A61     		str	r2, [r1, #16]
 869:Drivers/display_ILI-93xx_sm/lcd.c **** }
 6305              		.loc 1 869 2 view .LVU1964
 6306              	.LVL392:
 6307              	.LBB654:
 6308              	.LBI654:
 668:Drivers/display_ILI-93xx_sm/lcd.c **** 	for (; t; t--) __asm("nop");
 6309              		.loc 1 668 13 view .LVU1965
 6310              	.L298:
 6311              	.LBB655:
 669:Drivers/display_ILI-93xx_sm/lcd.c **** }
 6312              		.loc 1 669 2 is_stmt 0 view .LVU1966
 6313 0314 12B1     		cbz	r2, .L325
 669:Drivers/display_ILI-93xx_sm/lcd.c **** }
 6314              		.loc 1 669 17 is_stmt 1 view .LVU1967
 6315              		.syntax unified
 6316              	@ 669 "Drivers/display_ILI-93xx_sm/lcd.c" 1
 6317 0316 00BF     		nop
 6318              	@ 0 "" 2
 669:Drivers/display_ILI-93xx_sm/lcd.c **** }
 6319              		.loc 1 669 13 is_stmt 0 view .LVU1968
 6320              		.thumb
 6321              		.syntax unified
 6322 0318 013A     		subs	r2, r2, #1
 6323              	.LVL393:
 669:Drivers/display_ILI-93xx_sm/lcd.c **** }
 6324              		.loc 1 669 13 view .LVU1969
 6325 031a FBE7     		b	.L298
 6326              	.L325:
 6327              	.LVL394:
 669:Drivers/display_ILI-93xx_sm/lcd.c **** }
 6328              		.loc 1 669 13 view .LVU1970
 6329              	.LBE655:
 6330              	.LBE654:
 6331              	.LBE649:
 6332              	.LBE648:
 968:Drivers/display_ILI-93xx_sm/lcd.c **** 	LCD_Write8(d >> 8);
 6333              		.loc 1 968 2 is_stmt 1 view .LVU1971
 6334 031c C3F30742 		ubfx	r2, r3, #16, #8
 6335              	.LBB656:
 6336              	.LBI656:
 847:Drivers/display_ILI-93xx_sm/lcd.c **** 	// ------ PORT -----     --- Data ----
 6337              		.loc 1 847 13 view .LVU1972
 6338              	.LBB657:
 860:Drivers/display_ILI-93xx_sm/lcd.c **** 	GPIOB->ODR = (GPIOB->ODR & 0xFBC7) | (data & 0x08) | ((data & 0x10) << 1) | ((data & 0x20) >> 1) |
 6339              		.loc 1 860 2 view .LVU1973
 860:Drivers/display_ILI-93xx_sm/lcd.c **** 	GPIOB->ODR = (GPIOB->ODR & 0xFBC7) | (data & 0x08) | ((data & 0x10) << 1) | ((data & 0x20) >> 1) |
ARM GAS  /tmp/cc47Teva.s 			page 169


 6340              		.loc 1 860 21 is_stmt 0 view .LVU1974
 6341 0320 5C4C     		ldr	r4, .L334
 6342 0322 E068     		ldr	r0, [r4, #12]
 860:Drivers/display_ILI-93xx_sm/lcd.c **** 	GPIOB->ODR = (GPIOB->ODR & 0xFBC7) | (data & 0x08) | ((data & 0x10) << 1) | ((data & 0x20) >> 1) |
 6343              		.loc 1 860 27 view .LVU1975
 6344 0324 20F4F060 		bic	r0, r0, #1920
 6345 0328 0004     		lsls	r0, r0, #16
 6346 032a 000C     		lsrs	r0, r0, #16
 860:Drivers/display_ILI-93xx_sm/lcd.c **** 	GPIOB->ODR = (GPIOB->ODR & 0xFBC7) | (data & 0x08) | ((data & 0x10) << 1) | ((data & 0x20) >> 1) |
 6347              		.loc 1 860 54 view .LVU1976
 6348 032c 5102     		lsls	r1, r2, #9
 6349 032e 01F40071 		and	r1, r1, #512
 860:Drivers/display_ILI-93xx_sm/lcd.c **** 	GPIOB->ODR = (GPIOB->ODR & 0xFBC7) | (data & 0x08) | ((data & 0x10) << 1) | ((data & 0x20) >> 1) |
 6350              		.loc 1 860 37 view .LVU1977
 6351 0332 0843     		orrs	r0, r0, r1
 860:Drivers/display_ILI-93xx_sm/lcd.c **** 	GPIOB->ODR = (GPIOB->ODR & 0xFBC7) | (data & 0x08) | ((data & 0x10) << 1) | ((data & 0x20) >> 1) |
 6352              		.loc 1 860 77 view .LVU1978
 6353 0334 1102     		lsls	r1, r2, #8
 6354 0336 01F48061 		and	r1, r1, #1024
 860:Drivers/display_ILI-93xx_sm/lcd.c **** 	GPIOB->ODR = (GPIOB->ODR & 0xFBC7) | (data & 0x08) | ((data & 0x10) << 1) | ((data & 0x20) >> 1) |
 6355              		.loc 1 860 60 view .LVU1979
 6356 033a 0843     		orrs	r0, r0, r1
 860:Drivers/display_ILI-93xx_sm/lcd.c **** 	GPIOB->ODR = (GPIOB->ODR & 0xFBC7) | (data & 0x08) | ((data & 0x10) << 1) | ((data & 0x20) >> 1) |
 6357              		.loc 1 860 100 view .LVU1980
 6358 033c 5500     		lsls	r5, r2, #1
 6359 033e 05F48071 		and	r1, r5, #256
 860:Drivers/display_ILI-93xx_sm/lcd.c **** 	GPIOB->ODR = (GPIOB->ODR & 0xFBC7) | (data & 0x08) | ((data & 0x10) << 1) | ((data & 0x20) >> 1) |
 6360              		.loc 1 860 83 view .LVU1981
 6361 0342 0843     		orrs	r0, r0, r1
 860:Drivers/display_ILI-93xx_sm/lcd.c **** 	GPIOB->ODR = (GPIOB->ODR & 0xFBC7) | (data & 0x08) | ((data & 0x10) << 1) | ((data & 0x20) >> 1) |
 6362              		.loc 1 860 123 view .LVU1982
 6363 0344 9101     		lsls	r1, r2, #6
 6364 0346 01F08001 		and	r1, r1, #128
 860:Drivers/display_ILI-93xx_sm/lcd.c **** 	GPIOB->ODR = (GPIOB->ODR & 0xFBC7) | (data & 0x08) | ((data & 0x10) << 1) | ((data & 0x20) >> 1) |
 6365              		.loc 1 860 106 view .LVU1983
 6366 034a 0843     		orrs	r0, r0, r1
 860:Drivers/display_ILI-93xx_sm/lcd.c **** 	GPIOB->ODR = (GPIOB->ODR & 0xFBC7) | (data & 0x08) | ((data & 0x10) << 1) | ((data & 0x20) >> 1) |
 6367              		.loc 1 860 13 view .LVU1984
 6368 034c E060     		str	r0, [r4, #12]
 861:Drivers/display_ILI-93xx_sm/lcd.c **** #else
 6369              		.loc 1 861 2 is_stmt 1 view .LVU1985
 861:Drivers/display_ILI-93xx_sm/lcd.c **** #else
 6370              		.loc 1 861 21 is_stmt 0 view .LVU1986
 6371 034e 5248     		ldr	r0, .L334+4
 6372 0350 C168     		ldr	r1, [r0, #12]
 861:Drivers/display_ILI-93xx_sm/lcd.c **** #else
 6373              		.loc 1 861 27 view .LVU1987
 6374 0352 21F48761 		bic	r1, r1, #1080
 6375 0356 0904     		lsls	r1, r1, #16
 6376 0358 090C     		lsrs	r1, r1, #16
 861:Drivers/display_ILI-93xx_sm/lcd.c **** #else
 6377              		.loc 1 861 45 view .LVU1988
 6378 035a 02F00806 		and	r6, r2, #8
 861:Drivers/display_ILI-93xx_sm/lcd.c **** #else
 6379              		.loc 1 861 37 view .LVU1989
 6380 035e 3143     		orrs	r1, r1, r6
 861:Drivers/display_ILI-93xx_sm/lcd.c **** #else
ARM GAS  /tmp/cc47Teva.s 			page 170


 6381              		.loc 1 861 70 view .LVU1990
 6382 0360 05F02005 		and	r5, r5, #32
 861:Drivers/display_ILI-93xx_sm/lcd.c **** #else
 6383              		.loc 1 861 53 view .LVU1991
 6384 0364 2943     		orrs	r1, r1, r5
 861:Drivers/display_ILI-93xx_sm/lcd.c **** #else
 6385              		.loc 1 861 93 view .LVU1992
 6386 0366 5510     		asrs	r5, r2, #1
 6387 0368 05F01005 		and	r5, r5, #16
 861:Drivers/display_ILI-93xx_sm/lcd.c **** #else
 6388              		.loc 1 861 76 view .LVU1993
 6389 036c 2943     		orrs	r1, r1, r5
 861:Drivers/display_ILI-93xx_sm/lcd.c **** #else
 6390              		.loc 1 861 116 view .LVU1994
 6391 036e 1201     		lsls	r2, r2, #4
 6392 0370 02F48062 		and	r2, r2, #1024
 861:Drivers/display_ILI-93xx_sm/lcd.c **** #else
 6393              		.loc 1 861 99 view .LVU1995
 6394 0374 0A43     		orrs	r2, r2, r1
 861:Drivers/display_ILI-93xx_sm/lcd.c **** #else
 6395              		.loc 1 861 13 view .LVU1996
 6396 0376 C260     		str	r2, [r0, #12]
 869:Drivers/display_ILI-93xx_sm/lcd.c **** }
 6397              		.loc 1 869 2 is_stmt 1 view .LVU1997
 869:Drivers/display_ILI-93xx_sm/lcd.c **** }
 6398              		.loc 1 869 2 view .LVU1998
 6399 0378 4FF40032 		mov	r2, #131072
 6400 037c 2261     		str	r2, [r4, #16]
 869:Drivers/display_ILI-93xx_sm/lcd.c **** }
 6401              		.loc 1 869 2 view .LVU1999
 6402              	.LVL395:
 6403              	.LBB658:
 6404              	.LBI658:
 668:Drivers/display_ILI-93xx_sm/lcd.c **** 	for (; t; t--) __asm("nop");
 6405              		.loc 1 668 13 view .LVU2000
 6406              	.LBB659:
 669:Drivers/display_ILI-93xx_sm/lcd.c **** }
 6407              		.loc 1 669 2 view .LVU2001
 6408              	.LBE659:
 6409              	.LBE658:
 869:Drivers/display_ILI-93xx_sm/lcd.c **** }
 6410              		.loc 1 869 2 is_stmt 0 view .LVU2002
 6411 037e 0222     		movs	r2, #2
 6412              	.LVL396:
 6413              	.L300:
 6414              	.LBB661:
 6415              	.LBB660:
 669:Drivers/display_ILI-93xx_sm/lcd.c **** }
 6416              		.loc 1 669 2 view .LVU2003
 6417 0380 12B1     		cbz	r2, .L326
 669:Drivers/display_ILI-93xx_sm/lcd.c **** }
 6418              		.loc 1 669 17 is_stmt 1 view .LVU2004
 6419              		.syntax unified
 6420              	@ 669 "Drivers/display_ILI-93xx_sm/lcd.c" 1
 6421 0382 00BF     		nop
 6422              	@ 0 "" 2
 669:Drivers/display_ILI-93xx_sm/lcd.c **** }
ARM GAS  /tmp/cc47Teva.s 			page 171


 6423              		.loc 1 669 13 is_stmt 0 view .LVU2005
 6424              		.thumb
 6425              		.syntax unified
 6426 0384 013A     		subs	r2, r2, #1
 6427              	.LVL397:
 669:Drivers/display_ILI-93xx_sm/lcd.c **** }
 6428              		.loc 1 669 13 view .LVU2006
 6429 0386 FBE7     		b	.L300
 6430              	.L326:
 6431              	.LVL398:
 669:Drivers/display_ILI-93xx_sm/lcd.c **** }
 6432              		.loc 1 669 13 view .LVU2007
 6433              	.LBE660:
 6434              	.LBE661:
 869:Drivers/display_ILI-93xx_sm/lcd.c **** }
 6435              		.loc 1 869 2 is_stmt 1 view .LVU2008
 6436 0388 0222     		movs	r2, #2
 6437 038a 4249     		ldr	r1, .L334
 6438 038c 0A61     		str	r2, [r1, #16]
 869:Drivers/display_ILI-93xx_sm/lcd.c **** }
 6439              		.loc 1 869 2 view .LVU2009
 6440              	.LVL399:
 6441              	.LBB662:
 6442              	.LBI662:
 668:Drivers/display_ILI-93xx_sm/lcd.c **** 	for (; t; t--) __asm("nop");
 6443              		.loc 1 668 13 view .LVU2010
 6444              	.L302:
 6445              	.LBB663:
 669:Drivers/display_ILI-93xx_sm/lcd.c **** }
 6446              		.loc 1 669 2 is_stmt 0 view .LVU2011
 6447 038e 12B1     		cbz	r2, .L327
 669:Drivers/display_ILI-93xx_sm/lcd.c **** }
 6448              		.loc 1 669 17 is_stmt 1 view .LVU2012
 6449              		.syntax unified
 6450              	@ 669 "Drivers/display_ILI-93xx_sm/lcd.c" 1
 6451 0390 00BF     		nop
 6452              	@ 0 "" 2
 669:Drivers/display_ILI-93xx_sm/lcd.c **** }
 6453              		.loc 1 669 13 is_stmt 0 view .LVU2013
 6454              		.thumb
 6455              		.syntax unified
 6456 0392 013A     		subs	r2, r2, #1
 6457              	.LVL400:
 669:Drivers/display_ILI-93xx_sm/lcd.c **** }
 6458              		.loc 1 669 13 view .LVU2014
 6459 0394 FBE7     		b	.L302
 6460              	.L327:
 6461              	.LVL401:
 669:Drivers/display_ILI-93xx_sm/lcd.c **** }
 6462              		.loc 1 669 13 view .LVU2015
 6463              	.LBE663:
 6464              	.LBE662:
 6465              	.LBE657:
 6466              	.LBE656:
 969:Drivers/display_ILI-93xx_sm/lcd.c **** 	LCD_Write8(d);
 6467              		.loc 1 969 2 is_stmt 1 view .LVU2016
 6468 0396 C3F30722 		ubfx	r2, r3, #8, #8
ARM GAS  /tmp/cc47Teva.s 			page 172


 6469              	.LBB664:
 6470              	.LBI664:
 847:Drivers/display_ILI-93xx_sm/lcd.c **** 	// ------ PORT -----     --- Data ----
 6471              		.loc 1 847 13 view .LVU2017
 6472              	.LBB665:
 860:Drivers/display_ILI-93xx_sm/lcd.c **** 	GPIOB->ODR = (GPIOB->ODR & 0xFBC7) | (data & 0x08) | ((data & 0x10) << 1) | ((data & 0x20) >> 1) |
 6473              		.loc 1 860 2 view .LVU2018
 860:Drivers/display_ILI-93xx_sm/lcd.c **** 	GPIOB->ODR = (GPIOB->ODR & 0xFBC7) | (data & 0x08) | ((data & 0x10) << 1) | ((data & 0x20) >> 1) |
 6474              		.loc 1 860 21 is_stmt 0 view .LVU2019
 6475 039a 3E4C     		ldr	r4, .L334
 6476 039c E068     		ldr	r0, [r4, #12]
 860:Drivers/display_ILI-93xx_sm/lcd.c **** 	GPIOB->ODR = (GPIOB->ODR & 0xFBC7) | (data & 0x08) | ((data & 0x10) << 1) | ((data & 0x20) >> 1) |
 6477              		.loc 1 860 27 view .LVU2020
 6478 039e 20F4F060 		bic	r0, r0, #1920
 6479 03a2 0004     		lsls	r0, r0, #16
 6480 03a4 000C     		lsrs	r0, r0, #16
 860:Drivers/display_ILI-93xx_sm/lcd.c **** 	GPIOB->ODR = (GPIOB->ODR & 0xFBC7) | (data & 0x08) | ((data & 0x10) << 1) | ((data & 0x20) >> 1) |
 6481              		.loc 1 860 54 view .LVU2021
 6482 03a6 5102     		lsls	r1, r2, #9
 6483 03a8 01F40071 		and	r1, r1, #512
 860:Drivers/display_ILI-93xx_sm/lcd.c **** 	GPIOB->ODR = (GPIOB->ODR & 0xFBC7) | (data & 0x08) | ((data & 0x10) << 1) | ((data & 0x20) >> 1) |
 6484              		.loc 1 860 37 view .LVU2022
 6485 03ac 0843     		orrs	r0, r0, r1
 860:Drivers/display_ILI-93xx_sm/lcd.c **** 	GPIOB->ODR = (GPIOB->ODR & 0xFBC7) | (data & 0x08) | ((data & 0x10) << 1) | ((data & 0x20) >> 1) |
 6486              		.loc 1 860 77 view .LVU2023
 6487 03ae 1102     		lsls	r1, r2, #8
 6488 03b0 01F48061 		and	r1, r1, #1024
 860:Drivers/display_ILI-93xx_sm/lcd.c **** 	GPIOB->ODR = (GPIOB->ODR & 0xFBC7) | (data & 0x08) | ((data & 0x10) << 1) | ((data & 0x20) >> 1) |
 6489              		.loc 1 860 60 view .LVU2024
 6490 03b4 0843     		orrs	r0, r0, r1
 860:Drivers/display_ILI-93xx_sm/lcd.c **** 	GPIOB->ODR = (GPIOB->ODR & 0xFBC7) | (data & 0x08) | ((data & 0x10) << 1) | ((data & 0x20) >> 1) |
 6491              		.loc 1 860 100 view .LVU2025
 6492 03b6 5500     		lsls	r5, r2, #1
 6493 03b8 05F48071 		and	r1, r5, #256
 860:Drivers/display_ILI-93xx_sm/lcd.c **** 	GPIOB->ODR = (GPIOB->ODR & 0xFBC7) | (data & 0x08) | ((data & 0x10) << 1) | ((data & 0x20) >> 1) |
 6494              		.loc 1 860 83 view .LVU2026
 6495 03bc 0843     		orrs	r0, r0, r1
 860:Drivers/display_ILI-93xx_sm/lcd.c **** 	GPIOB->ODR = (GPIOB->ODR & 0xFBC7) | (data & 0x08) | ((data & 0x10) << 1) | ((data & 0x20) >> 1) |
 6496              		.loc 1 860 123 view .LVU2027
 6497 03be 9101     		lsls	r1, r2, #6
 6498 03c0 01F08001 		and	r1, r1, #128
 860:Drivers/display_ILI-93xx_sm/lcd.c **** 	GPIOB->ODR = (GPIOB->ODR & 0xFBC7) | (data & 0x08) | ((data & 0x10) << 1) | ((data & 0x20) >> 1) |
 6499              		.loc 1 860 106 view .LVU2028
 6500 03c4 0843     		orrs	r0, r0, r1
 860:Drivers/display_ILI-93xx_sm/lcd.c **** 	GPIOB->ODR = (GPIOB->ODR & 0xFBC7) | (data & 0x08) | ((data & 0x10) << 1) | ((data & 0x20) >> 1) |
 6501              		.loc 1 860 13 view .LVU2029
 6502 03c6 E060     		str	r0, [r4, #12]
 861:Drivers/display_ILI-93xx_sm/lcd.c **** #else
 6503              		.loc 1 861 2 is_stmt 1 view .LVU2030
 861:Drivers/display_ILI-93xx_sm/lcd.c **** #else
 6504              		.loc 1 861 21 is_stmt 0 view .LVU2031
 6505 03c8 3348     		ldr	r0, .L334+4
 6506 03ca C168     		ldr	r1, [r0, #12]
 861:Drivers/display_ILI-93xx_sm/lcd.c **** #else
 6507              		.loc 1 861 27 view .LVU2032
 6508 03cc 21F48761 		bic	r1, r1, #1080
 6509 03d0 0904     		lsls	r1, r1, #16
ARM GAS  /tmp/cc47Teva.s 			page 173


 6510 03d2 090C     		lsrs	r1, r1, #16
 861:Drivers/display_ILI-93xx_sm/lcd.c **** #else
 6511              		.loc 1 861 45 view .LVU2033
 6512 03d4 02F00806 		and	r6, r2, #8
 861:Drivers/display_ILI-93xx_sm/lcd.c **** #else
 6513              		.loc 1 861 37 view .LVU2034
 6514 03d8 3143     		orrs	r1, r1, r6
 861:Drivers/display_ILI-93xx_sm/lcd.c **** #else
 6515              		.loc 1 861 70 view .LVU2035
 6516 03da 05F02005 		and	r5, r5, #32
 861:Drivers/display_ILI-93xx_sm/lcd.c **** #else
 6517              		.loc 1 861 53 view .LVU2036
 6518 03de 2943     		orrs	r1, r1, r5
 861:Drivers/display_ILI-93xx_sm/lcd.c **** #else
 6519              		.loc 1 861 93 view .LVU2037
 6520 03e0 5510     		asrs	r5, r2, #1
 6521 03e2 05F01005 		and	r5, r5, #16
 861:Drivers/display_ILI-93xx_sm/lcd.c **** #else
 6522              		.loc 1 861 76 view .LVU2038
 6523 03e6 2943     		orrs	r1, r1, r5
 861:Drivers/display_ILI-93xx_sm/lcd.c **** #else
 6524              		.loc 1 861 116 view .LVU2039
 6525 03e8 1201     		lsls	r2, r2, #4
 6526 03ea 02F48062 		and	r2, r2, #1024
 861:Drivers/display_ILI-93xx_sm/lcd.c **** #else
 6527              		.loc 1 861 99 view .LVU2040
 6528 03ee 0A43     		orrs	r2, r2, r1
 861:Drivers/display_ILI-93xx_sm/lcd.c **** #else
 6529              		.loc 1 861 13 view .LVU2041
 6530 03f0 C260     		str	r2, [r0, #12]
 869:Drivers/display_ILI-93xx_sm/lcd.c **** }
 6531              		.loc 1 869 2 is_stmt 1 view .LVU2042
 869:Drivers/display_ILI-93xx_sm/lcd.c **** }
 6532              		.loc 1 869 2 view .LVU2043
 6533 03f2 4FF40032 		mov	r2, #131072
 6534 03f6 2261     		str	r2, [r4, #16]
 869:Drivers/display_ILI-93xx_sm/lcd.c **** }
 6535              		.loc 1 869 2 view .LVU2044
 6536              	.LVL402:
 6537              	.LBB666:
 6538              	.LBI666:
 668:Drivers/display_ILI-93xx_sm/lcd.c **** 	for (; t; t--) __asm("nop");
 6539              		.loc 1 668 13 view .LVU2045
 6540              	.LBB667:
 669:Drivers/display_ILI-93xx_sm/lcd.c **** }
 6541              		.loc 1 669 2 view .LVU2046
 6542              	.LBE667:
 6543              	.LBE666:
 869:Drivers/display_ILI-93xx_sm/lcd.c **** }
 6544              		.loc 1 869 2 is_stmt 0 view .LVU2047
 6545 03f8 0222     		movs	r2, #2
 6546              	.LVL403:
 6547              	.L304:
 6548              	.LBB669:
 6549              	.LBB668:
 669:Drivers/display_ILI-93xx_sm/lcd.c **** }
 6550              		.loc 1 669 2 view .LVU2048
ARM GAS  /tmp/cc47Teva.s 			page 174


 6551 03fa 12B1     		cbz	r2, .L328
 669:Drivers/display_ILI-93xx_sm/lcd.c **** }
 6552              		.loc 1 669 17 is_stmt 1 view .LVU2049
 6553              		.syntax unified
 6554              	@ 669 "Drivers/display_ILI-93xx_sm/lcd.c" 1
 6555 03fc 00BF     		nop
 6556              	@ 0 "" 2
 669:Drivers/display_ILI-93xx_sm/lcd.c **** }
 6557              		.loc 1 669 13 is_stmt 0 view .LVU2050
 6558              		.thumb
 6559              		.syntax unified
 6560 03fe 013A     		subs	r2, r2, #1
 6561              	.LVL404:
 669:Drivers/display_ILI-93xx_sm/lcd.c **** }
 6562              		.loc 1 669 13 view .LVU2051
 6563 0400 FBE7     		b	.L304
 6564              	.L328:
 6565              	.LVL405:
 669:Drivers/display_ILI-93xx_sm/lcd.c **** }
 6566              		.loc 1 669 13 view .LVU2052
 6567              	.LBE668:
 6568              	.LBE669:
 869:Drivers/display_ILI-93xx_sm/lcd.c **** }
 6569              		.loc 1 869 2 is_stmt 1 view .LVU2053
 6570 0402 0222     		movs	r2, #2
 6571 0404 2349     		ldr	r1, .L334
 6572 0406 0A61     		str	r2, [r1, #16]
 869:Drivers/display_ILI-93xx_sm/lcd.c **** }
 6573              		.loc 1 869 2 view .LVU2054
 6574              	.LVL406:
 6575              	.LBB670:
 6576              	.LBI670:
 668:Drivers/display_ILI-93xx_sm/lcd.c **** 	for (; t; t--) __asm("nop");
 6577              		.loc 1 668 13 view .LVU2055
 6578              	.L306:
 6579              	.LBB671:
 669:Drivers/display_ILI-93xx_sm/lcd.c **** }
 6580              		.loc 1 669 2 is_stmt 0 view .LVU2056
 6581 0408 12B1     		cbz	r2, .L329
 669:Drivers/display_ILI-93xx_sm/lcd.c **** }
 6582              		.loc 1 669 17 is_stmt 1 view .LVU2057
 6583              		.syntax unified
 6584              	@ 669 "Drivers/display_ILI-93xx_sm/lcd.c" 1
 6585 040a 00BF     		nop
 6586              	@ 0 "" 2
 669:Drivers/display_ILI-93xx_sm/lcd.c **** }
 6587              		.loc 1 669 13 is_stmt 0 view .LVU2058
 6588              		.thumb
 6589              		.syntax unified
 6590 040c 013A     		subs	r2, r2, #1
 6591              	.LVL407:
 669:Drivers/display_ILI-93xx_sm/lcd.c **** }
 6592              		.loc 1 669 13 view .LVU2059
 6593 040e FBE7     		b	.L306
 6594              	.L329:
 6595              	.LVL408:
 669:Drivers/display_ILI-93xx_sm/lcd.c **** }
ARM GAS  /tmp/cc47Teva.s 			page 175


 6596              		.loc 1 669 13 view .LVU2060
 6597              	.LBE671:
 6598              	.LBE670:
 6599              	.LBE665:
 6600              	.LBE664:
 970:Drivers/display_ILI-93xx_sm/lcd.c **** }
 6601              		.loc 1 970 2 is_stmt 1 view .LVU2061
 6602 0410 DBB2     		uxtb	r3, r3
 6603              	.LVL409:
 6604              	.LBB672:
 6605              	.LBI672:
 847:Drivers/display_ILI-93xx_sm/lcd.c **** 	// ------ PORT -----     --- Data ----
 6606              		.loc 1 847 13 view .LVU2062
 6607              	.LBB673:
 860:Drivers/display_ILI-93xx_sm/lcd.c **** 	GPIOB->ODR = (GPIOB->ODR & 0xFBC7) | (data & 0x08) | ((data & 0x10) << 1) | ((data & 0x20) >> 1) |
 6608              		.loc 1 860 2 view .LVU2063
 860:Drivers/display_ILI-93xx_sm/lcd.c **** 	GPIOB->ODR = (GPIOB->ODR & 0xFBC7) | (data & 0x08) | ((data & 0x10) << 1) | ((data & 0x20) >> 1) |
 6609              		.loc 1 860 21 is_stmt 0 view .LVU2064
 6610 0412 204C     		ldr	r4, .L334
 6611 0414 E068     		ldr	r0, [r4, #12]
 860:Drivers/display_ILI-93xx_sm/lcd.c **** 	GPIOB->ODR = (GPIOB->ODR & 0xFBC7) | (data & 0x08) | ((data & 0x10) << 1) | ((data & 0x20) >> 1) |
 6612              		.loc 1 860 27 view .LVU2065
 6613 0416 20F4F060 		bic	r0, r0, #1920
 6614 041a 0004     		lsls	r0, r0, #16
 6615 041c 000C     		lsrs	r0, r0, #16
 860:Drivers/display_ILI-93xx_sm/lcd.c **** 	GPIOB->ODR = (GPIOB->ODR & 0xFBC7) | (data & 0x08) | ((data & 0x10) << 1) | ((data & 0x20) >> 1) |
 6616              		.loc 1 860 54 view .LVU2066
 6617 041e 5A02     		lsls	r2, r3, #9
 6618 0420 02F40072 		and	r2, r2, #512
 860:Drivers/display_ILI-93xx_sm/lcd.c **** 	GPIOB->ODR = (GPIOB->ODR & 0xFBC7) | (data & 0x08) | ((data & 0x10) << 1) | ((data & 0x20) >> 1) |
 6619              		.loc 1 860 37 view .LVU2067
 6620 0424 1043     		orrs	r0, r0, r2
 860:Drivers/display_ILI-93xx_sm/lcd.c **** 	GPIOB->ODR = (GPIOB->ODR & 0xFBC7) | (data & 0x08) | ((data & 0x10) << 1) | ((data & 0x20) >> 1) |
 6621              		.loc 1 860 77 view .LVU2068
 6622 0426 1A02     		lsls	r2, r3, #8
 6623 0428 02F48062 		and	r2, r2, #1024
 860:Drivers/display_ILI-93xx_sm/lcd.c **** 	GPIOB->ODR = (GPIOB->ODR & 0xFBC7) | (data & 0x08) | ((data & 0x10) << 1) | ((data & 0x20) >> 1) |
 6624              		.loc 1 860 60 view .LVU2069
 6625 042c 1043     		orrs	r0, r0, r2
 860:Drivers/display_ILI-93xx_sm/lcd.c **** 	GPIOB->ODR = (GPIOB->ODR & 0xFBC7) | (data & 0x08) | ((data & 0x10) << 1) | ((data & 0x20) >> 1) |
 6626              		.loc 1 860 100 view .LVU2070
 6627 042e 5900     		lsls	r1, r3, #1
 6628 0430 01F48072 		and	r2, r1, #256
 860:Drivers/display_ILI-93xx_sm/lcd.c **** 	GPIOB->ODR = (GPIOB->ODR & 0xFBC7) | (data & 0x08) | ((data & 0x10) << 1) | ((data & 0x20) >> 1) |
 6629              		.loc 1 860 83 view .LVU2071
 6630 0434 1043     		orrs	r0, r0, r2
 860:Drivers/display_ILI-93xx_sm/lcd.c **** 	GPIOB->ODR = (GPIOB->ODR & 0xFBC7) | (data & 0x08) | ((data & 0x10) << 1) | ((data & 0x20) >> 1) |
 6631              		.loc 1 860 123 view .LVU2072
 6632 0436 9A01     		lsls	r2, r3, #6
 6633 0438 02F08002 		and	r2, r2, #128
 860:Drivers/display_ILI-93xx_sm/lcd.c **** 	GPIOB->ODR = (GPIOB->ODR & 0xFBC7) | (data & 0x08) | ((data & 0x10) << 1) | ((data & 0x20) >> 1) |
 6634              		.loc 1 860 106 view .LVU2073
 6635 043c 1043     		orrs	r0, r0, r2
 860:Drivers/display_ILI-93xx_sm/lcd.c **** 	GPIOB->ODR = (GPIOB->ODR & 0xFBC7) | (data & 0x08) | ((data & 0x10) << 1) | ((data & 0x20) >> 1) |
 6636              		.loc 1 860 13 view .LVU2074
 6637 043e E060     		str	r0, [r4, #12]
 861:Drivers/display_ILI-93xx_sm/lcd.c **** #else
ARM GAS  /tmp/cc47Teva.s 			page 176


 6638              		.loc 1 861 2 is_stmt 1 view .LVU2075
 861:Drivers/display_ILI-93xx_sm/lcd.c **** #else
 6639              		.loc 1 861 21 is_stmt 0 view .LVU2076
 6640 0440 1548     		ldr	r0, .L334+4
 6641 0442 C268     		ldr	r2, [r0, #12]
 861:Drivers/display_ILI-93xx_sm/lcd.c **** #else
 6642              		.loc 1 861 27 view .LVU2077
 6643 0444 22F48762 		bic	r2, r2, #1080
 6644 0448 1204     		lsls	r2, r2, #16
 6645 044a 120C     		lsrs	r2, r2, #16
 861:Drivers/display_ILI-93xx_sm/lcd.c **** #else
 6646              		.loc 1 861 45 view .LVU2078
 6647 044c 03F00805 		and	r5, r3, #8
 861:Drivers/display_ILI-93xx_sm/lcd.c **** #else
 6648              		.loc 1 861 37 view .LVU2079
 6649 0450 2A43     		orrs	r2, r2, r5
 861:Drivers/display_ILI-93xx_sm/lcd.c **** #else
 6650              		.loc 1 861 70 view .LVU2080
 6651 0452 01F02001 		and	r1, r1, #32
 861:Drivers/display_ILI-93xx_sm/lcd.c **** #else
 6652              		.loc 1 861 53 view .LVU2081
 6653 0456 0A43     		orrs	r2, r2, r1
 861:Drivers/display_ILI-93xx_sm/lcd.c **** #else
 6654              		.loc 1 861 93 view .LVU2082
 6655 0458 5910     		asrs	r1, r3, #1
 6656 045a 01F01001 		and	r1, r1, #16
 861:Drivers/display_ILI-93xx_sm/lcd.c **** #else
 6657              		.loc 1 861 76 view .LVU2083
 6658 045e 0A43     		orrs	r2, r2, r1
 861:Drivers/display_ILI-93xx_sm/lcd.c **** #else
 6659              		.loc 1 861 116 view .LVU2084
 6660 0460 1B01     		lsls	r3, r3, #4
 6661              	.LVL410:
 861:Drivers/display_ILI-93xx_sm/lcd.c **** #else
 6662              		.loc 1 861 116 view .LVU2085
 6663 0462 03F48063 		and	r3, r3, #1024
 861:Drivers/display_ILI-93xx_sm/lcd.c **** #else
 6664              		.loc 1 861 99 view .LVU2086
 6665 0466 1343     		orrs	r3, r3, r2
 861:Drivers/display_ILI-93xx_sm/lcd.c **** #else
 6666              		.loc 1 861 13 view .LVU2087
 6667 0468 C360     		str	r3, [r0, #12]
 869:Drivers/display_ILI-93xx_sm/lcd.c **** }
 6668              		.loc 1 869 2 is_stmt 1 view .LVU2088
 869:Drivers/display_ILI-93xx_sm/lcd.c **** }
 6669              		.loc 1 869 2 view .LVU2089
 6670 046a 4FF40033 		mov	r3, #131072
 6671 046e 2361     		str	r3, [r4, #16]
 869:Drivers/display_ILI-93xx_sm/lcd.c **** }
 6672              		.loc 1 869 2 view .LVU2090
 6673              	.LVL411:
 6674              	.LBB674:
 6675              	.LBI674:
 668:Drivers/display_ILI-93xx_sm/lcd.c **** 	for (; t; t--) __asm("nop");
 6676              		.loc 1 668 13 view .LVU2091
 6677              	.LBB675:
 669:Drivers/display_ILI-93xx_sm/lcd.c **** }
ARM GAS  /tmp/cc47Teva.s 			page 177


 6678              		.loc 1 669 2 view .LVU2092
 6679              	.LBE675:
 6680              	.LBE674:
 869:Drivers/display_ILI-93xx_sm/lcd.c **** }
 6681              		.loc 1 869 2 is_stmt 0 view .LVU2093
 6682 0470 0223     		movs	r3, #2
 6683              	.LVL412:
 6684              	.L308:
 6685              	.LBB677:
 6686              	.LBB676:
 669:Drivers/display_ILI-93xx_sm/lcd.c **** }
 6687              		.loc 1 669 2 view .LVU2094
 6688 0472 13B1     		cbz	r3, .L330
 669:Drivers/display_ILI-93xx_sm/lcd.c **** }
 6689              		.loc 1 669 17 is_stmt 1 view .LVU2095
 6690              		.syntax unified
 6691              	@ 669 "Drivers/display_ILI-93xx_sm/lcd.c" 1
 6692 0474 00BF     		nop
 6693              	@ 0 "" 2
 669:Drivers/display_ILI-93xx_sm/lcd.c **** }
 6694              		.loc 1 669 13 is_stmt 0 view .LVU2096
 6695              		.thumb
 6696              		.syntax unified
 6697 0476 013B     		subs	r3, r3, #1
 6698              	.LVL413:
 669:Drivers/display_ILI-93xx_sm/lcd.c **** }
 6699              		.loc 1 669 13 view .LVU2097
 6700 0478 FBE7     		b	.L308
 6701              	.L330:
 6702              	.LVL414:
 669:Drivers/display_ILI-93xx_sm/lcd.c **** }
 6703              		.loc 1 669 13 view .LVU2098
 6704              	.LBE676:
 6705              	.LBE677:
 869:Drivers/display_ILI-93xx_sm/lcd.c **** }
 6706              		.loc 1 869 2 is_stmt 1 view .LVU2099
 6707 047a 0223     		movs	r3, #2
 6708 047c 054A     		ldr	r2, .L334
 6709 047e 1361     		str	r3, [r2, #16]
 869:Drivers/display_ILI-93xx_sm/lcd.c **** }
 6710              		.loc 1 869 2 view .LVU2100
 6711              	.LVL415:
 6712              	.LBB678:
 6713              	.LBI678:
 668:Drivers/display_ILI-93xx_sm/lcd.c **** 	for (; t; t--) __asm("nop");
 6714              		.loc 1 668 13 view .LVU2101
 6715              	.L310:
 6716              	.LBB679:
 669:Drivers/display_ILI-93xx_sm/lcd.c **** }
 6717              		.loc 1 669 2 is_stmt 0 view .LVU2102
 6718 0480 13B1     		cbz	r3, .L331
 669:Drivers/display_ILI-93xx_sm/lcd.c **** }
 6719              		.loc 1 669 17 is_stmt 1 view .LVU2103
 6720              		.syntax unified
 6721              	@ 669 "Drivers/display_ILI-93xx_sm/lcd.c" 1
 6722 0482 00BF     		nop
 6723              	@ 0 "" 2
ARM GAS  /tmp/cc47Teva.s 			page 178


 669:Drivers/display_ILI-93xx_sm/lcd.c **** }
 6724              		.loc 1 669 13 is_stmt 0 view .LVU2104
 6725              		.thumb
 6726              		.syntax unified
 6727 0484 013B     		subs	r3, r3, #1
 6728              	.LVL416:
 669:Drivers/display_ILI-93xx_sm/lcd.c **** }
 6729              		.loc 1 669 13 view .LVU2105
 6730 0486 FBE7     		b	.L310
 6731              	.L331:
 6732              	.LVL417:
 669:Drivers/display_ILI-93xx_sm/lcd.c **** }
 6733              		.loc 1 669 13 view .LVU2106
 6734              	.LBE679:
 6735              	.LBE678:
 6736              	.LBE673:
 6737              	.LBE672:
 6738              	.LBE639:
 6739              	.LBE638:
1567:Drivers/display_ILI-93xx_sm/lcd.c **** #elif defined(HX8347D) || defined(HX8347G)
1568:Drivers/display_ILI-93xx_sm/lcd.c ****     LCD_Write16RegisterPair8(HX8347G_COLADDRSTART_HI, HX8347G_COLADDRSTART_LO, x1);
1569:Drivers/display_ILI-93xx_sm/lcd.c ****     LCD_Write16RegisterPair8(HX8347G_COLADDREND_HI, HX8347G_COLADDREND_LO, x2);
1570:Drivers/display_ILI-93xx_sm/lcd.c ****     LCD_Write16RegisterPair8(HX8347G_ROWADDRSTART_HI, HX8347G_ROWADDRSTART_LO, y1);
1571:Drivers/display_ILI-93xx_sm/lcd.c ****     LCD_Write16RegisterPair8(HX8347G_ROWADDREND_HI, HX8347G_ROWADDREND_LO, y2);
1572:Drivers/display_ILI-93xx_sm/lcd.c **** #elif defined(HX8357D)
1573:Drivers/display_ILI-93xx_sm/lcd.c **** 	LCD_Write32Register8(HX8357_CASET, x1 << 16 | x2);
1574:Drivers/display_ILI-93xx_sm/lcd.c **** 	LCD_Write32Register8(HX8357_PASET, y1 << 16 | y2);
1575:Drivers/display_ILI-93xx_sm/lcd.c **** #elif defined(SSD1297)
1576:Drivers/display_ILI-93xx_sm/lcd.c **** 	if(m_rotation & 1) {
1577:Drivers/display_ILI-93xx_sm/lcd.c **** 		LCD_Write16Register8(SSD1297_SETXCOUNTER, y1); //GRAM Address Set
1578:Drivers/display_ILI-93xx_sm/lcd.c **** 		LCD_Write16Register8(SSD1297_SETYCOUNTER, x1);
1579:Drivers/display_ILI-93xx_sm/lcd.c **** 		LCD_Write16Register8(SSD1297_SETXADDR, y2 << 8 | y1); //HorizontalStartAddress and HorizontalEndA
1580:Drivers/display_ILI-93xx_sm/lcd.c **** 		LCD_Write16Register8(SSD1297_SETYADDR_START, x1); //VerticalStartAddress
1581:Drivers/display_ILI-93xx_sm/lcd.c **** 		LCD_Write16Register8(SSD1297_SETYADDR_END, x2); //VerticalEndAddress
1582:Drivers/display_ILI-93xx_sm/lcd.c **** 	} else {
1583:Drivers/display_ILI-93xx_sm/lcd.c **** 		LCD_Write16Register8(SSD1297_SETXCOUNTER, x1); //GRAM Address Set
1584:Drivers/display_ILI-93xx_sm/lcd.c **** 		LCD_Write16Register8(SSD1297_SETYCOUNTER, y1);
1585:Drivers/display_ILI-93xx_sm/lcd.c **** 		LCD_Write16Register8(SSD1297_SETXADDR, x2 << 8 | x1); //HorizontalStartAddress and HorizontalEndA
1586:Drivers/display_ILI-93xx_sm/lcd.c **** 		LCD_Write16Register8(SSD1297_SETYADDR_START, y1); //VerticalStartAddress
1587:Drivers/display_ILI-93xx_sm/lcd.c **** 		LCD_Write16Register8(SSD1297_SETYADDR_END, y2); //VerticalEndAddress
1588:Drivers/display_ILI-93xx_sm/lcd.c **** 	}
1589:Drivers/display_ILI-93xx_sm/lcd.c **** #endif
1590:Drivers/display_ILI-93xx_sm/lcd.c **** 	LCD_CS_IDLE();
 6740              		.loc 1 1590 2 is_stmt 1 view .LVU2107
 6741 0488 034B     		ldr	r3, .L334+4
 6742 048a 0122     		movs	r2, #1
 6743 048c 1A61     		str	r2, [r3, #16]
1591:Drivers/display_ILI-93xx_sm/lcd.c **** }
 6744              		.loc 1 1591 1 is_stmt 0 view .LVU2108
 6745 048e F0BC     		pop	{r4, r5, r6, r7}
 6746              	.LCFI21:
 6747              		.cfi_restore 7
 6748              		.cfi_restore 6
 6749              		.cfi_restore 5
 6750              		.cfi_restore 4
 6751              		.cfi_def_cfa_offset 0
 6752 0490 7047     		bx	lr
ARM GAS  /tmp/cc47Teva.s 			page 179


 6753              	.L335:
 6754 0492 00BF     		.align	2
 6755              	.L334:
 6756 0494 00080140 		.word	1073809408
 6757 0498 000C0140 		.word	1073810432
 6758              		.cfi_endproc
 6759              	.LFE84:
 6761              		.section	.text.LCD_DrawPixel,"ax",%progbits
 6762              		.align	1
 6763              		.global	LCD_DrawPixel
 6764              		.syntax unified
 6765              		.thumb
 6766              		.thumb_func
 6767              		.fpu softvfp
 6769              	LCD_DrawPixel:
 6770              	.LVL418:
 6771              	.LFB80:
1284:Drivers/display_ILI-93xx_sm/lcd.c **** 	// Clip
 6772              		.loc 1 1284 58 is_stmt 1 view -0
 6773              		.cfi_startproc
 6774              		@ args = 0, pretend = 0, frame = 0
 6775              		@ frame_needed = 0, uses_anonymous_args = 0
1286:Drivers/display_ILI-93xx_sm/lcd.c **** 
 6776              		.loc 1 1286 2 view .LVU2110
1286:Drivers/display_ILI-93xx_sm/lcd.c **** 
 6777              		.loc 1 1286 5 is_stmt 0 view .LVU2111
 6778 0000 0028     		cmp	r0, #0
 6779              	.LVL419:
1286:Drivers/display_ILI-93xx_sm/lcd.c **** 
 6780              		.loc 1 1286 5 view .LVU2112
 6781 0002 C0F2BE80 		blt	.L351
1286:Drivers/display_ILI-93xx_sm/lcd.c **** 
 6782              		.loc 1 1286 14 discriminator 2 view .LVU2113
 6783 0006 0029     		cmp	r1, #0
 6784 0008 C0F2BB80 		blt	.L351
1284:Drivers/display_ILI-93xx_sm/lcd.c **** 	// Clip
 6785              		.loc 1 1284 58 discriminator 4 view .LVU2114
 6786 000c F8B5     		push	{r3, r4, r5, r6, r7, lr}
 6787              	.LCFI22:
 6788              		.cfi_def_cfa_offset 24
 6789              		.cfi_offset 3, -24
 6790              		.cfi_offset 4, -20
 6791              		.cfi_offset 5, -16
 6792              		.cfi_offset 6, -12
 6793              		.cfi_offset 7, -8
 6794              		.cfi_offset 14, -4
1286:Drivers/display_ILI-93xx_sm/lcd.c **** 
 6795              		.loc 1 1286 31 discriminator 4 view .LVU2115
 6796 000e 5D4B     		ldr	r3, .L361
 6797 0010 B3F90050 		ldrsh	r5, [r3]
1286:Drivers/display_ILI-93xx_sm/lcd.c **** 
 6798              		.loc 1 1286 25 discriminator 4 view .LVU2116
 6799 0014 8542     		cmp	r5, r0
 6800 0016 04DD     		ble	.L336
1286:Drivers/display_ILI-93xx_sm/lcd.c **** 
 6801              		.loc 1 1286 49 discriminator 6 view .LVU2117
 6802 0018 5B4B     		ldr	r3, .L361+4
ARM GAS  /tmp/cc47Teva.s 			page 180


 6803 001a B3F90030 		ldrsh	r3, [r3]
1286:Drivers/display_ILI-93xx_sm/lcd.c **** 
 6804              		.loc 1 1286 43 discriminator 6 view .LVU2118
 6805 001e 8B42     		cmp	r3, r1
 6806 0020 00DC     		bgt	.L354
 6807              	.LVL420:
 6808              	.L336:
1344:Drivers/display_ILI-93xx_sm/lcd.c **** 
 6809              		.loc 1 1344 1 view .LVU2119
 6810 0022 F8BD     		pop	{r3, r4, r5, r6, r7, pc}
 6811              	.LVL421:
 6812              	.L354:
1344:Drivers/display_ILI-93xx_sm/lcd.c **** 
 6813              		.loc 1 1344 1 view .LVU2120
 6814 0024 1446     		mov	r4, r2
1288:Drivers/display_ILI-93xx_sm/lcd.c **** 
 6815              		.loc 1 1288 2 is_stmt 1 view .LVU2121
 6816 0026 594E     		ldr	r6, .L361+8
 6817 0028 4FF48037 		mov	r7, #65536
 6818 002c 3761     		str	r7, [r6, #16]
1312:Drivers/display_ILI-93xx_sm/lcd.c **** 	LCD_CS_ACTIVE();
 6819              		.loc 1 1312 2 view .LVU2122
 6820 002e 013B     		subs	r3, r3, #1
 6821 0030 6A1E     		subs	r2, r5, #1
 6822              	.LVL422:
1312:Drivers/display_ILI-93xx_sm/lcd.c **** 	LCD_CS_ACTIVE();
 6823              		.loc 1 1312 2 is_stmt 0 view .LVU2123
 6824 0032 9BB2     		uxth	r3, r3
 6825 0034 92B2     		uxth	r2, r2
 6826 0036 89B2     		uxth	r1, r1
1312:Drivers/display_ILI-93xx_sm/lcd.c **** 	LCD_CS_ACTIVE();
 6827              		.loc 1 1312 2 view .LVU2124
 6828 0038 80B2     		uxth	r0, r0
 6829 003a FFF7FEFF 		bl	LCD_SetAddrWindow
 6830              	.LVL423:
1313:Drivers/display_ILI-93xx_sm/lcd.c **** 	LCD_Write16Register8(ILI9341_MEMORYWRITE, color);
 6831              		.loc 1 1313 2 is_stmt 1 view .LVU2125
 6832 003e 3761     		str	r7, [r6, #16]
1314:Drivers/display_ILI-93xx_sm/lcd.c **** #elif defined(HX8347D) || defined(HX8347G)
 6833              		.loc 1 1314 2 view .LVU2126
 6834              	.LVL424:
 6835              	.LBB700:
 6836              	.LBI700:
 930:Drivers/display_ILI-93xx_sm/lcd.c **** 	LCD_CD_COMMAND();
 6837              		.loc 1 930 13 view .LVU2127
 6838              	.LBB701:
 931:Drivers/display_ILI-93xx_sm/lcd.c **** 	LCD_Write8(a);
 6839              		.loc 1 931 2 view .LVU2128
 6840 0040 534A     		ldr	r2, .L361+12
 6841 0042 4FF48013 		mov	r3, #1048576
 6842 0046 1361     		str	r3, [r2, #16]
 932:Drivers/display_ILI-93xx_sm/lcd.c **** 	LCD_CD_DATA();
 6843              		.loc 1 932 2 view .LVU2129
 6844              	.LVL425:
 6845              	.LBB702:
 6846              	.LBI702:
 847:Drivers/display_ILI-93xx_sm/lcd.c **** 	// ------ PORT -----     --- Data ----
ARM GAS  /tmp/cc47Teva.s 			page 181


 6847              		.loc 1 847 13 view .LVU2130
 6848              	.LBB703:
 860:Drivers/display_ILI-93xx_sm/lcd.c **** 	GPIOB->ODR = (GPIOB->ODR & 0xFBC7) | (data & 0x08) | ((data & 0x10) << 1) | ((data & 0x20) >> 1) |
 6849              		.loc 1 860 2 view .LVU2131
 860:Drivers/display_ILI-93xx_sm/lcd.c **** 	GPIOB->ODR = (GPIOB->ODR & 0xFBC7) | (data & 0x08) | ((data & 0x10) << 1) | ((data & 0x20) >> 1) |
 6850              		.loc 1 860 21 is_stmt 0 view .LVU2132
 6851 0048 D368     		ldr	r3, [r2, #12]
 860:Drivers/display_ILI-93xx_sm/lcd.c **** 	GPIOB->ODR = (GPIOB->ODR & 0xFBC7) | (data & 0x08) | ((data & 0x10) << 1) | ((data & 0x20) >> 1) |
 6852              		.loc 1 860 27 view .LVU2133
 6853 004a 23F4F063 		bic	r3, r3, #1920
 6854 004e 1B04     		lsls	r3, r3, #16
 6855 0050 1B0C     		lsrs	r3, r3, #16
 860:Drivers/display_ILI-93xx_sm/lcd.c **** 	GPIOB->ODR = (GPIOB->ODR & 0xFBC7) | (data & 0x08) | ((data & 0x10) << 1) | ((data & 0x20) >> 1) |
 6856              		.loc 1 860 60 view .LVU2134
 6857 0052 43F48063 		orr	r3, r3, #1024
 860:Drivers/display_ILI-93xx_sm/lcd.c **** 	GPIOB->ODR = (GPIOB->ODR & 0xFBC7) | (data & 0x08) | ((data & 0x10) << 1) | ((data & 0x20) >> 1) |
 6858              		.loc 1 860 13 view .LVU2135
 6859 0056 D360     		str	r3, [r2, #12]
 861:Drivers/display_ILI-93xx_sm/lcd.c **** #else
 6860              		.loc 1 861 2 is_stmt 1 view .LVU2136
 861:Drivers/display_ILI-93xx_sm/lcd.c **** #else
 6861              		.loc 1 861 21 is_stmt 0 view .LVU2137
 6862 0058 F368     		ldr	r3, [r6, #12]
 861:Drivers/display_ILI-93xx_sm/lcd.c **** #else
 6863              		.loc 1 861 27 view .LVU2138
 6864 005a 23F48763 		bic	r3, r3, #1080
 6865 005e 1B04     		lsls	r3, r3, #16
 6866 0060 1B0C     		lsrs	r3, r3, #16
 861:Drivers/display_ILI-93xx_sm/lcd.c **** #else
 6867              		.loc 1 861 76 view .LVU2139
 6868 0062 43F01803 		orr	r3, r3, #24
 861:Drivers/display_ILI-93xx_sm/lcd.c **** #else
 6869              		.loc 1 861 13 view .LVU2140
 6870 0066 F360     		str	r3, [r6, #12]
 869:Drivers/display_ILI-93xx_sm/lcd.c **** }
 6871              		.loc 1 869 2 is_stmt 1 view .LVU2141
 869:Drivers/display_ILI-93xx_sm/lcd.c **** }
 6872              		.loc 1 869 2 view .LVU2142
 6873 0068 4FF40033 		mov	r3, #131072
 6874 006c 1361     		str	r3, [r2, #16]
 869:Drivers/display_ILI-93xx_sm/lcd.c **** }
 6875              		.loc 1 869 2 view .LVU2143
 6876              	.LVL426:
 6877              	.LBB704:
 6878              	.LBI704:
 668:Drivers/display_ILI-93xx_sm/lcd.c **** 	for (; t; t--) __asm("nop");
 6879              		.loc 1 668 13 view .LVU2144
 6880              	.LBB705:
 669:Drivers/display_ILI-93xx_sm/lcd.c **** }
 6881              		.loc 1 669 2 view .LVU2145
 6882              	.LBE705:
 6883              	.LBE704:
 869:Drivers/display_ILI-93xx_sm/lcd.c **** }
 6884              		.loc 1 869 2 is_stmt 0 view .LVU2146
 6885 006e 0223     		movs	r3, #2
 6886              	.LVL427:
 6887              	.L338:
ARM GAS  /tmp/cc47Teva.s 			page 182


 6888              	.LBB707:
 6889              	.LBB706:
 669:Drivers/display_ILI-93xx_sm/lcd.c **** }
 6890              		.loc 1 669 2 view .LVU2147
 6891 0070 13B1     		cbz	r3, .L355
 669:Drivers/display_ILI-93xx_sm/lcd.c **** }
 6892              		.loc 1 669 17 is_stmt 1 view .LVU2148
 6893              		.syntax unified
 6894              	@ 669 "Drivers/display_ILI-93xx_sm/lcd.c" 1
 6895 0072 00BF     		nop
 6896              	@ 0 "" 2
 669:Drivers/display_ILI-93xx_sm/lcd.c **** }
 6897              		.loc 1 669 13 is_stmt 0 view .LVU2149
 6898              		.thumb
 6899              		.syntax unified
 6900 0074 013B     		subs	r3, r3, #1
 6901              	.LVL428:
 669:Drivers/display_ILI-93xx_sm/lcd.c **** }
 6902              		.loc 1 669 13 view .LVU2150
 6903 0076 FBE7     		b	.L338
 6904              	.L355:
 6905              	.LVL429:
 669:Drivers/display_ILI-93xx_sm/lcd.c **** }
 6906              		.loc 1 669 13 view .LVU2151
 6907              	.LBE706:
 6908              	.LBE707:
 869:Drivers/display_ILI-93xx_sm/lcd.c **** }
 6909              		.loc 1 869 2 is_stmt 1 view .LVU2152
 6910 0078 0223     		movs	r3, #2
 6911 007a 454A     		ldr	r2, .L361+12
 6912 007c 1361     		str	r3, [r2, #16]
 869:Drivers/display_ILI-93xx_sm/lcd.c **** }
 6913              		.loc 1 869 2 view .LVU2153
 6914              	.LVL430:
 6915              	.LBB708:
 6916              	.LBI708:
 668:Drivers/display_ILI-93xx_sm/lcd.c **** 	for (; t; t--) __asm("nop");
 6917              		.loc 1 668 13 view .LVU2154
 6918              	.L340:
 6919              	.LBB709:
 669:Drivers/display_ILI-93xx_sm/lcd.c **** }
 6920              		.loc 1 669 2 is_stmt 0 view .LVU2155
 6921 007e 13B1     		cbz	r3, .L356
 669:Drivers/display_ILI-93xx_sm/lcd.c **** }
 6922              		.loc 1 669 17 is_stmt 1 view .LVU2156
 6923              		.syntax unified
 6924              	@ 669 "Drivers/display_ILI-93xx_sm/lcd.c" 1
 6925 0080 00BF     		nop
 6926              	@ 0 "" 2
 669:Drivers/display_ILI-93xx_sm/lcd.c **** }
 6927              		.loc 1 669 13 is_stmt 0 view .LVU2157
 6928              		.thumb
 6929              		.syntax unified
 6930 0082 013B     		subs	r3, r3, #1
 6931              	.LVL431:
 669:Drivers/display_ILI-93xx_sm/lcd.c **** }
 6932              		.loc 1 669 13 view .LVU2158
ARM GAS  /tmp/cc47Teva.s 			page 183


 6933 0084 FBE7     		b	.L340
 6934              	.L356:
 6935              	.LVL432:
 669:Drivers/display_ILI-93xx_sm/lcd.c **** }
 6936              		.loc 1 669 13 view .LVU2159
 6937              	.LBE709:
 6938              	.LBE708:
 6939              	.LBE703:
 6940              	.LBE702:
 933:Drivers/display_ILI-93xx_sm/lcd.c **** 	LCD_Write8(d >> 8);
 6941              		.loc 1 933 2 is_stmt 1 view .LVU2160
 6942 0086 4248     		ldr	r0, .L361+12
 6943 0088 1023     		movs	r3, #16
 6944 008a 0361     		str	r3, [r0, #16]
 934:Drivers/display_ILI-93xx_sm/lcd.c **** 	LCD_Write8(d);
 6945              		.loc 1 934 2 view .LVU2161
 6946 008c 230A     		lsrs	r3, r4, #8
 6947              	.LBB710:
 6948              	.LBI710:
 847:Drivers/display_ILI-93xx_sm/lcd.c **** 	// ------ PORT -----     --- Data ----
 6949              		.loc 1 847 13 view .LVU2162
 6950              	.LBB711:
 860:Drivers/display_ILI-93xx_sm/lcd.c **** 	GPIOB->ODR = (GPIOB->ODR & 0xFBC7) | (data & 0x08) | ((data & 0x10) << 1) | ((data & 0x20) >> 1) |
 6951              		.loc 1 860 2 view .LVU2163
 860:Drivers/display_ILI-93xx_sm/lcd.c **** 	GPIOB->ODR = (GPIOB->ODR & 0xFBC7) | (data & 0x08) | ((data & 0x10) << 1) | ((data & 0x20) >> 1) |
 6952              		.loc 1 860 21 is_stmt 0 view .LVU2164
 6953 008e C168     		ldr	r1, [r0, #12]
 860:Drivers/display_ILI-93xx_sm/lcd.c **** 	GPIOB->ODR = (GPIOB->ODR & 0xFBC7) | (data & 0x08) | ((data & 0x10) << 1) | ((data & 0x20) >> 1) |
 6954              		.loc 1 860 27 view .LVU2165
 6955 0090 21F4F061 		bic	r1, r1, #1920
 6956 0094 0904     		lsls	r1, r1, #16
 6957 0096 090C     		lsrs	r1, r1, #16
 860:Drivers/display_ILI-93xx_sm/lcd.c **** 	GPIOB->ODR = (GPIOB->ODR & 0xFBC7) | (data & 0x08) | ((data & 0x10) << 1) | ((data & 0x20) >> 1) |
 6958              		.loc 1 860 54 view .LVU2166
 6959 0098 5A02     		lsls	r2, r3, #9
 6960 009a 02F40072 		and	r2, r2, #512
 860:Drivers/display_ILI-93xx_sm/lcd.c **** 	GPIOB->ODR = (GPIOB->ODR & 0xFBC7) | (data & 0x08) | ((data & 0x10) << 1) | ((data & 0x20) >> 1) |
 6961              		.loc 1 860 37 view .LVU2167
 6962 009e 1143     		orrs	r1, r1, r2
 860:Drivers/display_ILI-93xx_sm/lcd.c **** 	GPIOB->ODR = (GPIOB->ODR & 0xFBC7) | (data & 0x08) | ((data & 0x10) << 1) | ((data & 0x20) >> 1) |
 6963              		.loc 1 860 77 view .LVU2168
 6964 00a0 1A02     		lsls	r2, r3, #8
 6965 00a2 02F48062 		and	r2, r2, #1024
 860:Drivers/display_ILI-93xx_sm/lcd.c **** 	GPIOB->ODR = (GPIOB->ODR & 0xFBC7) | (data & 0x08) | ((data & 0x10) << 1) | ((data & 0x20) >> 1) |
 6966              		.loc 1 860 60 view .LVU2169
 6967 00a6 1143     		orrs	r1, r1, r2
 860:Drivers/display_ILI-93xx_sm/lcd.c **** 	GPIOB->ODR = (GPIOB->ODR & 0xFBC7) | (data & 0x08) | ((data & 0x10) << 1) | ((data & 0x20) >> 1) |
 6968              		.loc 1 860 100 view .LVU2170
 6969 00a8 5D00     		lsls	r5, r3, #1
 6970 00aa 05F48072 		and	r2, r5, #256
 860:Drivers/display_ILI-93xx_sm/lcd.c **** 	GPIOB->ODR = (GPIOB->ODR & 0xFBC7) | (data & 0x08) | ((data & 0x10) << 1) | ((data & 0x20) >> 1) |
 6971              		.loc 1 860 83 view .LVU2171
 6972 00ae 1143     		orrs	r1, r1, r2
 860:Drivers/display_ILI-93xx_sm/lcd.c **** 	GPIOB->ODR = (GPIOB->ODR & 0xFBC7) | (data & 0x08) | ((data & 0x10) << 1) | ((data & 0x20) >> 1) |
 6973              		.loc 1 860 123 view .LVU2172
 6974 00b0 9A01     		lsls	r2, r3, #6
 6975 00b2 02F08002 		and	r2, r2, #128
ARM GAS  /tmp/cc47Teva.s 			page 184


 860:Drivers/display_ILI-93xx_sm/lcd.c **** 	GPIOB->ODR = (GPIOB->ODR & 0xFBC7) | (data & 0x08) | ((data & 0x10) << 1) | ((data & 0x20) >> 1) |
 6976              		.loc 1 860 106 view .LVU2173
 6977 00b6 1143     		orrs	r1, r1, r2
 860:Drivers/display_ILI-93xx_sm/lcd.c **** 	GPIOB->ODR = (GPIOB->ODR & 0xFBC7) | (data & 0x08) | ((data & 0x10) << 1) | ((data & 0x20) >> 1) |
 6978              		.loc 1 860 13 view .LVU2174
 6979 00b8 C160     		str	r1, [r0, #12]
 861:Drivers/display_ILI-93xx_sm/lcd.c **** #else
 6980              		.loc 1 861 2 is_stmt 1 view .LVU2175
 861:Drivers/display_ILI-93xx_sm/lcd.c **** #else
 6981              		.loc 1 861 21 is_stmt 0 view .LVU2176
 6982 00ba 3449     		ldr	r1, .L361+8
 6983 00bc CA68     		ldr	r2, [r1, #12]
 861:Drivers/display_ILI-93xx_sm/lcd.c **** #else
 6984              		.loc 1 861 27 view .LVU2177
 6985 00be 22F48762 		bic	r2, r2, #1080
 6986 00c2 1204     		lsls	r2, r2, #16
 6987 00c4 120C     		lsrs	r2, r2, #16
 861:Drivers/display_ILI-93xx_sm/lcd.c **** #else
 6988              		.loc 1 861 45 view .LVU2178
 6989 00c6 03F00806 		and	r6, r3, #8
 861:Drivers/display_ILI-93xx_sm/lcd.c **** #else
 6990              		.loc 1 861 37 view .LVU2179
 6991 00ca 3243     		orrs	r2, r2, r6
 861:Drivers/display_ILI-93xx_sm/lcd.c **** #else
 6992              		.loc 1 861 70 view .LVU2180
 6993 00cc 05F02005 		and	r5, r5, #32
 861:Drivers/display_ILI-93xx_sm/lcd.c **** #else
 6994              		.loc 1 861 53 view .LVU2181
 6995 00d0 2A43     		orrs	r2, r2, r5
 861:Drivers/display_ILI-93xx_sm/lcd.c **** #else
 6996              		.loc 1 861 93 view .LVU2182
 6997 00d2 5D10     		asrs	r5, r3, #1
 6998 00d4 05F01005 		and	r5, r5, #16
 861:Drivers/display_ILI-93xx_sm/lcd.c **** #else
 6999              		.loc 1 861 76 view .LVU2183
 7000 00d8 2A43     		orrs	r2, r2, r5
 861:Drivers/display_ILI-93xx_sm/lcd.c **** #else
 7001              		.loc 1 861 116 view .LVU2184
 7002 00da 1B01     		lsls	r3, r3, #4
 7003 00dc 03F48063 		and	r3, r3, #1024
 861:Drivers/display_ILI-93xx_sm/lcd.c **** #else
 7004              		.loc 1 861 99 view .LVU2185
 7005 00e0 1343     		orrs	r3, r3, r2
 861:Drivers/display_ILI-93xx_sm/lcd.c **** #else
 7006              		.loc 1 861 13 view .LVU2186
 7007 00e2 CB60     		str	r3, [r1, #12]
 869:Drivers/display_ILI-93xx_sm/lcd.c **** }
 7008              		.loc 1 869 2 is_stmt 1 view .LVU2187
 869:Drivers/display_ILI-93xx_sm/lcd.c **** }
 7009              		.loc 1 869 2 view .LVU2188
 7010 00e4 4FF40033 		mov	r3, #131072
 7011 00e8 0361     		str	r3, [r0, #16]
 869:Drivers/display_ILI-93xx_sm/lcd.c **** }
 7012              		.loc 1 869 2 view .LVU2189
 7013              	.LVL433:
 7014              	.LBB712:
 7015              	.LBI712:
ARM GAS  /tmp/cc47Teva.s 			page 185


 668:Drivers/display_ILI-93xx_sm/lcd.c **** 	for (; t; t--) __asm("nop");
 7016              		.loc 1 668 13 view .LVU2190
 7017              	.LBB713:
 669:Drivers/display_ILI-93xx_sm/lcd.c **** }
 7018              		.loc 1 669 2 view .LVU2191
 7019              	.LBE713:
 7020              	.LBE712:
 869:Drivers/display_ILI-93xx_sm/lcd.c **** }
 7021              		.loc 1 869 2 is_stmt 0 view .LVU2192
 7022 00ea 0223     		movs	r3, #2
 7023              	.LVL434:
 7024              	.L342:
 7025              	.LBB715:
 7026              	.LBB714:
 669:Drivers/display_ILI-93xx_sm/lcd.c **** }
 7027              		.loc 1 669 2 view .LVU2193
 7028 00ec 13B1     		cbz	r3, .L357
 669:Drivers/display_ILI-93xx_sm/lcd.c **** }
 7029              		.loc 1 669 17 is_stmt 1 view .LVU2194
 7030              		.syntax unified
 7031              	@ 669 "Drivers/display_ILI-93xx_sm/lcd.c" 1
 7032 00ee 00BF     		nop
 7033              	@ 0 "" 2
 669:Drivers/display_ILI-93xx_sm/lcd.c **** }
 7034              		.loc 1 669 13 is_stmt 0 view .LVU2195
 7035              		.thumb
 7036              		.syntax unified
 7037 00f0 013B     		subs	r3, r3, #1
 7038              	.LVL435:
 669:Drivers/display_ILI-93xx_sm/lcd.c **** }
 7039              		.loc 1 669 13 view .LVU2196
 7040 00f2 FBE7     		b	.L342
 7041              	.L357:
 7042              	.LVL436:
 669:Drivers/display_ILI-93xx_sm/lcd.c **** }
 7043              		.loc 1 669 13 view .LVU2197
 7044              	.LBE714:
 7045              	.LBE715:
 869:Drivers/display_ILI-93xx_sm/lcd.c **** }
 7046              		.loc 1 869 2 is_stmt 1 view .LVU2198
 7047 00f4 0223     		movs	r3, #2
 7048 00f6 264A     		ldr	r2, .L361+12
 7049 00f8 1361     		str	r3, [r2, #16]
 869:Drivers/display_ILI-93xx_sm/lcd.c **** }
 7050              		.loc 1 869 2 view .LVU2199
 7051              	.LVL437:
 7052              	.LBB716:
 7053              	.LBI716:
 668:Drivers/display_ILI-93xx_sm/lcd.c **** 	for (; t; t--) __asm("nop");
 7054              		.loc 1 668 13 view .LVU2200
 7055              	.L344:
 7056              	.LBB717:
 669:Drivers/display_ILI-93xx_sm/lcd.c **** }
 7057              		.loc 1 669 2 is_stmt 0 view .LVU2201
 7058 00fa 13B1     		cbz	r3, .L358
 669:Drivers/display_ILI-93xx_sm/lcd.c **** }
 7059              		.loc 1 669 17 is_stmt 1 view .LVU2202
ARM GAS  /tmp/cc47Teva.s 			page 186


 7060              		.syntax unified
 7061              	@ 669 "Drivers/display_ILI-93xx_sm/lcd.c" 1
 7062 00fc 00BF     		nop
 7063              	@ 0 "" 2
 669:Drivers/display_ILI-93xx_sm/lcd.c **** }
 7064              		.loc 1 669 13 is_stmt 0 view .LVU2203
 7065              		.thumb
 7066              		.syntax unified
 7067 00fe 013B     		subs	r3, r3, #1
 7068              	.LVL438:
 669:Drivers/display_ILI-93xx_sm/lcd.c **** }
 7069              		.loc 1 669 13 view .LVU2204
 7070 0100 FBE7     		b	.L344
 7071              	.L358:
 7072              	.LVL439:
 669:Drivers/display_ILI-93xx_sm/lcd.c **** }
 7073              		.loc 1 669 13 view .LVU2205
 7074              	.LBE717:
 7075              	.LBE716:
 7076              	.LBE711:
 7077              	.LBE710:
 935:Drivers/display_ILI-93xx_sm/lcd.c **** }
 7078              		.loc 1 935 2 is_stmt 1 view .LVU2206
 7079 0102 E4B2     		uxtb	r4, r4
 7080              	.LVL440:
 7081              	.LBB718:
 7082              	.LBI718:
 847:Drivers/display_ILI-93xx_sm/lcd.c **** 	// ------ PORT -----     --- Data ----
 7083              		.loc 1 847 13 view .LVU2207
 7084              	.LBB719:
 860:Drivers/display_ILI-93xx_sm/lcd.c **** 	GPIOB->ODR = (GPIOB->ODR & 0xFBC7) | (data & 0x08) | ((data & 0x10) << 1) | ((data & 0x20) >> 1) |
 7085              		.loc 1 860 2 view .LVU2208
 860:Drivers/display_ILI-93xx_sm/lcd.c **** 	GPIOB->ODR = (GPIOB->ODR & 0xFBC7) | (data & 0x08) | ((data & 0x10) << 1) | ((data & 0x20) >> 1) |
 7086              		.loc 1 860 21 is_stmt 0 view .LVU2209
 7087 0104 2248     		ldr	r0, .L361+12
 7088 0106 C168     		ldr	r1, [r0, #12]
 860:Drivers/display_ILI-93xx_sm/lcd.c **** 	GPIOB->ODR = (GPIOB->ODR & 0xFBC7) | (data & 0x08) | ((data & 0x10) << 1) | ((data & 0x20) >> 1) |
 7089              		.loc 1 860 27 view .LVU2210
 7090 0108 21F4F061 		bic	r1, r1, #1920
 7091 010c 0904     		lsls	r1, r1, #16
 7092 010e 090C     		lsrs	r1, r1, #16
 860:Drivers/display_ILI-93xx_sm/lcd.c **** 	GPIOB->ODR = (GPIOB->ODR & 0xFBC7) | (data & 0x08) | ((data & 0x10) << 1) | ((data & 0x20) >> 1) |
 7093              		.loc 1 860 54 view .LVU2211
 7094 0110 6302     		lsls	r3, r4, #9
 7095 0112 03F40073 		and	r3, r3, #512
 860:Drivers/display_ILI-93xx_sm/lcd.c **** 	GPIOB->ODR = (GPIOB->ODR & 0xFBC7) | (data & 0x08) | ((data & 0x10) << 1) | ((data & 0x20) >> 1) |
 7096              		.loc 1 860 37 view .LVU2212
 7097 0116 1943     		orrs	r1, r1, r3
 860:Drivers/display_ILI-93xx_sm/lcd.c **** 	GPIOB->ODR = (GPIOB->ODR & 0xFBC7) | (data & 0x08) | ((data & 0x10) << 1) | ((data & 0x20) >> 1) |
 7098              		.loc 1 860 77 view .LVU2213
 7099 0118 2302     		lsls	r3, r4, #8
 7100 011a 03F48063 		and	r3, r3, #1024
 860:Drivers/display_ILI-93xx_sm/lcd.c **** 	GPIOB->ODR = (GPIOB->ODR & 0xFBC7) | (data & 0x08) | ((data & 0x10) << 1) | ((data & 0x20) >> 1) |
 7101              		.loc 1 860 60 view .LVU2214
 7102 011e 1943     		orrs	r1, r1, r3
 860:Drivers/display_ILI-93xx_sm/lcd.c **** 	GPIOB->ODR = (GPIOB->ODR & 0xFBC7) | (data & 0x08) | ((data & 0x10) << 1) | ((data & 0x20) >> 1) |
 7103              		.loc 1 860 100 view .LVU2215
ARM GAS  /tmp/cc47Teva.s 			page 187


 7104 0120 6200     		lsls	r2, r4, #1
 7105 0122 02F48073 		and	r3, r2, #256
 860:Drivers/display_ILI-93xx_sm/lcd.c **** 	GPIOB->ODR = (GPIOB->ODR & 0xFBC7) | (data & 0x08) | ((data & 0x10) << 1) | ((data & 0x20) >> 1) |
 7106              		.loc 1 860 83 view .LVU2216
 7107 0126 1943     		orrs	r1, r1, r3
 860:Drivers/display_ILI-93xx_sm/lcd.c **** 	GPIOB->ODR = (GPIOB->ODR & 0xFBC7) | (data & 0x08) | ((data & 0x10) << 1) | ((data & 0x20) >> 1) |
 7108              		.loc 1 860 123 view .LVU2217
 7109 0128 A301     		lsls	r3, r4, #6
 7110 012a 03F08003 		and	r3, r3, #128
 860:Drivers/display_ILI-93xx_sm/lcd.c **** 	GPIOB->ODR = (GPIOB->ODR & 0xFBC7) | (data & 0x08) | ((data & 0x10) << 1) | ((data & 0x20) >> 1) |
 7111              		.loc 1 860 106 view .LVU2218
 7112 012e 1943     		orrs	r1, r1, r3
 860:Drivers/display_ILI-93xx_sm/lcd.c **** 	GPIOB->ODR = (GPIOB->ODR & 0xFBC7) | (data & 0x08) | ((data & 0x10) << 1) | ((data & 0x20) >> 1) |
 7113              		.loc 1 860 13 view .LVU2219
 7114 0130 C160     		str	r1, [r0, #12]
 861:Drivers/display_ILI-93xx_sm/lcd.c **** #else
 7115              		.loc 1 861 2 is_stmt 1 view .LVU2220
 861:Drivers/display_ILI-93xx_sm/lcd.c **** #else
 7116              		.loc 1 861 21 is_stmt 0 view .LVU2221
 7117 0132 1649     		ldr	r1, .L361+8
 7118 0134 CB68     		ldr	r3, [r1, #12]
 861:Drivers/display_ILI-93xx_sm/lcd.c **** #else
 7119              		.loc 1 861 27 view .LVU2222
 7120 0136 23F48763 		bic	r3, r3, #1080
 7121 013a 1B04     		lsls	r3, r3, #16
 7122 013c 1B0C     		lsrs	r3, r3, #16
 861:Drivers/display_ILI-93xx_sm/lcd.c **** #else
 7123              		.loc 1 861 45 view .LVU2223
 7124 013e 04F00805 		and	r5, r4, #8
 861:Drivers/display_ILI-93xx_sm/lcd.c **** #else
 7125              		.loc 1 861 37 view .LVU2224
 7126 0142 2B43     		orrs	r3, r3, r5
 861:Drivers/display_ILI-93xx_sm/lcd.c **** #else
 7127              		.loc 1 861 70 view .LVU2225
 7128 0144 02F02002 		and	r2, r2, #32
 861:Drivers/display_ILI-93xx_sm/lcd.c **** #else
 7129              		.loc 1 861 53 view .LVU2226
 7130 0148 1343     		orrs	r3, r3, r2
 861:Drivers/display_ILI-93xx_sm/lcd.c **** #else
 7131              		.loc 1 861 93 view .LVU2227
 7132 014a 6210     		asrs	r2, r4, #1
 7133 014c 02F01002 		and	r2, r2, #16
 861:Drivers/display_ILI-93xx_sm/lcd.c **** #else
 7134              		.loc 1 861 76 view .LVU2228
 7135 0150 1343     		orrs	r3, r3, r2
 861:Drivers/display_ILI-93xx_sm/lcd.c **** #else
 7136              		.loc 1 861 116 view .LVU2229
 7137 0152 2401     		lsls	r4, r4, #4
 7138              	.LVL441:
 861:Drivers/display_ILI-93xx_sm/lcd.c **** #else
 7139              		.loc 1 861 116 view .LVU2230
 7140 0154 04F48064 		and	r4, r4, #1024
 861:Drivers/display_ILI-93xx_sm/lcd.c **** #else
 7141              		.loc 1 861 99 view .LVU2231
 7142 0158 2343     		orrs	r3, r3, r4
 861:Drivers/display_ILI-93xx_sm/lcd.c **** #else
 7143              		.loc 1 861 13 view .LVU2232
ARM GAS  /tmp/cc47Teva.s 			page 188


 7144 015a CB60     		str	r3, [r1, #12]
 869:Drivers/display_ILI-93xx_sm/lcd.c **** }
 7145              		.loc 1 869 2 is_stmt 1 view .LVU2233
 869:Drivers/display_ILI-93xx_sm/lcd.c **** }
 7146              		.loc 1 869 2 view .LVU2234
 7147 015c 4FF40033 		mov	r3, #131072
 7148 0160 0361     		str	r3, [r0, #16]
 869:Drivers/display_ILI-93xx_sm/lcd.c **** }
 7149              		.loc 1 869 2 view .LVU2235
 7150              	.LVL442:
 7151              	.LBB720:
 7152              	.LBI720:
 668:Drivers/display_ILI-93xx_sm/lcd.c **** 	for (; t; t--) __asm("nop");
 7153              		.loc 1 668 13 view .LVU2236
 7154              	.LBB721:
 669:Drivers/display_ILI-93xx_sm/lcd.c **** }
 7155              		.loc 1 669 2 view .LVU2237
 7156              	.LBE721:
 7157              	.LBE720:
 869:Drivers/display_ILI-93xx_sm/lcd.c **** }
 7158              		.loc 1 869 2 is_stmt 0 view .LVU2238
 7159 0162 0223     		movs	r3, #2
 7160              	.LVL443:
 7161              	.L346:
 7162              	.LBB723:
 7163              	.LBB722:
 669:Drivers/display_ILI-93xx_sm/lcd.c **** }
 7164              		.loc 1 669 2 view .LVU2239
 7165 0164 13B1     		cbz	r3, .L359
 669:Drivers/display_ILI-93xx_sm/lcd.c **** }
 7166              		.loc 1 669 17 is_stmt 1 view .LVU2240
 7167              		.syntax unified
 7168              	@ 669 "Drivers/display_ILI-93xx_sm/lcd.c" 1
 7169 0166 00BF     		nop
 7170              	@ 0 "" 2
 669:Drivers/display_ILI-93xx_sm/lcd.c **** }
 7171              		.loc 1 669 13 is_stmt 0 view .LVU2241
 7172              		.thumb
 7173              		.syntax unified
 7174 0168 013B     		subs	r3, r3, #1
 7175              	.LVL444:
 669:Drivers/display_ILI-93xx_sm/lcd.c **** }
 7176              		.loc 1 669 13 view .LVU2242
 7177 016a FBE7     		b	.L346
 7178              	.L359:
 7179              	.LVL445:
 669:Drivers/display_ILI-93xx_sm/lcd.c **** }
 7180              		.loc 1 669 13 view .LVU2243
 7181              	.LBE722:
 7182              	.LBE723:
 869:Drivers/display_ILI-93xx_sm/lcd.c **** }
 7183              		.loc 1 869 2 is_stmt 1 view .LVU2244
 7184 016c 0223     		movs	r3, #2
 7185 016e 084A     		ldr	r2, .L361+12
 7186 0170 1361     		str	r3, [r2, #16]
 869:Drivers/display_ILI-93xx_sm/lcd.c **** }
 7187              		.loc 1 869 2 view .LVU2245
ARM GAS  /tmp/cc47Teva.s 			page 189


 7188              	.LVL446:
 7189              	.LBB724:
 7190              	.LBI724:
 668:Drivers/display_ILI-93xx_sm/lcd.c **** 	for (; t; t--) __asm("nop");
 7191              		.loc 1 668 13 view .LVU2246
 7192              	.L348:
 7193              	.LBB725:
 669:Drivers/display_ILI-93xx_sm/lcd.c **** }
 7194              		.loc 1 669 2 is_stmt 0 view .LVU2247
 7195 0172 13B1     		cbz	r3, .L360
 669:Drivers/display_ILI-93xx_sm/lcd.c **** }
 7196              		.loc 1 669 17 is_stmt 1 view .LVU2248
 7197              		.syntax unified
 7198              	@ 669 "Drivers/display_ILI-93xx_sm/lcd.c" 1
 7199 0174 00BF     		nop
 7200              	@ 0 "" 2
 669:Drivers/display_ILI-93xx_sm/lcd.c **** }
 7201              		.loc 1 669 13 is_stmt 0 view .LVU2249
 7202              		.thumb
 7203              		.syntax unified
 7204 0176 013B     		subs	r3, r3, #1
 7205              	.LVL447:
 669:Drivers/display_ILI-93xx_sm/lcd.c **** }
 7206              		.loc 1 669 13 view .LVU2250
 7207 0178 FBE7     		b	.L348
 7208              	.L360:
 7209              	.LVL448:
 669:Drivers/display_ILI-93xx_sm/lcd.c **** }
 7210              		.loc 1 669 13 view .LVU2251
 7211              	.LBE725:
 7212              	.LBE724:
 7213              	.LBE719:
 7214              	.LBE718:
 7215              	.LBE701:
 7216              	.LBE700:
1343:Drivers/display_ILI-93xx_sm/lcd.c **** }
 7217              		.loc 1 1343 2 is_stmt 1 view .LVU2252
 7218 017a 044B     		ldr	r3, .L361+8
 7219 017c 0122     		movs	r2, #1
 7220 017e 1A61     		str	r2, [r3, #16]
 7221 0180 4FE7     		b	.L336
 7222              	.LVL449:
 7223              	.L351:
 7224              	.LCFI23:
 7225              		.cfi_def_cfa_offset 0
 7226              		.cfi_restore 3
 7227              		.cfi_restore 4
 7228              		.cfi_restore 5
 7229              		.cfi_restore 6
 7230              		.cfi_restore 7
 7231              		.cfi_restore 14
1343:Drivers/display_ILI-93xx_sm/lcd.c **** }
 7232              		.loc 1 1343 2 is_stmt 0 view .LVU2253
 7233 0182 7047     		bx	lr
 7234              	.L362:
 7235              		.align	2
 7236              	.L361:
ARM GAS  /tmp/cc47Teva.s 			page 190


 7237 0184 00000000 		.word	.LANCHOR0
 7238 0188 00000000 		.word	.LANCHOR1
 7239 018c 000C0140 		.word	1073810432
 7240 0190 00080140 		.word	1073809408
 7241              		.cfi_endproc
 7242              	.LFE80:
 7244              		.section	.text.LCD_FillScreen,"ax",%progbits
 7245              		.align	1
 7246              		.global	LCD_FillScreen
 7247              		.syntax unified
 7248              		.thumb
 7249              		.thumb_func
 7250              		.fpu softvfp
 7252              	LCD_FillScreen:
 7253              	.LVL450:
 7254              	.LFB82:
1414:Drivers/display_ILI-93xx_sm/lcd.c **** #if defined(ILI9325) || defined(ILI9328) || defined(R61505) || defined(R61505V) || defined(SSD1297)
 7255              		.loc 1 1414 37 is_stmt 1 view -0
 7256              		.cfi_startproc
 7257              		@ args = 0, pretend = 0, frame = 0
 7258              		@ frame_needed = 0, uses_anonymous_args = 0
1414:Drivers/display_ILI-93xx_sm/lcd.c **** #if defined(ILI9325) || defined(ILI9328) || defined(R61505) || defined(R61505V) || defined(SSD1297)
 7259              		.loc 1 1414 37 is_stmt 0 view .LVU2255
 7260 0000 10B5     		push	{r4, lr}
 7261              	.LCFI24:
 7262              		.cfi_def_cfa_offset 8
 7263              		.cfi_offset 4, -8
 7264              		.cfi_offset 14, -4
 7265 0002 0446     		mov	r4, r0
1460:Drivers/display_ILI-93xx_sm/lcd.c **** #endif
 7266              		.loc 1 1460 2 is_stmt 1 view .LVU2256
 7267 0004 084B     		ldr	r3, .L365
 7268 0006 1B88     		ldrh	r3, [r3]
 7269 0008 013B     		subs	r3, r3, #1
 7270 000a 084A     		ldr	r2, .L365+4
 7271 000c 1288     		ldrh	r2, [r2]
 7272 000e 013A     		subs	r2, r2, #1
 7273 0010 9BB2     		uxth	r3, r3
 7274 0012 92B2     		uxth	r2, r2
 7275 0014 0021     		movs	r1, #0
 7276 0016 0846     		mov	r0, r1
 7277              	.LVL451:
1460:Drivers/display_ILI-93xx_sm/lcd.c **** #endif
 7278              		.loc 1 1460 2 is_stmt 0 view .LVU2257
 7279 0018 FFF7FEFF 		bl	LCD_SetAddrWindow
 7280              	.LVL452:
1462:Drivers/display_ILI-93xx_sm/lcd.c **** }
 7281              		.loc 1 1462 2 is_stmt 1 view .LVU2258
 7282 001c 4FF49631 		mov	r1, #76800
 7283 0020 2046     		mov	r0, r4
 7284 0022 FFF7FEFF 		bl	LCD_Flood
 7285              	.LVL453:
1463:Drivers/display_ILI-93xx_sm/lcd.c **** 
 7286              		.loc 1 1463 1 is_stmt 0 view .LVU2259
 7287 0026 10BD     		pop	{r4, pc}
 7288              	.L366:
 7289              		.align	2
ARM GAS  /tmp/cc47Teva.s 			page 191


 7290              	.L365:
 7291 0028 00000000 		.word	.LANCHOR1
 7292 002c 00000000 		.word	.LANCHOR0
 7293              		.cfi_endproc
 7294              	.LFE82:
 7296              		.section	.text.LCD_SetRotation,"ax",%progbits
 7297              		.align	1
 7298              		.global	LCD_SetRotation
 7299              		.syntax unified
 7300              		.thumb
 7301              		.thumb_func
 7302              		.fpu softvfp
 7304              	LCD_SetRotation:
 7305              	.LVL454:
 7306              	.LFB85:
1592:Drivers/display_ILI-93xx_sm/lcd.c **** 
1593:Drivers/display_ILI-93xx_sm/lcd.c **** #if defined(HX8347D) || defined(HX8347G)
1594:Drivers/display_ILI-93xx_sm/lcd.c **** /*
1595:Drivers/display_ILI-93xx_sm/lcd.c **** 	Unlike the 932X drivers that set the address window to the full screen
1596:Drivers/display_ILI-93xx_sm/lcd.c **** 	by default (using the address counter for drawPixel operations), the
1597:Drivers/display_ILI-93xx_sm/lcd.c **** 	7575 needs the address window set on all graphics operations.  In order
1598:Drivers/display_ILI-93xx_sm/lcd.c **** 	to save a few register writes on each pixel drawn, the lower-right
1599:Drivers/display_ILI-93xx_sm/lcd.c **** 	corner of the address window is reset after most fill operations, so
1600:Drivers/display_ILI-93xx_sm/lcd.c **** 	that drawPixel only needs to change the upper left each time.
1601:Drivers/display_ILI-93xx_sm/lcd.c **** */
1602:Drivers/display_ILI-93xx_sm/lcd.c **** void LCD_SetLR(void) {
1603:Drivers/display_ILI-93xx_sm/lcd.c **** 	LCD_CS_ACTIVE();
1604:Drivers/display_ILI-93xx_sm/lcd.c **** 	LCD_Write16RegisterPair8(HX8347G_COLADDREND_HI, HX8347G_COLADDREND_LO, m_width - 1);
1605:Drivers/display_ILI-93xx_sm/lcd.c **** 	LCD_Write16RegisterPair8(HX8347G_ROWADDREND_HI, HX8347G_ROWADDREND_LO, m_height - 1);
1606:Drivers/display_ILI-93xx_sm/lcd.c **** 	LCD_CS_IDLE();
1607:Drivers/display_ILI-93xx_sm/lcd.c **** }
1608:Drivers/display_ILI-93xx_sm/lcd.c **** #endif
1609:Drivers/display_ILI-93xx_sm/lcd.c **** 
1610:Drivers/display_ILI-93xx_sm/lcd.c **** /**
1611:Drivers/display_ILI-93xx_sm/lcd.c ****  * \brief Set display rotation
1612:Drivers/display_ILI-93xx_sm/lcd.c ****  *
1613:Drivers/display_ILI-93xx_sm/lcd.c ****  * \param x	rotation
1614:Drivers/display_ILI-93xx_sm/lcd.c ****  *
1615:Drivers/display_ILI-93xx_sm/lcd.c ****  * \return void
1616:Drivers/display_ILI-93xx_sm/lcd.c ****  */
1617:Drivers/display_ILI-93xx_sm/lcd.c **** void LCD_SetRotation(uint8_t x) {
 7307              		.loc 1 1617 33 is_stmt 1 view -0
 7308              		.cfi_startproc
 7309              		@ args = 0, pretend = 0, frame = 0
 7310              		@ frame_needed = 0, uses_anonymous_args = 0
 7311              		.loc 1 1617 33 is_stmt 0 view .LVU2261
 7312 0000 10B5     		push	{r4, lr}
 7313              	.LCFI25:
 7314              		.cfi_def_cfa_offset 8
 7315              		.cfi_offset 4, -8
 7316              		.cfi_offset 14, -4
1618:Drivers/display_ILI-93xx_sm/lcd.c **** 	m_rotation = (x & 3);
 7317              		.loc 1 1618 2 is_stmt 1 view .LVU2262
 7318              		.loc 1 1618 18 is_stmt 0 view .LVU2263
 7319 0002 00F00300 		and	r0, r0, #3
 7320              	.LVL455:
 7321              		.loc 1 1618 13 view .LVU2264
ARM GAS  /tmp/cc47Teva.s 			page 192


 7322 0006 444B     		ldr	r3, .L387
 7323 0008 1870     		strb	r0, [r3]
1619:Drivers/display_ILI-93xx_sm/lcd.c **** 	switch (m_rotation) {
 7324              		.loc 1 1619 2 is_stmt 1 view .LVU2265
 7325 000a 0128     		cmp	r0, #1
 7326 000c 30D0     		beq	.L368
 7327 000e 0328     		cmp	r0, #3
 7328 0010 2ED0     		beq	.L368
1620:Drivers/display_ILI-93xx_sm/lcd.c **** 	default:
1621:Drivers/display_ILI-93xx_sm/lcd.c **** 	case 0:
1622:Drivers/display_ILI-93xx_sm/lcd.c **** 	case 2:
1623:Drivers/display_ILI-93xx_sm/lcd.c **** 		m_width = TFTWIDTH;
 7329              		.loc 1 1623 3 view .LVU2266
 7330              		.loc 1 1623 11 is_stmt 0 view .LVU2267
 7331 0012 424B     		ldr	r3, .L387+4
 7332 0014 F022     		movs	r2, #240
 7333 0016 1A80     		strh	r2, [r3]	@ movhi
1624:Drivers/display_ILI-93xx_sm/lcd.c **** 		m_height = TFTHEIGHT;
 7334              		.loc 1 1624 3 is_stmt 1 view .LVU2268
 7335              		.loc 1 1624 12 is_stmt 0 view .LVU2269
 7336 0018 414B     		ldr	r3, .L387+8
 7337 001a 4FF4A072 		mov	r2, #320
 7338 001e 1A80     		strh	r2, [r3]	@ movhi
1625:Drivers/display_ILI-93xx_sm/lcd.c **** 		break;
 7339              		.loc 1 1625 3 is_stmt 1 view .LVU2270
 7340              	.L369:
1626:Drivers/display_ILI-93xx_sm/lcd.c **** 	case 1:
1627:Drivers/display_ILI-93xx_sm/lcd.c **** 	case 3:
1628:Drivers/display_ILI-93xx_sm/lcd.c **** 		m_width = TFTHEIGHT;
1629:Drivers/display_ILI-93xx_sm/lcd.c **** 		m_height = TFTWIDTH;
1630:Drivers/display_ILI-93xx_sm/lcd.c **** 		break;
1631:Drivers/display_ILI-93xx_sm/lcd.c **** 	}
1632:Drivers/display_ILI-93xx_sm/lcd.c **** 	LCD_CS_ACTIVE();
 7341              		.loc 1 1632 2 view .LVU2271
 7342 0020 404B     		ldr	r3, .L387+12
 7343 0022 4FF48032 		mov	r2, #65536
 7344 0026 1A61     		str	r2, [r3, #16]
1633:Drivers/display_ILI-93xx_sm/lcd.c **** #if	defined(ILI9325) || defined(ILI9328) || defined(R61505) || defined(R61505V) || defined(S6D0154)
1634:Drivers/display_ILI-93xx_sm/lcd.c ****     uint16_t t;
1635:Drivers/display_ILI-93xx_sm/lcd.c ****     switch(m_rotation) {
1636:Drivers/display_ILI-93xx_sm/lcd.c **** 		default: t = 0x1030; break;
1637:Drivers/display_ILI-93xx_sm/lcd.c **** 		case 1: t = 0x1028; break;
1638:Drivers/display_ILI-93xx_sm/lcd.c **** 		case 2: t = 0x1000; break;
1639:Drivers/display_ILI-93xx_sm/lcd.c **** 		case 3: t = 0x1018; break;
1640:Drivers/display_ILI-93xx_sm/lcd.c ****     }
1641:Drivers/display_ILI-93xx_sm/lcd.c ****     LCD_Write16Register16(ILI932X_ENTRY_MOD, t); // MADCTL
1642:Drivers/display_ILI-93xx_sm/lcd.c ****     // For 932X, init default full-screen address window:
1643:Drivers/display_ILI-93xx_sm/lcd.c ****     LCD_SetAddrWindow(0, 0, m_width - 1, m_height - 1);
1644:Drivers/display_ILI-93xx_sm/lcd.c **** #elif defined(ILI9340) || defined(ILI9341) || defined(ILI9341_00) || defined(R61520)
1645:Drivers/display_ILI-93xx_sm/lcd.c ****     uint8_t t;
 7345              		.loc 1 1645 5 view .LVU2272
1646:Drivers/display_ILI-93xx_sm/lcd.c ****     switch (m_rotation) {
 7346              		.loc 1 1646 5 view .LVU2273
 7347 0028 0228     		cmp	r0, #2
 7348 002a 29D0     		beq	.L379
 7349 002c 0328     		cmp	r0, #3
 7350 002e 29D0     		beq	.L380
ARM GAS  /tmp/cc47Teva.s 			page 193


 7351 0030 0128     		cmp	r0, #1
 7352 0032 29D0     		beq	.L381
1647:Drivers/display_ILI-93xx_sm/lcd.c **** 		default: t = ILI9341_MADCTL_MX | ILI9341_MADCTL_BGR; break;
 7353              		.loc 1 1647 14 is_stmt 0 view .LVU2274
 7354 0034 4822     		movs	r2, #72
 7355              	.L370:
 7356              	.LVL456:
1648:Drivers/display_ILI-93xx_sm/lcd.c **** 		case 1: t = ILI9341_MADCTL_MV | ILI9341_MADCTL_BGR; break;
1649:Drivers/display_ILI-93xx_sm/lcd.c **** 		case 2: t = ILI9341_MADCTL_MY | ILI9341_MADCTL_BGR; break;
1650:Drivers/display_ILI-93xx_sm/lcd.c **** 		case 3:	t = ILI9341_MADCTL_MX | ILI9341_MADCTL_MY | ILI9341_MADCTL_MV | ILI9341_MADCTL_BGR; break
1651:Drivers/display_ILI-93xx_sm/lcd.c ****     }
1652:Drivers/display_ILI-93xx_sm/lcd.c ****     LCD_Write8Register8(ILI9341_MADCTL, t); // MADCTL
 7357              		.loc 1 1652 5 is_stmt 1 view .LVU2275
 7358              	.LBB740:
 7359              	.LBI740:
 915:Drivers/display_ILI-93xx_sm/lcd.c **** 	LCD_CD_COMMAND();
 7360              		.loc 1 915 13 view .LVU2276
 7361              	.LBB741:
 916:Drivers/display_ILI-93xx_sm/lcd.c **** 	LCD_Write8(a);
 7362              		.loc 1 916 2 view .LVU2277
 7363 0036 3C49     		ldr	r1, .L387+16
 7364 0038 4FF48013 		mov	r3, #1048576
 7365 003c 0B61     		str	r3, [r1, #16]
 917:Drivers/display_ILI-93xx_sm/lcd.c **** 	LCD_CD_DATA();
 7366              		.loc 1 917 2 view .LVU2278
 7367              	.LVL457:
 7368              	.LBB742:
 7369              	.LBI742:
 847:Drivers/display_ILI-93xx_sm/lcd.c **** 	// ------ PORT -----     --- Data ----
 7370              		.loc 1 847 13 view .LVU2279
 7371              	.LBB743:
 860:Drivers/display_ILI-93xx_sm/lcd.c **** 	GPIOB->ODR = (GPIOB->ODR & 0xFBC7) | (data & 0x08) | ((data & 0x10) << 1) | ((data & 0x20) >> 1) |
 7372              		.loc 1 860 2 view .LVU2280
 860:Drivers/display_ILI-93xx_sm/lcd.c **** 	GPIOB->ODR = (GPIOB->ODR & 0xFBC7) | (data & 0x08) | ((data & 0x10) << 1) | ((data & 0x20) >> 1) |
 7373              		.loc 1 860 21 is_stmt 0 view .LVU2281
 7374 003e CB68     		ldr	r3, [r1, #12]
 860:Drivers/display_ILI-93xx_sm/lcd.c **** 	GPIOB->ODR = (GPIOB->ODR & 0xFBC7) | (data & 0x08) | ((data & 0x10) << 1) | ((data & 0x20) >> 1) |
 7375              		.loc 1 860 27 view .LVU2282
 7376 0040 23F4F063 		bic	r3, r3, #1920
 7377 0044 1B04     		lsls	r3, r3, #16
 7378 0046 1B0C     		lsrs	r3, r3, #16
 860:Drivers/display_ILI-93xx_sm/lcd.c **** 	GPIOB->ODR = (GPIOB->ODR & 0xFBC7) | (data & 0x08) | ((data & 0x10) << 1) | ((data & 0x20) >> 1) |
 7379              		.loc 1 860 106 view .LVU2283
 7380 0048 43F49063 		orr	r3, r3, #1152
 860:Drivers/display_ILI-93xx_sm/lcd.c **** 	GPIOB->ODR = (GPIOB->ODR & 0xFBC7) | (data & 0x08) | ((data & 0x10) << 1) | ((data & 0x20) >> 1) |
 7381              		.loc 1 860 13 view .LVU2284
 7382 004c CB60     		str	r3, [r1, #12]
 861:Drivers/display_ILI-93xx_sm/lcd.c **** #else
 7383              		.loc 1 861 2 is_stmt 1 view .LVU2285
 861:Drivers/display_ILI-93xx_sm/lcd.c **** #else
 7384              		.loc 1 861 21 is_stmt 0 view .LVU2286
 7385 004e 3548     		ldr	r0, .L387+12
 7386 0050 C368     		ldr	r3, [r0, #12]
 861:Drivers/display_ILI-93xx_sm/lcd.c **** #else
 7387              		.loc 1 861 27 view .LVU2287
 7388 0052 23F48763 		bic	r3, r3, #1080
 7389 0056 1B04     		lsls	r3, r3, #16
ARM GAS  /tmp/cc47Teva.s 			page 194


 7390 0058 1B0C     		lsrs	r3, r3, #16
 861:Drivers/display_ILI-93xx_sm/lcd.c **** #else
 7391              		.loc 1 861 76 view .LVU2288
 7392 005a 43F03003 		orr	r3, r3, #48
 861:Drivers/display_ILI-93xx_sm/lcd.c **** #else
 7393              		.loc 1 861 13 view .LVU2289
 7394 005e C360     		str	r3, [r0, #12]
 869:Drivers/display_ILI-93xx_sm/lcd.c **** }
 7395              		.loc 1 869 2 is_stmt 1 view .LVU2290
 869:Drivers/display_ILI-93xx_sm/lcd.c **** }
 7396              		.loc 1 869 2 view .LVU2291
 7397 0060 4FF40033 		mov	r3, #131072
 7398 0064 0B61     		str	r3, [r1, #16]
 869:Drivers/display_ILI-93xx_sm/lcd.c **** }
 7399              		.loc 1 869 2 view .LVU2292
 7400              	.LVL458:
 7401              	.LBB744:
 7402              	.LBI744:
 668:Drivers/display_ILI-93xx_sm/lcd.c **** 	for (; t; t--) __asm("nop");
 7403              		.loc 1 668 13 view .LVU2293
 7404              	.LBB745:
 669:Drivers/display_ILI-93xx_sm/lcd.c **** }
 7405              		.loc 1 669 2 view .LVU2294
 7406              	.LBE745:
 7407              	.LBE744:
 869:Drivers/display_ILI-93xx_sm/lcd.c **** }
 7408              		.loc 1 869 2 is_stmt 0 view .LVU2295
 7409 0066 0223     		movs	r3, #2
 7410              	.LVL459:
 7411              	.L371:
 7412              	.LBB747:
 7413              	.LBB746:
 669:Drivers/display_ILI-93xx_sm/lcd.c **** }
 7414              		.loc 1 669 2 view .LVU2296
 7415 0068 83B1     		cbz	r3, .L383
 669:Drivers/display_ILI-93xx_sm/lcd.c **** }
 7416              		.loc 1 669 17 is_stmt 1 view .LVU2297
 7417              		.syntax unified
 7418              	@ 669 "Drivers/display_ILI-93xx_sm/lcd.c" 1
 7419 006a 00BF     		nop
 7420              	@ 0 "" 2
 669:Drivers/display_ILI-93xx_sm/lcd.c **** }
 7421              		.loc 1 669 13 is_stmt 0 view .LVU2298
 7422              		.thumb
 7423              		.syntax unified
 7424 006c 013B     		subs	r3, r3, #1
 7425              	.LVL460:
 669:Drivers/display_ILI-93xx_sm/lcd.c **** }
 7426              		.loc 1 669 13 view .LVU2299
 7427 006e FBE7     		b	.L371
 7428              	.LVL461:
 7429              	.L368:
 669:Drivers/display_ILI-93xx_sm/lcd.c **** }
 7430              		.loc 1 669 13 view .LVU2300
 7431              	.LBE746:
 7432              	.LBE747:
 7433              	.LBE743:
ARM GAS  /tmp/cc47Teva.s 			page 195


 7434              	.LBE742:
 7435              	.LBE741:
 7436              	.LBE740:
1628:Drivers/display_ILI-93xx_sm/lcd.c **** 		m_height = TFTWIDTH;
 7437              		.loc 1 1628 3 is_stmt 1 view .LVU2301
1628:Drivers/display_ILI-93xx_sm/lcd.c **** 		m_height = TFTWIDTH;
 7438              		.loc 1 1628 11 is_stmt 0 view .LVU2302
 7439 0070 2A4B     		ldr	r3, .L387+4
 7440 0072 4FF4A072 		mov	r2, #320
 7441 0076 1A80     		strh	r2, [r3]	@ movhi
1629:Drivers/display_ILI-93xx_sm/lcd.c **** 		break;
 7442              		.loc 1 1629 3 is_stmt 1 view .LVU2303
1629:Drivers/display_ILI-93xx_sm/lcd.c **** 		break;
 7443              		.loc 1 1629 12 is_stmt 0 view .LVU2304
 7444 0078 294B     		ldr	r3, .L387+8
 7445 007a F022     		movs	r2, #240
 7446 007c 1A80     		strh	r2, [r3]	@ movhi
1630:Drivers/display_ILI-93xx_sm/lcd.c **** 	}
 7447              		.loc 1 1630 3 is_stmt 1 view .LVU2305
 7448 007e CFE7     		b	.L369
 7449              	.L379:
1649:Drivers/display_ILI-93xx_sm/lcd.c **** 		case 3:	t = ILI9341_MADCTL_MX | ILI9341_MADCTL_MY | ILI9341_MADCTL_MV | ILI9341_MADCTL_BGR; break
 7450              		.loc 1 1649 13 is_stmt 0 view .LVU2306
 7451 0080 8822     		movs	r2, #136
 7452 0082 D8E7     		b	.L370
 7453              	.L380:
1650:Drivers/display_ILI-93xx_sm/lcd.c ****     }
 7454              		.loc 1 1650 13 view .LVU2307
 7455 0084 E822     		movs	r2, #232
 7456 0086 D6E7     		b	.L370
 7457              	.L381:
1648:Drivers/display_ILI-93xx_sm/lcd.c **** 		case 2: t = ILI9341_MADCTL_MY | ILI9341_MADCTL_BGR; break;
 7458              		.loc 1 1648 13 view .LVU2308
 7459 0088 2822     		movs	r2, #40
 7460 008a D4E7     		b	.L370
 7461              	.LVL462:
 7462              	.L383:
 7463              	.LBB761:
 7464              	.LBB760:
 7465              	.LBB751:
 7466              	.LBB750:
 869:Drivers/display_ILI-93xx_sm/lcd.c **** }
 7467              		.loc 1 869 2 is_stmt 1 view .LVU2309
 7468 008c 0223     		movs	r3, #2
 7469 008e 2649     		ldr	r1, .L387+16
 7470 0090 0B61     		str	r3, [r1, #16]
 869:Drivers/display_ILI-93xx_sm/lcd.c **** }
 7471              		.loc 1 869 2 view .LVU2310
 7472              	.LVL463:
 7473              	.LBB748:
 7474              	.LBI748:
 668:Drivers/display_ILI-93xx_sm/lcd.c **** 	for (; t; t--) __asm("nop");
 7475              		.loc 1 668 13 view .LVU2311
 7476              	.L373:
 7477              	.LBB749:
 669:Drivers/display_ILI-93xx_sm/lcd.c **** }
 7478              		.loc 1 669 2 is_stmt 0 view .LVU2312
ARM GAS  /tmp/cc47Teva.s 			page 196


 7479 0092 13B1     		cbz	r3, .L384
 669:Drivers/display_ILI-93xx_sm/lcd.c **** }
 7480              		.loc 1 669 17 is_stmt 1 view .LVU2313
 7481              		.syntax unified
 7482              	@ 669 "Drivers/display_ILI-93xx_sm/lcd.c" 1
 7483 0094 00BF     		nop
 7484              	@ 0 "" 2
 669:Drivers/display_ILI-93xx_sm/lcd.c **** }
 7485              		.loc 1 669 13 is_stmt 0 view .LVU2314
 7486              		.thumb
 7487              		.syntax unified
 7488 0096 013B     		subs	r3, r3, #1
 7489              	.LVL464:
 669:Drivers/display_ILI-93xx_sm/lcd.c **** }
 7490              		.loc 1 669 13 view .LVU2315
 7491 0098 FBE7     		b	.L373
 7492              	.L384:
 7493              	.LVL465:
 669:Drivers/display_ILI-93xx_sm/lcd.c **** }
 7494              		.loc 1 669 13 view .LVU2316
 7495              	.LBE749:
 7496              	.LBE748:
 7497              	.LBE750:
 7498              	.LBE751:
 918:Drivers/display_ILI-93xx_sm/lcd.c **** 	LCD_Write8(d);
 7499              		.loc 1 918 2 is_stmt 1 view .LVU2317
 7500 009a 2349     		ldr	r1, .L387+16
 7501 009c 1023     		movs	r3, #16
 7502 009e 0B61     		str	r3, [r1, #16]
 919:Drivers/display_ILI-93xx_sm/lcd.c **** }
 7503              		.loc 1 919 2 view .LVU2318
 7504              	.LVL466:
 7505              	.LBB752:
 7506              	.LBI752:
 847:Drivers/display_ILI-93xx_sm/lcd.c **** 	// ------ PORT -----     --- Data ----
 7507              		.loc 1 847 13 view .LVU2319
 7508              	.LBB753:
 860:Drivers/display_ILI-93xx_sm/lcd.c **** 	GPIOB->ODR = (GPIOB->ODR & 0xFBC7) | (data & 0x08) | ((data & 0x10) << 1) | ((data & 0x20) >> 1) |
 7509              		.loc 1 860 2 view .LVU2320
 860:Drivers/display_ILI-93xx_sm/lcd.c **** 	GPIOB->ODR = (GPIOB->ODR & 0xFBC7) | (data & 0x08) | ((data & 0x10) << 1) | ((data & 0x20) >> 1) |
 7510              		.loc 1 860 21 is_stmt 0 view .LVU2321
 7511 00a0 CB68     		ldr	r3, [r1, #12]
 860:Drivers/display_ILI-93xx_sm/lcd.c **** 	GPIOB->ODR = (GPIOB->ODR & 0xFBC7) | (data & 0x08) | ((data & 0x10) << 1) | ((data & 0x20) >> 1) |
 7512              		.loc 1 860 60 view .LVU2322
 7513 00a2 23F4F063 		bic	r3, r3, #1920
 7514 00a6 1B04     		lsls	r3, r3, #16
 7515 00a8 1B0C     		lsrs	r3, r3, #16
 860:Drivers/display_ILI-93xx_sm/lcd.c **** 	GPIOB->ODR = (GPIOB->ODR & 0xFBC7) | (data & 0x08) | ((data & 0x10) << 1) | ((data & 0x20) >> 1) |
 7516              		.loc 1 860 100 view .LVU2323
 7517 00aa 5000     		lsls	r0, r2, #1
 7518 00ac 00F48070 		and	r0, r0, #256
 860:Drivers/display_ILI-93xx_sm/lcd.c **** 	GPIOB->ODR = (GPIOB->ODR & 0xFBC7) | (data & 0x08) | ((data & 0x10) << 1) | ((data & 0x20) >> 1) |
 7519              		.loc 1 860 106 view .LVU2324
 7520 00b0 0343     		orrs	r3, r3, r0
 860:Drivers/display_ILI-93xx_sm/lcd.c **** 	GPIOB->ODR = (GPIOB->ODR & 0xFBC7) | (data & 0x08) | ((data & 0x10) << 1) | ((data & 0x20) >> 1) |
 7521              		.loc 1 860 13 view .LVU2325
 7522 00b2 CB60     		str	r3, [r1, #12]
ARM GAS  /tmp/cc47Teva.s 			page 197


 861:Drivers/display_ILI-93xx_sm/lcd.c **** #else
 7523              		.loc 1 861 2 is_stmt 1 view .LVU2326
 861:Drivers/display_ILI-93xx_sm/lcd.c **** #else
 7524              		.loc 1 861 21 is_stmt 0 view .LVU2327
 7525 00b4 1B4C     		ldr	r4, .L387+12
 7526 00b6 E368     		ldr	r3, [r4, #12]
 861:Drivers/display_ILI-93xx_sm/lcd.c **** #else
 7527              		.loc 1 861 27 view .LVU2328
 7528 00b8 23F48763 		bic	r3, r3, #1080
 7529 00bc 1B04     		lsls	r3, r3, #16
 7530 00be 1B0C     		lsrs	r3, r3, #16
 861:Drivers/display_ILI-93xx_sm/lcd.c **** #else
 7531              		.loc 1 861 45 view .LVU2329
 7532 00c0 02F00800 		and	r0, r2, #8
 861:Drivers/display_ILI-93xx_sm/lcd.c **** #else
 7533              		.loc 1 861 53 view .LVU2330
 7534 00c4 0343     		orrs	r3, r3, r0
 861:Drivers/display_ILI-93xx_sm/lcd.c **** #else
 7535              		.loc 1 861 93 view .LVU2331
 7536 00c6 5010     		asrs	r0, r2, #1
 7537 00c8 00F01000 		and	r0, r0, #16
 861:Drivers/display_ILI-93xx_sm/lcd.c **** #else
 7538              		.loc 1 861 76 view .LVU2332
 7539 00cc 0343     		orrs	r3, r3, r0
 861:Drivers/display_ILI-93xx_sm/lcd.c **** #else
 7540              		.loc 1 861 116 view .LVU2333
 7541 00ce 1201     		lsls	r2, r2, #4
 7542              	.LVL467:
 861:Drivers/display_ILI-93xx_sm/lcd.c **** #else
 7543              		.loc 1 861 116 view .LVU2334
 7544 00d0 02F48062 		and	r2, r2, #1024
 861:Drivers/display_ILI-93xx_sm/lcd.c **** #else
 7545              		.loc 1 861 99 view .LVU2335
 7546 00d4 1343     		orrs	r3, r3, r2
 861:Drivers/display_ILI-93xx_sm/lcd.c **** #else
 7547              		.loc 1 861 13 view .LVU2336
 7548 00d6 E360     		str	r3, [r4, #12]
 869:Drivers/display_ILI-93xx_sm/lcd.c **** }
 7549              		.loc 1 869 2 is_stmt 1 view .LVU2337
 869:Drivers/display_ILI-93xx_sm/lcd.c **** }
 7550              		.loc 1 869 2 view .LVU2338
 7551 00d8 4FF40033 		mov	r3, #131072
 7552 00dc 0B61     		str	r3, [r1, #16]
 869:Drivers/display_ILI-93xx_sm/lcd.c **** }
 7553              		.loc 1 869 2 view .LVU2339
 7554              	.LVL468:
 7555              	.LBB754:
 7556              	.LBI754:
 668:Drivers/display_ILI-93xx_sm/lcd.c **** 	for (; t; t--) __asm("nop");
 7557              		.loc 1 668 13 view .LVU2340
 7558              	.LBB755:
 669:Drivers/display_ILI-93xx_sm/lcd.c **** }
 7559              		.loc 1 669 2 view .LVU2341
 7560              	.LBE755:
 7561              	.LBE754:
 869:Drivers/display_ILI-93xx_sm/lcd.c **** }
 7562              		.loc 1 869 2 is_stmt 0 view .LVU2342
ARM GAS  /tmp/cc47Teva.s 			page 198


 7563 00de 0223     		movs	r3, #2
 7564              	.LVL469:
 7565              	.L375:
 7566              	.LBB757:
 7567              	.LBB756:
 669:Drivers/display_ILI-93xx_sm/lcd.c **** }
 7568              		.loc 1 669 2 view .LVU2343
 7569 00e0 13B1     		cbz	r3, .L385
 669:Drivers/display_ILI-93xx_sm/lcd.c **** }
 7570              		.loc 1 669 17 is_stmt 1 view .LVU2344
 7571              		.syntax unified
 7572              	@ 669 "Drivers/display_ILI-93xx_sm/lcd.c" 1
 7573 00e2 00BF     		nop
 7574              	@ 0 "" 2
 669:Drivers/display_ILI-93xx_sm/lcd.c **** }
 7575              		.loc 1 669 13 is_stmt 0 view .LVU2345
 7576              		.thumb
 7577              		.syntax unified
 7578 00e4 013B     		subs	r3, r3, #1
 7579              	.LVL470:
 669:Drivers/display_ILI-93xx_sm/lcd.c **** }
 7580              		.loc 1 669 13 view .LVU2346
 7581 00e6 FBE7     		b	.L375
 7582              	.L385:
 7583              	.LVL471:
 669:Drivers/display_ILI-93xx_sm/lcd.c **** }
 7584              		.loc 1 669 13 view .LVU2347
 7585              	.LBE756:
 7586              	.LBE757:
 869:Drivers/display_ILI-93xx_sm/lcd.c **** }
 7587              		.loc 1 869 2 is_stmt 1 view .LVU2348
 7588 00e8 0223     		movs	r3, #2
 7589 00ea 0F4A     		ldr	r2, .L387+16
 7590 00ec 1361     		str	r3, [r2, #16]
 869:Drivers/display_ILI-93xx_sm/lcd.c **** }
 7591              		.loc 1 869 2 view .LVU2349
 7592              	.LVL472:
 7593              	.LBB758:
 7594              	.LBI758:
 668:Drivers/display_ILI-93xx_sm/lcd.c **** 	for (; t; t--) __asm("nop");
 7595              		.loc 1 668 13 view .LVU2350
 7596              	.L377:
 7597              	.LBB759:
 669:Drivers/display_ILI-93xx_sm/lcd.c **** }
 7598              		.loc 1 669 2 is_stmt 0 view .LVU2351
 7599 00ee 13B1     		cbz	r3, .L386
 669:Drivers/display_ILI-93xx_sm/lcd.c **** }
 7600              		.loc 1 669 17 is_stmt 1 view .LVU2352
 7601              		.syntax unified
 7602              	@ 669 "Drivers/display_ILI-93xx_sm/lcd.c" 1
 7603 00f0 00BF     		nop
 7604              	@ 0 "" 2
 669:Drivers/display_ILI-93xx_sm/lcd.c **** }
 7605              		.loc 1 669 13 is_stmt 0 view .LVU2353
 7606              		.thumb
 7607              		.syntax unified
 7608 00f2 013B     		subs	r3, r3, #1
ARM GAS  /tmp/cc47Teva.s 			page 199


 7609              	.LVL473:
 669:Drivers/display_ILI-93xx_sm/lcd.c **** }
 7610              		.loc 1 669 13 view .LVU2354
 7611 00f4 FBE7     		b	.L377
 7612              	.L386:
 7613              	.LVL474:
 669:Drivers/display_ILI-93xx_sm/lcd.c **** }
 7614              		.loc 1 669 13 view .LVU2355
 7615              	.LBE759:
 7616              	.LBE758:
 7617              	.LBE753:
 7618              	.LBE752:
 7619              	.LBE760:
 7620              	.LBE761:
1653:Drivers/display_ILI-93xx_sm/lcd.c ****     // For 9341, init default full-screen address window:
1654:Drivers/display_ILI-93xx_sm/lcd.c ****     LCD_SetAddrWindow(0, 0, m_width - 1, m_height - 1);
 7621              		.loc 1 1654 5 is_stmt 1 view .LVU2356
 7622 00f6 0A4B     		ldr	r3, .L387+8
 7623 00f8 1B88     		ldrh	r3, [r3]
 7624 00fa 013B     		subs	r3, r3, #1
 7625 00fc 074A     		ldr	r2, .L387+4
 7626 00fe 1288     		ldrh	r2, [r2]
 7627 0100 013A     		subs	r2, r2, #1
 7628 0102 9BB2     		uxth	r3, r3
 7629 0104 92B2     		uxth	r2, r2
 7630 0106 0021     		movs	r1, #0
 7631 0108 0846     		mov	r0, r1
 7632 010a FFF7FEFF 		bl	LCD_SetAddrWindow
 7633              	.LVL475:
1655:Drivers/display_ILI-93xx_sm/lcd.c **** #elif defined(UNKNOWN1602)
1656:Drivers/display_ILI-93xx_sm/lcd.c **** 	uint8_t t;
1657:Drivers/display_ILI-93xx_sm/lcd.c **** 	switch (m_rotation) {
1658:Drivers/display_ILI-93xx_sm/lcd.c **** 		default: t = ILI9341_MADCTL_MX | ILI9341_MADCTL_MY | ILI9341_MADCTL_BGR; break;
1659:Drivers/display_ILI-93xx_sm/lcd.c **** 		case 1: t = ILI9341_MADCTL_MY | ILI9341_MADCTL_MV | ILI9341_MADCTL_BGR; break;
1660:Drivers/display_ILI-93xx_sm/lcd.c **** 		case 2: t = ILI9341_MADCTL_BGR; break;
1661:Drivers/display_ILI-93xx_sm/lcd.c **** 		case 3: t = ILI9341_MADCTL_MX | ILI9341_MADCTL_MV | ILI9341_MADCTL_BGR; break;
1662:Drivers/display_ILI-93xx_sm/lcd.c **** 	}
1663:Drivers/display_ILI-93xx_sm/lcd.c **** 	LCD_Write8Register8(ILI9341_MADCTL, t); // MADCTL
1664:Drivers/display_ILI-93xx_sm/lcd.c **** 	// For 9341, init default full-screen address window:
1665:Drivers/display_ILI-93xx_sm/lcd.c **** 	LCD_SetAddrWindow(0, 0, m_width - 1, m_height - 1);
1666:Drivers/display_ILI-93xx_sm/lcd.c **** #elif defined(HX8347D) || defined(HX8347G)
1667:Drivers/display_ILI-93xx_sm/lcd.c ****     uint8_t t;
1668:Drivers/display_ILI-93xx_sm/lcd.c **** 	switch(m_rotation) {
1669:Drivers/display_ILI-93xx_sm/lcd.c **** 		default: t = 0; break;
1670:Drivers/display_ILI-93xx_sm/lcd.c **** 		case 1: t = 0x60; break;
1671:Drivers/display_ILI-93xx_sm/lcd.c **** 		case 2: t = 0xc0; break;
1672:Drivers/display_ILI-93xx_sm/lcd.c **** 		case 3: t = 0xa0; break;
1673:Drivers/display_ILI-93xx_sm/lcd.c **** 	}
1674:Drivers/display_ILI-93xx_sm/lcd.c **** 	LCD_Write8Register8(HX8347G_MEMACCESS, t);
1675:Drivers/display_ILI-93xx_sm/lcd.c **** 	/*
1676:Drivers/display_ILI-93xx_sm/lcd.c **** 		7575 has to set the address window on most drawing operations.
1677:Drivers/display_ILI-93xx_sm/lcd.c **** 		drawPixel() cheats by setting only the top left...by default,
1678:Drivers/display_ILI-93xx_sm/lcd.c **** 		the lower right is always reset to the corner.
1679:Drivers/display_ILI-93xx_sm/lcd.c **** 	*/
1680:Drivers/display_ILI-93xx_sm/lcd.c **** 	LCD_SetLR();// CS_IDLE happens here
1681:Drivers/display_ILI-93xx_sm/lcd.c **** #elif defined(HX8357D)
1682:Drivers/display_ILI-93xx_sm/lcd.c ****     uint8_t t;
ARM GAS  /tmp/cc47Teva.s 			page 200


1683:Drivers/display_ILI-93xx_sm/lcd.c ****     switch (m_rotation) {
1684:Drivers/display_ILI-93xx_sm/lcd.c **** 		default: t = HX8357B_MADCTL_MX | HX8357B_MADCTL_MY | HX8357B_MADCTL_RGB;	break;
1685:Drivers/display_ILI-93xx_sm/lcd.c **** 		case 1:	t = HX8357B_MADCTL_MY | HX8357B_MADCTL_MV | HX8357B_MADCTL_RGB;	break;
1686:Drivers/display_ILI-93xx_sm/lcd.c **** 		case 2: t = HX8357B_MADCTL_RGB;	break;
1687:Drivers/display_ILI-93xx_sm/lcd.c **** 		case 3:	t = HX8357B_MADCTL_MX | HX8357B_MADCTL_MV | HX8357B_MADCTL_RGB;	break;
1688:Drivers/display_ILI-93xx_sm/lcd.c ****     }
1689:Drivers/display_ILI-93xx_sm/lcd.c ****     LCD_Write8Register8(HX8357_MADCTL, t); // MADCTL
1690:Drivers/display_ILI-93xx_sm/lcd.c ****     // For 8357, init default full-screen address window:
1691:Drivers/display_ILI-93xx_sm/lcd.c ****     LCD_SetAddrWindow(0, 0, m_width - 1, m_height - 1);
1692:Drivers/display_ILI-93xx_sm/lcd.c **** #elif defined(SSD1297)
1693:Drivers/display_ILI-93xx_sm/lcd.c ****     uint16_t t1, t2;
1694:Drivers/display_ILI-93xx_sm/lcd.c **** 	switch (m_rotation) {
1695:Drivers/display_ILI-93xx_sm/lcd.c **** 	default:
1696:Drivers/display_ILI-93xx_sm/lcd.c **** 		t1 = SSD1297_DRVOUTCTL_TB | SSD1297_DRVOUTCTL_REV | SSD1297_DRVOUTCTL_BGR | 0x013F;
1697:Drivers/display_ILI-93xx_sm/lcd.c **** 		t2 = SSD1297_ENTRYMODE1_ID3 | 0x4C00;
1698:Drivers/display_ILI-93xx_sm/lcd.c **** 		break;
1699:Drivers/display_ILI-93xx_sm/lcd.c **** 	case 1:
1700:Drivers/display_ILI-93xx_sm/lcd.c **** 		t1 = SSD1297_DRVOUTCTL_TB | SSD1297_DRVOUTCTL_RL | SSD1297_DRVOUTCTL_REV | SSD1297_DRVOUTCTL_BGR 
1701:Drivers/display_ILI-93xx_sm/lcd.c **** 		t2 = SSD1297_ENTRYMODE1_AM | SSD1297_ENTRYMODE1_ID3 | 0x4C00;
1702:Drivers/display_ILI-93xx_sm/lcd.c **** 		break;
1703:Drivers/display_ILI-93xx_sm/lcd.c **** 	case 2:
1704:Drivers/display_ILI-93xx_sm/lcd.c **** 		t1 = SSD1297_DRVOUTCTL_RL | SSD1297_DRVOUTCTL_REV | SSD1297_DRVOUTCTL_BGR | 0x013F;
1705:Drivers/display_ILI-93xx_sm/lcd.c **** 		t2 = SSD1297_ENTRYMODE1_ID3 | 0x4C00;
1706:Drivers/display_ILI-93xx_sm/lcd.c **** 		break;
1707:Drivers/display_ILI-93xx_sm/lcd.c **** 	case 3:
1708:Drivers/display_ILI-93xx_sm/lcd.c **** 		t1 = SSD1297_DRVOUTCTL_REV | SSD1297_DRVOUTCTL_BGR | 0x013F;
1709:Drivers/display_ILI-93xx_sm/lcd.c **** 		t2 = SSD1297_ENTRYMODE1_AM | SSD1297_ENTRYMODE1_ID3 | 0x4C00;
1710:Drivers/display_ILI-93xx_sm/lcd.c **** 		break;
1711:Drivers/display_ILI-93xx_sm/lcd.c **** 	}
1712:Drivers/display_ILI-93xx_sm/lcd.c **** 	LCD_Write16Register8(SSD1297_DRVOUTCTL, t1); // DRVOUT
1713:Drivers/display_ILI-93xx_sm/lcd.c **** 	LCD_Write16Register8(SSD1297_ENTRYMODE1, t2); // ENTRYMODE
1714:Drivers/display_ILI-93xx_sm/lcd.c ****     LCD_SetAddrWindow(0, 0, m_width - 1, m_height - 1);
1715:Drivers/display_ILI-93xx_sm/lcd.c **** #endif
1716:Drivers/display_ILI-93xx_sm/lcd.c **** 	LCD_CS_IDLE();
 7634              		.loc 1 1716 2 view .LVU2357
 7635 010e 054B     		ldr	r3, .L387+12
 7636 0110 0122     		movs	r2, #1
 7637 0112 1A61     		str	r2, [r3, #16]
1717:Drivers/display_ILI-93xx_sm/lcd.c **** }
 7638              		.loc 1 1717 1 is_stmt 0 view .LVU2358
 7639 0114 10BD     		pop	{r4, pc}
 7640              	.L388:
 7641 0116 00BF     		.align	2
 7642              	.L387:
 7643 0118 00000000 		.word	.LANCHOR2
 7644 011c 00000000 		.word	.LANCHOR0
 7645 0120 00000000 		.word	.LANCHOR1
 7646 0124 000C0140 		.word	1073810432
 7647 0128 00080140 		.word	1073809408
 7648              		.cfi_endproc
 7649              	.LFE85:
 7651              		.section	.text.LCD_DrawBMP,"ax",%progbits
 7652              		.align	1
 7653              		.global	LCD_DrawBMP
 7654              		.syntax unified
 7655              		.thumb
 7656              		.thumb_func
ARM GAS  /tmp/cc47Teva.s 			page 201


 7657              		.fpu softvfp
 7659              	LCD_DrawBMP:
 7660              	.LVL476:
 7661              	.LFB86:
1718:Drivers/display_ILI-93xx_sm/lcd.c **** 
1719:Drivers/display_ILI-93xx_sm/lcd.c **** /**
1720:Drivers/display_ILI-93xx_sm/lcd.c ****  * \brief  Draws a BMP picture loaded in the STM32 MCU internal memory.
1721:Drivers/display_ILI-93xx_sm/lcd.c ****  *
1722:Drivers/display_ILI-93xx_sm/lcd.c ****  * \param xPos		Bmp X position in the LCD
1723:Drivers/display_ILI-93xx_sm/lcd.c ****  * \param yPos		Bmp Y position in the LCD
1724:Drivers/display_ILI-93xx_sm/lcd.c ****  * \param pBmp		Pointer to Bmp picture address
1725:Drivers/display_ILI-93xx_sm/lcd.c ****  * \return void
1726:Drivers/display_ILI-93xx_sm/lcd.c ****  */
1727:Drivers/display_ILI-93xx_sm/lcd.c **** void LCD_DrawBMP(int16_t xPos, int16_t yPos, const uint8_t *pBmp) {
 7662              		.loc 1 1727 67 is_stmt 1 view -0
 7663              		.cfi_startproc
 7664              		@ args = 0, pretend = 0, frame = 0
 7665              		@ frame_needed = 0, uses_anonymous_args = 0
 7666              		.loc 1 1727 67 is_stmt 0 view .LVU2360
 7667 0000 2DE9F041 		push	{r4, r5, r6, r7, r8, lr}
 7668              	.LCFI26:
 7669              		.cfi_def_cfa_offset 24
 7670              		.cfi_offset 4, -24
 7671              		.cfi_offset 5, -20
 7672              		.cfi_offset 6, -16
 7673              		.cfi_offset 7, -12
 7674              		.cfi_offset 8, -8
 7675              		.cfi_offset 14, -4
1728:Drivers/display_ILI-93xx_sm/lcd.c **** 	uint8_t *ptr;
 7676              		.loc 1 1728 2 is_stmt 1 view .LVU2361
1729:Drivers/display_ILI-93xx_sm/lcd.c **** 	uint8_t *start;
 7677              		.loc 1 1729 2 view .LVU2362
1730:Drivers/display_ILI-93xx_sm/lcd.c **** 	uint8_t *end;
 7678              		.loc 1 1730 2 view .LVU2363
1731:Drivers/display_ILI-93xx_sm/lcd.c **** 	uint32_t offset = 0, size = 0;
 7679              		.loc 1 1731 2 view .LVU2364
 7680              	.LVL477:
1732:Drivers/display_ILI-93xx_sm/lcd.c **** 	int32_t height = 0, width = 0;
 7681              		.loc 1 1732 2 view .LVU2365
1733:Drivers/display_ILI-93xx_sm/lcd.c **** 	uint16_t colordepth = 0;
 7682              		.loc 1 1733 2 view .LVU2366
1734:Drivers/display_ILI-93xx_sm/lcd.c **** 
1735:Drivers/display_ILI-93xx_sm/lcd.c **** 	/* Read bitmap size */
1736:Drivers/display_ILI-93xx_sm/lcd.c **** 	size = *(volatile uint16_t *) (pBmp + 2);
 7683              		.loc 1 1736 2 view .LVU2367
 7684              		.loc 1 1736 9 is_stmt 0 view .LVU2368
 7685 0004 5688     		ldrh	r6, [r2, #2]
 7686              	.LVL478:
1737:Drivers/display_ILI-93xx_sm/lcd.c **** 	size |= (*(volatile uint16_t *) (pBmp + 4)) << 16;
 7687              		.loc 1 1737 2 is_stmt 1 view .LVU2369
 7688              		.loc 1 1737 11 is_stmt 0 view .LVU2370
 7689 0006 9388     		ldrh	r3, [r2, #4]
 7690              		.loc 1 1737 7 view .LVU2371
 7691 0008 46EA0346 		orr	r6, r6, r3, lsl #16
 7692              	.LVL479:
1738:Drivers/display_ILI-93xx_sm/lcd.c **** 	/* Get bitmap data address offset */
1739:Drivers/display_ILI-93xx_sm/lcd.c **** 	offset = *(volatile uint16_t *) (pBmp + 10);
ARM GAS  /tmp/cc47Teva.s 			page 202


 7693              		.loc 1 1739 2 is_stmt 1 view .LVU2372
 7694              		.loc 1 1739 11 is_stmt 0 view .LVU2373
 7695 000c 5489     		ldrh	r4, [r2, #10]
 7696              	.LVL480:
1740:Drivers/display_ILI-93xx_sm/lcd.c **** 	offset |= (*(volatile uint16_t *) (pBmp + 12)) << 16;
 7697              		.loc 1 1740 2 is_stmt 1 view .LVU2374
 7698              		.loc 1 1740 13 is_stmt 0 view .LVU2375
 7699 000e 9389     		ldrh	r3, [r2, #12]
 7700              		.loc 1 1740 9 view .LVU2376
 7701 0010 44EA0344 		orr	r4, r4, r3, lsl #16
 7702              	.LVL481:
1741:Drivers/display_ILI-93xx_sm/lcd.c **** 	/* Read bitmap width */
1742:Drivers/display_ILI-93xx_sm/lcd.c **** 	width = *(uint16_t *) (pBmp + 18);
 7703              		.loc 1 1742 2 is_stmt 1 view .LVU2377
 7704              		.loc 1 1742 10 is_stmt 0 view .LVU2378
 7705 0014 558A     		ldrh	r5, [r2, #18]
 7706              	.LVL482:
1743:Drivers/display_ILI-93xx_sm/lcd.c **** 	width |= (*(uint16_t *) (pBmp + 20)) << 16;
 7707              		.loc 1 1743 2 is_stmt 1 view .LVU2379
 7708              		.loc 1 1743 12 is_stmt 0 view .LVU2380
 7709 0016 938A     		ldrh	r3, [r2, #20]
 7710              		.loc 1 1743 8 view .LVU2381
 7711 0018 45EA0345 		orr	r5, r5, r3, lsl #16
 7712              	.LVL483:
1744:Drivers/display_ILI-93xx_sm/lcd.c **** 	/* Read bitmap height */
1745:Drivers/display_ILI-93xx_sm/lcd.c **** 	height = *(uint16_t *) (pBmp + 22);
 7713              		.loc 1 1745 2 is_stmt 1 view .LVU2382
 7714              		.loc 1 1745 11 is_stmt 0 view .LVU2383
 7715 001c D78A     		ldrh	r7, [r2, #22]
 7716              	.LVL484:
1746:Drivers/display_ILI-93xx_sm/lcd.c **** 	height |= (*(uint16_t *) (pBmp + 24)) << 16;
 7717              		.loc 1 1746 2 is_stmt 1 view .LVU2384
 7718              		.loc 1 1746 13 is_stmt 0 view .LVU2385
 7719 001e 138B     		ldrh	r3, [r2, #24]
 7720              		.loc 1 1746 9 view .LVU2386
 7721 0020 47EA0347 		orr	r7, r7, r3, lsl #16
 7722              	.LVL485:
1747:Drivers/display_ILI-93xx_sm/lcd.c **** 	/* Read color depth */
1748:Drivers/display_ILI-93xx_sm/lcd.c **** 	colordepth = *(uint16_t *) (pBmp + 28);
 7723              		.loc 1 1748 2 is_stmt 1 view .LVU2387
 7724              		.loc 1 1748 13 is_stmt 0 view .LVU2388
 7725 0024 B2F81C80 		ldrh	r8, [r2, #28]
 7726              	.LVL486:
1749:Drivers/display_ILI-93xx_sm/lcd.c **** 
1750:Drivers/display_ILI-93xx_sm/lcd.c **** 	/* Calculate pixel data boundary addresses */
1751:Drivers/display_ILI-93xx_sm/lcd.c **** 	start = (uint8_t *) pBmp + offset;
 7727              		.loc 1 1751 2 is_stmt 1 view .LVU2389
 7728              		.loc 1 1751 8 is_stmt 0 view .LVU2390
 7729 0028 1444     		add	r4, r4, r2
 7730              	.LVL487:
1752:Drivers/display_ILI-93xx_sm/lcd.c **** 	end = (uint8_t *) pBmp + size;
 7731              		.loc 1 1752 2 is_stmt 1 view .LVU2391
 7732              		.loc 1 1752 6 is_stmt 0 view .LVU2392
 7733 002a 1644     		add	r6, r6, r2
 7734              	.LVL488:
1753:Drivers/display_ILI-93xx_sm/lcd.c **** 
1754:Drivers/display_ILI-93xx_sm/lcd.c **** 	/* Start drawing */
ARM GAS  /tmp/cc47Teva.s 			page 203


1755:Drivers/display_ILI-93xx_sm/lcd.c **** 	if ((xPos + width >= m_width) || (yPos + abs(height) >= m_height)) return;
 7735              		.loc 1 1755 2 is_stmt 1 view .LVU2393
 7736              		.loc 1 1755 12 is_stmt 0 view .LVU2394
 7737 002c 4219     		adds	r2, r0, r5
 7738              	.LVL489:
 7739              		.loc 1 1755 20 view .LVU2395
 7740 002e BD4B     		ldr	r3, .L463
 7741 0030 B3F90030 		ldrsh	r3, [r3]
 7742              		.loc 1 1755 5 view .LVU2396
 7743 0034 9A42     		cmp	r2, r3
 7744 0036 0ADA     		bge	.L389
 7745              		.loc 1 1755 43 discriminator 2 view .LVU2397
 7746 0038 87EAE773 		eor	r3, r7, r7, asr #31
 7747 003c A3EBE773 		sub	r3, r3, r7, asr #31
 7748              		.loc 1 1755 41 discriminator 2 view .LVU2398
 7749 0040 01EB030C 		add	ip, r1, r3
 7750              		.loc 1 1755 55 discriminator 2 view .LVU2399
 7751 0044 B84A     		ldr	r2, .L463+4
 7752 0046 B2F90020 		ldrsh	r2, [r2]
 7753              		.loc 1 1755 32 discriminator 2 view .LVU2400
 7754 004a 9445     		cmp	ip, r2
 7755 004c 01DB     		blt	.L445
 7756              	.LVL490:
 7757              	.L389:
1756:Drivers/display_ILI-93xx_sm/lcd.c **** 	LCD_SetAddrWindow(xPos, yPos, xPos + width - 1, yPos + abs(height) - 1);
1757:Drivers/display_ILI-93xx_sm/lcd.c **** 	LCD_CS_ACTIVE();
1758:Drivers/display_ILI-93xx_sm/lcd.c **** 	LCD_CD_COMMAND();
1759:Drivers/display_ILI-93xx_sm/lcd.c **** #if	defined(ILI9325) || defined(ILI9328) || defined(R61505) || defined(R61505V) || defined(S6D0154)
1760:Drivers/display_ILI-93xx_sm/lcd.c **** 	LCD_Write8(0x00); // High byte of GRAM register...
1761:Drivers/display_ILI-93xx_sm/lcd.c **** 	LCD_Write8(ILI932X_GRAM_WR); // Write data to GRAM
1762:Drivers/display_ILI-93xx_sm/lcd.c **** #elif defined(ILI9340) || defined(ILI9341) || defined(ILI9341_00) || defined(R61520) || defined(UNK
1763:Drivers/display_ILI-93xx_sm/lcd.c **** 	LCD_Write8(ILI9341_MEMORYWRITE); // Write data to GRAM
1764:Drivers/display_ILI-93xx_sm/lcd.c **** #elif defined(HX8347D) || defined(HX8347G)
1765:Drivers/display_ILI-93xx_sm/lcd.c **** 	LCD_Write8(HX8347G_SRAM_WR); // Write data to GRAM
1766:Drivers/display_ILI-93xx_sm/lcd.c **** #elif defined(HX8357D)
1767:Drivers/display_ILI-93xx_sm/lcd.c **** 	LCD_Write8(HX8357_RAMWR); // Write data to GRAM
1768:Drivers/display_ILI-93xx_sm/lcd.c **** #elif defined(SSD1297)
1769:Drivers/display_ILI-93xx_sm/lcd.c **** 	LCD_Write8(SSD1297_RAMDATA_WRITE); // Write data to GRAM
1770:Drivers/display_ILI-93xx_sm/lcd.c **** #endif
1771:Drivers/display_ILI-93xx_sm/lcd.c **** 	LCD_CD_DATA();
1772:Drivers/display_ILI-93xx_sm/lcd.c **** 	if (height < 0) {
1773:Drivers/display_ILI-93xx_sm/lcd.c **** 		/* Top-bottom file */
1774:Drivers/display_ILI-93xx_sm/lcd.c **** 		ptr = start;
1775:Drivers/display_ILI-93xx_sm/lcd.c **** 		/* Draw image */
1776:Drivers/display_ILI-93xx_sm/lcd.c **** 		if (colordepth == 16) {
1777:Drivers/display_ILI-93xx_sm/lcd.c **** 			while (ptr < end) {
1778:Drivers/display_ILI-93xx_sm/lcd.c **** #if defined(SSD1297)
1779:Drivers/display_ILI-93xx_sm/lcd.c **** 				LCD_Write8(LCD_Color565_to_R(*((uint16_t *) ptr)));
1780:Drivers/display_ILI-93xx_sm/lcd.c **** 				LCD_Write8(LCD_Color565_to_G(*((uint16_t *) ptr)));
1781:Drivers/display_ILI-93xx_sm/lcd.c **** 				LCD_Write8(LCD_Color565_to_B(*((uint16_t *) ptr)));
1782:Drivers/display_ILI-93xx_sm/lcd.c **** #else
1783:Drivers/display_ILI-93xx_sm/lcd.c **** 				LCD_Write8(*(ptr + 1));
1784:Drivers/display_ILI-93xx_sm/lcd.c **** 				LCD_Write8(*(ptr));
1785:Drivers/display_ILI-93xx_sm/lcd.c **** #endif
1786:Drivers/display_ILI-93xx_sm/lcd.c **** 				ptr += 2;
1787:Drivers/display_ILI-93xx_sm/lcd.c **** 			}
1788:Drivers/display_ILI-93xx_sm/lcd.c **** 		} else if (colordepth == 24) {
ARM GAS  /tmp/cc47Teva.s 			page 204


1789:Drivers/display_ILI-93xx_sm/lcd.c **** 			while (ptr < end) {
1790:Drivers/display_ILI-93xx_sm/lcd.c **** #if defined(SSD1297)
1791:Drivers/display_ILI-93xx_sm/lcd.c **** 				LCD_Write8(*(ptr + 2));
1792:Drivers/display_ILI-93xx_sm/lcd.c **** 				LCD_Write8(*(ptr + 1));
1793:Drivers/display_ILI-93xx_sm/lcd.c **** 				LCD_Write8(*(ptr));
1794:Drivers/display_ILI-93xx_sm/lcd.c **** #else
1795:Drivers/display_ILI-93xx_sm/lcd.c **** 				LCD_Write8((*(ptr) & 0xF8) | (*(ptr + 1) >> 5));
1796:Drivers/display_ILI-93xx_sm/lcd.c **** 				LCD_Write8(((*(ptr + 1) & 0x1C) << 3) | (*(ptr + 2) >> 3));
1797:Drivers/display_ILI-93xx_sm/lcd.c **** #endif
1798:Drivers/display_ILI-93xx_sm/lcd.c **** 				ptr += 3;
1799:Drivers/display_ILI-93xx_sm/lcd.c **** 			}
1800:Drivers/display_ILI-93xx_sm/lcd.c **** 		}
1801:Drivers/display_ILI-93xx_sm/lcd.c **** 	} else {
1802:Drivers/display_ILI-93xx_sm/lcd.c **** 		/* Bottom-top file */
1803:Drivers/display_ILI-93xx_sm/lcd.c **** 		uint8_t *rowstart;
1804:Drivers/display_ILI-93xx_sm/lcd.c **** 		uint8_t *rowend;
1805:Drivers/display_ILI-93xx_sm/lcd.c **** 		/* Draw image */
1806:Drivers/display_ILI-93xx_sm/lcd.c **** 		if (colordepth == 16) {
1807:Drivers/display_ILI-93xx_sm/lcd.c **** 			for (uint16_t row = height - 1; row > 0; row--) {
1808:Drivers/display_ILI-93xx_sm/lcd.c **** 				rowstart = start + row * width * 2;
1809:Drivers/display_ILI-93xx_sm/lcd.c **** 				rowend = start + (row + 1) * width * 2 - 1;
1810:Drivers/display_ILI-93xx_sm/lcd.c **** 				ptr = rowstart;
1811:Drivers/display_ILI-93xx_sm/lcd.c **** 				while (ptr < rowend) {
1812:Drivers/display_ILI-93xx_sm/lcd.c **** #if defined(SSD1297)
1813:Drivers/display_ILI-93xx_sm/lcd.c **** 					LCD_Write8(LCD_Color565_to_R(*((uint16_t *) ptr)));
1814:Drivers/display_ILI-93xx_sm/lcd.c **** 					LCD_Write8(LCD_Color565_to_G(*((uint16_t *) ptr)));
1815:Drivers/display_ILI-93xx_sm/lcd.c **** 					LCD_Write8(LCD_Color565_to_B(*((uint16_t *) ptr)));
1816:Drivers/display_ILI-93xx_sm/lcd.c **** #else
1817:Drivers/display_ILI-93xx_sm/lcd.c **** 					LCD_Write8(*(ptr + 1));
1818:Drivers/display_ILI-93xx_sm/lcd.c **** 					LCD_Write8(*(ptr));
1819:Drivers/display_ILI-93xx_sm/lcd.c **** #endif
1820:Drivers/display_ILI-93xx_sm/lcd.c **** 					ptr += 2;
1821:Drivers/display_ILI-93xx_sm/lcd.c **** 				}
1822:Drivers/display_ILI-93xx_sm/lcd.c **** 			}
1823:Drivers/display_ILI-93xx_sm/lcd.c **** 		} else if (colordepth == 24) {
1824:Drivers/display_ILI-93xx_sm/lcd.c **** 			for (uint16_t row = height - 1; row > 0; row--) {
1825:Drivers/display_ILI-93xx_sm/lcd.c **** 				rowstart = start + row * width * 3;
1826:Drivers/display_ILI-93xx_sm/lcd.c **** 				rowend = start + (row + 1) * width * 3 - 1;
1827:Drivers/display_ILI-93xx_sm/lcd.c **** 				ptr = rowstart;
1828:Drivers/display_ILI-93xx_sm/lcd.c **** 				while (ptr < rowend) {
1829:Drivers/display_ILI-93xx_sm/lcd.c **** #if defined(SSD1297)
1830:Drivers/display_ILI-93xx_sm/lcd.c **** 					LCD_Write8(*(ptr + 2));
1831:Drivers/display_ILI-93xx_sm/lcd.c **** 					LCD_Write8(*(ptr + 1));
1832:Drivers/display_ILI-93xx_sm/lcd.c **** 					LCD_Write8(*(ptr));
1833:Drivers/display_ILI-93xx_sm/lcd.c **** #else
1834:Drivers/display_ILI-93xx_sm/lcd.c **** 					LCD_Write8((*(ptr) & 0xF8) | (*(ptr + 1) >> 5));
1835:Drivers/display_ILI-93xx_sm/lcd.c **** 					LCD_Write8(((*(ptr + 1) & 0x1C) << 3) | (*(ptr + 2) >> 3));
1836:Drivers/display_ILI-93xx_sm/lcd.c **** #endif
1837:Drivers/display_ILI-93xx_sm/lcd.c **** 					ptr += 3;
1838:Drivers/display_ILI-93xx_sm/lcd.c **** 				}
1839:Drivers/display_ILI-93xx_sm/lcd.c **** 			}
1840:Drivers/display_ILI-93xx_sm/lcd.c **** 		}
1841:Drivers/display_ILI-93xx_sm/lcd.c **** 	}
1842:Drivers/display_ILI-93xx_sm/lcd.c **** 	LCD_CS_IDLE();
1843:Drivers/display_ILI-93xx_sm/lcd.c **** 	LCD_SetAddrWindow(0, 0, m_width - 1, m_height - 1);
1844:Drivers/display_ILI-93xx_sm/lcd.c **** }
 7758              		.loc 1 1844 1 view .LVU2401
ARM GAS  /tmp/cc47Teva.s 			page 205


 7759 004e BDE8F081 		pop	{r4, r5, r6, r7, r8, pc}
 7760              	.LVL491:
 7761              	.L445:
1756:Drivers/display_ILI-93xx_sm/lcd.c **** 	LCD_SetAddrWindow(xPos, yPos, xPos + width - 1, yPos + abs(height) - 1);
 7762              		.loc 1 1756 2 is_stmt 1 view .LVU2402
 7763 0052 80B2     		uxth	r0, r0
1756:Drivers/display_ILI-93xx_sm/lcd.c **** 	LCD_SetAddrWindow(xPos, yPos, xPos + width - 1, yPos + abs(height) - 1);
 7764              		.loc 1 1756 2 is_stmt 0 view .LVU2403
 7765 0054 89B2     		uxth	r1, r1
1756:Drivers/display_ILI-93xx_sm/lcd.c **** 	LCD_SetAddrWindow(xPos, yPos, xPos + width - 1, yPos + abs(height) - 1);
 7766              		.loc 1 1756 37 view .LVU2404
 7767 0056 4219     		adds	r2, r0, r5
 7768 0058 92B2     		uxth	r2, r2
1756:Drivers/display_ILI-93xx_sm/lcd.c **** 	LCD_SetAddrWindow(xPos, yPos, xPos + width - 1, yPos + abs(height) - 1);
 7769              		.loc 1 1756 55 view .LVU2405
 7770 005a 0B44     		add	r3, r3, r1
 7771 005c 9BB2     		uxth	r3, r3
1756:Drivers/display_ILI-93xx_sm/lcd.c **** 	LCD_SetAddrWindow(xPos, yPos, xPos + width - 1, yPos + abs(height) - 1);
 7772              		.loc 1 1756 2 view .LVU2406
 7773 005e 013B     		subs	r3, r3, #1
 7774 0060 013A     		subs	r2, r2, #1
 7775 0062 9BB2     		uxth	r3, r3
 7776 0064 92B2     		uxth	r2, r2
 7777 0066 FFF7FEFF 		bl	LCD_SetAddrWindow
 7778              	.LVL492:
1757:Drivers/display_ILI-93xx_sm/lcd.c **** 	LCD_CD_COMMAND();
 7779              		.loc 1 1757 2 is_stmt 1 view .LVU2407
 7780 006a B049     		ldr	r1, .L463+8
 7781 006c 4FF48033 		mov	r3, #65536
 7782 0070 0B61     		str	r3, [r1, #16]
1758:Drivers/display_ILI-93xx_sm/lcd.c **** #if	defined(ILI9325) || defined(ILI9328) || defined(R61505) || defined(R61505V) || defined(S6D0154)
 7783              		.loc 1 1758 2 view .LVU2408
 7784 0072 AF4A     		ldr	r2, .L463+12
 7785 0074 4FF48013 		mov	r3, #1048576
 7786 0078 1361     		str	r3, [r2, #16]
1763:Drivers/display_ILI-93xx_sm/lcd.c **** #elif defined(HX8347D) || defined(HX8347G)
 7787              		.loc 1 1763 2 view .LVU2409
 7788              	.LVL493:
 7789              	.LBB819:
 7790              	.LBI819:
 847:Drivers/display_ILI-93xx_sm/lcd.c **** 	// ------ PORT -----     --- Data ----
 7791              		.loc 1 847 13 view .LVU2410
 7792              	.LBB820:
 860:Drivers/display_ILI-93xx_sm/lcd.c **** 	GPIOB->ODR = (GPIOB->ODR & 0xFBC7) | (data & 0x08) | ((data & 0x10) << 1) | ((data & 0x20) >> 1) |
 7793              		.loc 1 860 2 view .LVU2411
 860:Drivers/display_ILI-93xx_sm/lcd.c **** 	GPIOB->ODR = (GPIOB->ODR & 0xFBC7) | (data & 0x08) | ((data & 0x10) << 1) | ((data & 0x20) >> 1) |
 7794              		.loc 1 860 21 is_stmt 0 view .LVU2412
 7795 007a D368     		ldr	r3, [r2, #12]
 860:Drivers/display_ILI-93xx_sm/lcd.c **** 	GPIOB->ODR = (GPIOB->ODR & 0xFBC7) | (data & 0x08) | ((data & 0x10) << 1) | ((data & 0x20) >> 1) |
 7796              		.loc 1 860 27 view .LVU2413
 7797 007c 23F4F063 		bic	r3, r3, #1920
 7798 0080 1B04     		lsls	r3, r3, #16
 7799 0082 1B0C     		lsrs	r3, r3, #16
 860:Drivers/display_ILI-93xx_sm/lcd.c **** 	GPIOB->ODR = (GPIOB->ODR & 0xFBC7) | (data & 0x08) | ((data & 0x10) << 1) | ((data & 0x20) >> 1) |
 7800              		.loc 1 860 60 view .LVU2414
 7801 0084 43F48063 		orr	r3, r3, #1024
 860:Drivers/display_ILI-93xx_sm/lcd.c **** 	GPIOB->ODR = (GPIOB->ODR & 0xFBC7) | (data & 0x08) | ((data & 0x10) << 1) | ((data & 0x20) >> 1) |
ARM GAS  /tmp/cc47Teva.s 			page 206


 7802              		.loc 1 860 13 view .LVU2415
 7803 0088 D360     		str	r3, [r2, #12]
 861:Drivers/display_ILI-93xx_sm/lcd.c **** #else
 7804              		.loc 1 861 2 is_stmt 1 view .LVU2416
 861:Drivers/display_ILI-93xx_sm/lcd.c **** #else
 7805              		.loc 1 861 21 is_stmt 0 view .LVU2417
 7806 008a CB68     		ldr	r3, [r1, #12]
 861:Drivers/display_ILI-93xx_sm/lcd.c **** #else
 7807              		.loc 1 861 27 view .LVU2418
 7808 008c 23F48763 		bic	r3, r3, #1080
 7809 0090 1B04     		lsls	r3, r3, #16
 7810 0092 1B0C     		lsrs	r3, r3, #16
 861:Drivers/display_ILI-93xx_sm/lcd.c **** #else
 7811              		.loc 1 861 76 view .LVU2419
 7812 0094 43F01803 		orr	r3, r3, #24
 861:Drivers/display_ILI-93xx_sm/lcd.c **** #else
 7813              		.loc 1 861 13 view .LVU2420
 7814 0098 CB60     		str	r3, [r1, #12]
 869:Drivers/display_ILI-93xx_sm/lcd.c **** }
 7815              		.loc 1 869 2 is_stmt 1 view .LVU2421
 869:Drivers/display_ILI-93xx_sm/lcd.c **** }
 7816              		.loc 1 869 2 view .LVU2422
 7817 009a 4FF40033 		mov	r3, #131072
 7818 009e 1361     		str	r3, [r2, #16]
 869:Drivers/display_ILI-93xx_sm/lcd.c **** }
 7819              		.loc 1 869 2 view .LVU2423
 7820              	.LVL494:
 7821              	.LBB821:
 7822              	.LBI821:
 668:Drivers/display_ILI-93xx_sm/lcd.c **** 	for (; t; t--) __asm("nop");
 7823              		.loc 1 668 13 view .LVU2424
 7824              	.LBB822:
 669:Drivers/display_ILI-93xx_sm/lcd.c **** }
 7825              		.loc 1 669 2 view .LVU2425
 7826              	.LBE822:
 7827              	.LBE821:
 869:Drivers/display_ILI-93xx_sm/lcd.c **** }
 7828              		.loc 1 869 2 is_stmt 0 view .LVU2426
 7829 00a0 0223     		movs	r3, #2
 7830              	.LVL495:
 7831              	.L391:
 7832              	.LBB824:
 7833              	.LBB823:
 669:Drivers/display_ILI-93xx_sm/lcd.c **** }
 7834              		.loc 1 669 2 view .LVU2427
 7835 00a2 13B1     		cbz	r3, .L446
 669:Drivers/display_ILI-93xx_sm/lcd.c **** }
 7836              		.loc 1 669 17 is_stmt 1 view .LVU2428
 7837              		.syntax unified
 7838              	@ 669 "Drivers/display_ILI-93xx_sm/lcd.c" 1
 7839 00a4 00BF     		nop
 7840              	@ 0 "" 2
 669:Drivers/display_ILI-93xx_sm/lcd.c **** }
 7841              		.loc 1 669 13 is_stmt 0 view .LVU2429
 7842              		.thumb
 7843              		.syntax unified
 7844 00a6 013B     		subs	r3, r3, #1
ARM GAS  /tmp/cc47Teva.s 			page 207


 7845              	.LVL496:
 669:Drivers/display_ILI-93xx_sm/lcd.c **** }
 7846              		.loc 1 669 13 view .LVU2430
 7847 00a8 FBE7     		b	.L391
 7848              	.L446:
 7849              	.LVL497:
 669:Drivers/display_ILI-93xx_sm/lcd.c **** }
 7850              		.loc 1 669 13 view .LVU2431
 7851              	.LBE823:
 7852              	.LBE824:
 869:Drivers/display_ILI-93xx_sm/lcd.c **** }
 7853              		.loc 1 869 2 is_stmt 1 view .LVU2432
 7854 00aa 0223     		movs	r3, #2
 7855 00ac A04A     		ldr	r2, .L463+12
 7856 00ae 1361     		str	r3, [r2, #16]
 869:Drivers/display_ILI-93xx_sm/lcd.c **** }
 7857              		.loc 1 869 2 view .LVU2433
 7858              	.LVL498:
 7859              	.LBB825:
 7860              	.LBI825:
 668:Drivers/display_ILI-93xx_sm/lcd.c **** 	for (; t; t--) __asm("nop");
 7861              		.loc 1 668 13 view .LVU2434
 7862              	.L393:
 7863              	.LBB826:
 669:Drivers/display_ILI-93xx_sm/lcd.c **** }
 7864              		.loc 1 669 2 is_stmt 0 view .LVU2435
 7865 00b0 13B1     		cbz	r3, .L447
 669:Drivers/display_ILI-93xx_sm/lcd.c **** }
 7866              		.loc 1 669 17 is_stmt 1 view .LVU2436
 7867              		.syntax unified
 7868              	@ 669 "Drivers/display_ILI-93xx_sm/lcd.c" 1
 7869 00b2 00BF     		nop
 7870              	@ 0 "" 2
 669:Drivers/display_ILI-93xx_sm/lcd.c **** }
 7871              		.loc 1 669 13 is_stmt 0 view .LVU2437
 7872              		.thumb
 7873              		.syntax unified
 7874 00b4 013B     		subs	r3, r3, #1
 7875              	.LVL499:
 669:Drivers/display_ILI-93xx_sm/lcd.c **** }
 7876              		.loc 1 669 13 view .LVU2438
 7877 00b6 FBE7     		b	.L393
 7878              	.L447:
 7879              	.LVL500:
 669:Drivers/display_ILI-93xx_sm/lcd.c **** }
 7880              		.loc 1 669 13 view .LVU2439
 7881              	.LBE826:
 7882              	.LBE825:
 7883              	.LBE820:
 7884              	.LBE819:
1771:Drivers/display_ILI-93xx_sm/lcd.c **** 	if (height < 0) {
 7885              		.loc 1 1771 2 is_stmt 1 view .LVU2440
 7886 00b8 03F18043 		add	r3, r3, #1073741824
 7887 00bc 03F58433 		add	r3, r3, #67584
 7888 00c0 1022     		movs	r2, #16
 7889 00c2 1A61     		str	r2, [r3, #16]
1772:Drivers/display_ILI-93xx_sm/lcd.c **** 		/* Top-bottom file */
ARM GAS  /tmp/cc47Teva.s 			page 208


 7890              		.loc 1 1772 2 view .LVU2441
1772:Drivers/display_ILI-93xx_sm/lcd.c **** 		/* Top-bottom file */
 7891              		.loc 1 1772 5 is_stmt 0 view .LVU2442
 7892 00c4 002F     		cmp	r7, #0
 7893 00c6 17DB     		blt	.L448
 7894              	.LBB827:
1803:Drivers/display_ILI-93xx_sm/lcd.c **** 		uint8_t *rowend;
 7895              		.loc 1 1803 3 is_stmt 1 view .LVU2443
1804:Drivers/display_ILI-93xx_sm/lcd.c **** 		/* Draw image */
 7896              		.loc 1 1804 3 view .LVU2444
1806:Drivers/display_ILI-93xx_sm/lcd.c **** 			for (uint16_t row = height - 1; row > 0; row--) {
 7897              		.loc 1 1806 3 view .LVU2445
1806:Drivers/display_ILI-93xx_sm/lcd.c **** 			for (uint16_t row = height - 1; row > 0; row--) {
 7898              		.loc 1 1806 6 is_stmt 0 view .LVU2446
 7899 00c8 B8F1100F 		cmp	r8, #16
 7900 00cc 00F02681 		beq	.L449
1823:Drivers/display_ILI-93xx_sm/lcd.c **** 			for (uint16_t row = height - 1; row > 0; row--) {
 7901              		.loc 1 1823 10 is_stmt 1 view .LVU2447
1823:Drivers/display_ILI-93xx_sm/lcd.c **** 			for (uint16_t row = height - 1; row > 0; row--) {
 7902              		.loc 1 1823 13 is_stmt 0 view .LVU2448
 7903 00d0 B8F1180F 		cmp	r8, #24
 7904 00d4 00F0C681 		beq	.L450
 7905              	.LVL501:
 7906              	.L407:
1823:Drivers/display_ILI-93xx_sm/lcd.c **** 			for (uint16_t row = height - 1; row > 0; row--) {
 7907              		.loc 1 1823 13 view .LVU2449
 7908              	.LBE827:
1842:Drivers/display_ILI-93xx_sm/lcd.c **** 	LCD_SetAddrWindow(0, 0, m_width - 1, m_height - 1);
 7909              		.loc 1 1842 2 is_stmt 1 view .LVU2450
 7910 00d8 944B     		ldr	r3, .L463+8
 7911 00da 0122     		movs	r2, #1
 7912 00dc 1A61     		str	r2, [r3, #16]
1843:Drivers/display_ILI-93xx_sm/lcd.c **** }
 7913              		.loc 1 1843 2 view .LVU2451
 7914 00de 924B     		ldr	r3, .L463+4
 7915 00e0 1B88     		ldrh	r3, [r3]
 7916 00e2 013B     		subs	r3, r3, #1
 7917 00e4 8F4A     		ldr	r2, .L463
 7918 00e6 1288     		ldrh	r2, [r2]
 7919 00e8 013A     		subs	r2, r2, #1
 7920 00ea 9BB2     		uxth	r3, r3
 7921 00ec 92B2     		uxth	r2, r2
 7922 00ee 0021     		movs	r1, #0
 7923 00f0 0846     		mov	r0, r1
 7924 00f2 FFF7FEFF 		bl	LCD_SetAddrWindow
 7925              	.LVL502:
 7926 00f6 AAE7     		b	.L389
 7927              	.LVL503:
 7928              	.L448:
1774:Drivers/display_ILI-93xx_sm/lcd.c **** 		/* Draw image */
 7929              		.loc 1 1774 3 view .LVU2452
1776:Drivers/display_ILI-93xx_sm/lcd.c **** 			while (ptr < end) {
 7930              		.loc 1 1776 3 view .LVU2453
1776:Drivers/display_ILI-93xx_sm/lcd.c **** 			while (ptr < end) {
 7931              		.loc 1 1776 6 is_stmt 0 view .LVU2454
 7932 00f8 9045     		cmp	r8, r2
 7933 00fa 4DD0     		beq	.L396
ARM GAS  /tmp/cc47Teva.s 			page 209


1788:Drivers/display_ILI-93xx_sm/lcd.c **** 			while (ptr < end) {
 7934              		.loc 1 1788 10 is_stmt 1 view .LVU2455
1788:Drivers/display_ILI-93xx_sm/lcd.c **** 			while (ptr < end) {
 7935              		.loc 1 1788 13 is_stmt 0 view .LVU2456
 7936 00fc B8F1180F 		cmp	r8, #24
 7937 0100 EAD1     		bne	.L407
 7938 0102 CFE0     		b	.L408
 7939              	.LVL504:
 7940              	.L399:
 7941              	.LBB866:
 7942              	.LBB867:
 7943              	.LBB868:
 7944              	.LBB869:
 669:Drivers/display_ILI-93xx_sm/lcd.c **** }
 7945              		.loc 1 669 17 is_stmt 1 view .LVU2457
 7946              		.syntax unified
 7947              	@ 669 "Drivers/display_ILI-93xx_sm/lcd.c" 1
 7948 0104 00BF     		nop
 7949              	@ 0 "" 2
 669:Drivers/display_ILI-93xx_sm/lcd.c **** }
 7950              		.loc 1 669 13 is_stmt 0 view .LVU2458
 7951              		.thumb
 7952              		.syntax unified
 7953 0106 013B     		subs	r3, r3, #1
 7954              	.LVL505:
 7955              	.L398:
 669:Drivers/display_ILI-93xx_sm/lcd.c **** }
 7956              		.loc 1 669 2 view .LVU2459
 7957 0108 002B     		cmp	r3, #0
 7958 010a FBD1     		bne	.L399
 7959              	.LVL506:
 669:Drivers/display_ILI-93xx_sm/lcd.c **** }
 7960              		.loc 1 669 2 view .LVU2460
 7961              	.LBE869:
 7962              	.LBE868:
 869:Drivers/display_ILI-93xx_sm/lcd.c **** }
 7963              		.loc 1 869 2 is_stmt 1 view .LVU2461
 7964 010c 0223     		movs	r3, #2
 7965 010e 884A     		ldr	r2, .L463+12
 7966 0110 1361     		str	r3, [r2, #16]
 869:Drivers/display_ILI-93xx_sm/lcd.c **** }
 7967              		.loc 1 869 2 view .LVU2462
 7968              	.LVL507:
 7969              	.LBB871:
 7970              	.LBI871:
 668:Drivers/display_ILI-93xx_sm/lcd.c **** 	for (; t; t--) __asm("nop");
 7971              		.loc 1 668 13 view .LVU2463
 7972 0112 01E0     		b	.L400
 7973              	.LVL508:
 7974              	.L401:
 7975              	.LBB872:
 669:Drivers/display_ILI-93xx_sm/lcd.c **** }
 7976              		.loc 1 669 17 view .LVU2464
 7977              		.syntax unified
 7978              	@ 669 "Drivers/display_ILI-93xx_sm/lcd.c" 1
 7979 0114 00BF     		nop
 7980              	@ 0 "" 2
ARM GAS  /tmp/cc47Teva.s 			page 210


 669:Drivers/display_ILI-93xx_sm/lcd.c **** }
 7981              		.loc 1 669 13 is_stmt 0 view .LVU2465
 7982              		.thumb
 7983              		.syntax unified
 7984 0116 013B     		subs	r3, r3, #1
 7985              	.LVL509:
 7986              	.L400:
 669:Drivers/display_ILI-93xx_sm/lcd.c **** }
 7987              		.loc 1 669 2 view .LVU2466
 7988 0118 002B     		cmp	r3, #0
 7989 011a FBD1     		bne	.L401
 7990              	.LVL510:
 669:Drivers/display_ILI-93xx_sm/lcd.c **** }
 7991              		.loc 1 669 2 view .LVU2467
 7992              	.LBE872:
 7993              	.LBE871:
 7994              	.LBE867:
 7995              	.LBE866:
1784:Drivers/display_ILI-93xx_sm/lcd.c **** #endif
 7996              		.loc 1 1784 5 is_stmt 1 view .LVU2468
 7997 011c 2278     		ldrb	r2, [r4]	@ zero_extendqisi2
 7998              	.LVL511:
 7999              	.LBB875:
 8000              	.LBI875:
 847:Drivers/display_ILI-93xx_sm/lcd.c **** 	// ------ PORT -----     --- Data ----
 8001              		.loc 1 847 13 view .LVU2469
 8002              	.LBB876:
 860:Drivers/display_ILI-93xx_sm/lcd.c **** 	GPIOB->ODR = (GPIOB->ODR & 0xFBC7) | (data & 0x08) | ((data & 0x10) << 1) | ((data & 0x20) >> 1) |
 8003              		.loc 1 860 2 view .LVU2470
 860:Drivers/display_ILI-93xx_sm/lcd.c **** 	GPIOB->ODR = (GPIOB->ODR & 0xFBC7) | (data & 0x08) | ((data & 0x10) << 1) | ((data & 0x20) >> 1) |
 8004              		.loc 1 860 21 is_stmt 0 view .LVU2471
 8005 011e 8448     		ldr	r0, .L463+12
 8006 0120 C168     		ldr	r1, [r0, #12]
 860:Drivers/display_ILI-93xx_sm/lcd.c **** 	GPIOB->ODR = (GPIOB->ODR & 0xFBC7) | (data & 0x08) | ((data & 0x10) << 1) | ((data & 0x20) >> 1) |
 8007              		.loc 1 860 27 view .LVU2472
 8008 0122 21F4F061 		bic	r1, r1, #1920
 8009 0126 0904     		lsls	r1, r1, #16
 8010 0128 090C     		lsrs	r1, r1, #16
 860:Drivers/display_ILI-93xx_sm/lcd.c **** 	GPIOB->ODR = (GPIOB->ODR & 0xFBC7) | (data & 0x08) | ((data & 0x10) << 1) | ((data & 0x20) >> 1) |
 8011              		.loc 1 860 54 view .LVU2473
 8012 012a 5302     		lsls	r3, r2, #9
 8013 012c 03F40073 		and	r3, r3, #512
 860:Drivers/display_ILI-93xx_sm/lcd.c **** 	GPIOB->ODR = (GPIOB->ODR & 0xFBC7) | (data & 0x08) | ((data & 0x10) << 1) | ((data & 0x20) >> 1) |
 8014              		.loc 1 860 37 view .LVU2474
 8015 0130 1943     		orrs	r1, r1, r3
 860:Drivers/display_ILI-93xx_sm/lcd.c **** 	GPIOB->ODR = (GPIOB->ODR & 0xFBC7) | (data & 0x08) | ((data & 0x10) << 1) | ((data & 0x20) >> 1) |
 8016              		.loc 1 860 77 view .LVU2475
 8017 0132 1302     		lsls	r3, r2, #8
 8018 0134 03F48063 		and	r3, r3, #1024
 860:Drivers/display_ILI-93xx_sm/lcd.c **** 	GPIOB->ODR = (GPIOB->ODR & 0xFBC7) | (data & 0x08) | ((data & 0x10) << 1) | ((data & 0x20) >> 1) |
 8019              		.loc 1 860 60 view .LVU2476
 8020 0138 1943     		orrs	r1, r1, r3
 860:Drivers/display_ILI-93xx_sm/lcd.c **** 	GPIOB->ODR = (GPIOB->ODR & 0xFBC7) | (data & 0x08) | ((data & 0x10) << 1) | ((data & 0x20) >> 1) |
 8021              		.loc 1 860 100 view .LVU2477
 8022 013a 5500     		lsls	r5, r2, #1
 8023 013c 05F48073 		and	r3, r5, #256
 860:Drivers/display_ILI-93xx_sm/lcd.c **** 	GPIOB->ODR = (GPIOB->ODR & 0xFBC7) | (data & 0x08) | ((data & 0x10) << 1) | ((data & 0x20) >> 1) |
ARM GAS  /tmp/cc47Teva.s 			page 211


 8024              		.loc 1 860 83 view .LVU2478
 8025 0140 1943     		orrs	r1, r1, r3
 860:Drivers/display_ILI-93xx_sm/lcd.c **** 	GPIOB->ODR = (GPIOB->ODR & 0xFBC7) | (data & 0x08) | ((data & 0x10) << 1) | ((data & 0x20) >> 1) |
 8026              		.loc 1 860 123 view .LVU2479
 8027 0142 9301     		lsls	r3, r2, #6
 8028 0144 03F08003 		and	r3, r3, #128
 860:Drivers/display_ILI-93xx_sm/lcd.c **** 	GPIOB->ODR = (GPIOB->ODR & 0xFBC7) | (data & 0x08) | ((data & 0x10) << 1) | ((data & 0x20) >> 1) |
 8029              		.loc 1 860 106 view .LVU2480
 8030 0148 1943     		orrs	r1, r1, r3
 860:Drivers/display_ILI-93xx_sm/lcd.c **** 	GPIOB->ODR = (GPIOB->ODR & 0xFBC7) | (data & 0x08) | ((data & 0x10) << 1) | ((data & 0x20) >> 1) |
 8031              		.loc 1 860 13 view .LVU2481
 8032 014a C160     		str	r1, [r0, #12]
 861:Drivers/display_ILI-93xx_sm/lcd.c **** #else
 8033              		.loc 1 861 2 is_stmt 1 view .LVU2482
 861:Drivers/display_ILI-93xx_sm/lcd.c **** #else
 8034              		.loc 1 861 21 is_stmt 0 view .LVU2483
 8035 014c 7749     		ldr	r1, .L463+8
 8036 014e CB68     		ldr	r3, [r1, #12]
 861:Drivers/display_ILI-93xx_sm/lcd.c **** #else
 8037              		.loc 1 861 27 view .LVU2484
 8038 0150 23F48763 		bic	r3, r3, #1080
 8039 0154 1B04     		lsls	r3, r3, #16
 8040 0156 1B0C     		lsrs	r3, r3, #16
 861:Drivers/display_ILI-93xx_sm/lcd.c **** #else
 8041              		.loc 1 861 45 view .LVU2485
 8042 0158 02F00807 		and	r7, r2, #8
 861:Drivers/display_ILI-93xx_sm/lcd.c **** #else
 8043              		.loc 1 861 37 view .LVU2486
 8044 015c 3B43     		orrs	r3, r3, r7
 861:Drivers/display_ILI-93xx_sm/lcd.c **** #else
 8045              		.loc 1 861 70 view .LVU2487
 8046 015e 05F02005 		and	r5, r5, #32
 861:Drivers/display_ILI-93xx_sm/lcd.c **** #else
 8047              		.loc 1 861 53 view .LVU2488
 8048 0162 2B43     		orrs	r3, r3, r5
 861:Drivers/display_ILI-93xx_sm/lcd.c **** #else
 8049              		.loc 1 861 93 view .LVU2489
 8050 0164 5510     		asrs	r5, r2, #1
 8051 0166 05F01005 		and	r5, r5, #16
 861:Drivers/display_ILI-93xx_sm/lcd.c **** #else
 8052              		.loc 1 861 76 view .LVU2490
 8053 016a 2B43     		orrs	r3, r3, r5
 861:Drivers/display_ILI-93xx_sm/lcd.c **** #else
 8054              		.loc 1 861 116 view .LVU2491
 8055 016c 1201     		lsls	r2, r2, #4
 8056              	.LVL512:
 861:Drivers/display_ILI-93xx_sm/lcd.c **** #else
 8057              		.loc 1 861 116 view .LVU2492
 8058 016e 02F48062 		and	r2, r2, #1024
 861:Drivers/display_ILI-93xx_sm/lcd.c **** #else
 8059              		.loc 1 861 99 view .LVU2493
 8060 0172 1343     		orrs	r3, r3, r2
 861:Drivers/display_ILI-93xx_sm/lcd.c **** #else
 8061              		.loc 1 861 13 view .LVU2494
 8062 0174 CB60     		str	r3, [r1, #12]
 869:Drivers/display_ILI-93xx_sm/lcd.c **** }
 8063              		.loc 1 869 2 is_stmt 1 view .LVU2495
ARM GAS  /tmp/cc47Teva.s 			page 212


 869:Drivers/display_ILI-93xx_sm/lcd.c **** }
 8064              		.loc 1 869 2 view .LVU2496
 8065 0176 4FF40033 		mov	r3, #131072
 8066 017a 0361     		str	r3, [r0, #16]
 869:Drivers/display_ILI-93xx_sm/lcd.c **** }
 8067              		.loc 1 869 2 view .LVU2497
 8068              	.LVL513:
 8069              	.LBB877:
 8070              	.LBI877:
 668:Drivers/display_ILI-93xx_sm/lcd.c **** 	for (; t; t--) __asm("nop");
 8071              		.loc 1 668 13 view .LVU2498
 8072              	.LBB878:
 669:Drivers/display_ILI-93xx_sm/lcd.c **** }
 8073              		.loc 1 669 2 view .LVU2499
 8074              	.LBE878:
 8075              	.LBE877:
 869:Drivers/display_ILI-93xx_sm/lcd.c **** }
 8076              		.loc 1 869 2 is_stmt 0 view .LVU2500
 8077 017c 0223     		movs	r3, #2
 8078              	.LVL514:
 8079              	.L402:
 8080              	.LBB880:
 8081              	.LBB879:
 669:Drivers/display_ILI-93xx_sm/lcd.c **** }
 8082              		.loc 1 669 2 view .LVU2501
 8083 017e 13B1     		cbz	r3, .L451
 669:Drivers/display_ILI-93xx_sm/lcd.c **** }
 8084              		.loc 1 669 17 is_stmt 1 view .LVU2502
 8085              		.syntax unified
 8086              	@ 669 "Drivers/display_ILI-93xx_sm/lcd.c" 1
 8087 0180 00BF     		nop
 8088              	@ 0 "" 2
 669:Drivers/display_ILI-93xx_sm/lcd.c **** }
 8089              		.loc 1 669 13 is_stmt 0 view .LVU2503
 8090              		.thumb
 8091              		.syntax unified
 8092 0182 013B     		subs	r3, r3, #1
 8093              	.LVL515:
 669:Drivers/display_ILI-93xx_sm/lcd.c **** }
 8094              		.loc 1 669 13 view .LVU2504
 8095 0184 FBE7     		b	.L402
 8096              	.L451:
 8097              	.LVL516:
 669:Drivers/display_ILI-93xx_sm/lcd.c **** }
 8098              		.loc 1 669 13 view .LVU2505
 8099              	.LBE879:
 8100              	.LBE880:
 869:Drivers/display_ILI-93xx_sm/lcd.c **** }
 8101              		.loc 1 869 2 is_stmt 1 view .LVU2506
 8102 0186 0223     		movs	r3, #2
 8103 0188 694A     		ldr	r2, .L463+12
 8104 018a 1361     		str	r3, [r2, #16]
 869:Drivers/display_ILI-93xx_sm/lcd.c **** }
 8105              		.loc 1 869 2 view .LVU2507
 8106              	.LVL517:
 8107              	.LBB881:
 8108              	.LBI881:
ARM GAS  /tmp/cc47Teva.s 			page 213


 668:Drivers/display_ILI-93xx_sm/lcd.c **** 	for (; t; t--) __asm("nop");
 8109              		.loc 1 668 13 view .LVU2508
 8110 018c 01E0     		b	.L404
 8111              	.LVL518:
 8112              	.L405:
 8113              	.LBB882:
 669:Drivers/display_ILI-93xx_sm/lcd.c **** }
 8114              		.loc 1 669 17 view .LVU2509
 8115              		.syntax unified
 8116              	@ 669 "Drivers/display_ILI-93xx_sm/lcd.c" 1
 8117 018e 00BF     		nop
 8118              	@ 0 "" 2
 669:Drivers/display_ILI-93xx_sm/lcd.c **** }
 8119              		.loc 1 669 13 is_stmt 0 view .LVU2510
 8120              		.thumb
 8121              		.syntax unified
 8122 0190 013B     		subs	r3, r3, #1
 8123              	.LVL519:
 8124              	.L404:
 669:Drivers/display_ILI-93xx_sm/lcd.c **** }
 8125              		.loc 1 669 2 view .LVU2511
 8126 0192 002B     		cmp	r3, #0
 8127 0194 FBD1     		bne	.L405
 8128              	.LVL520:
 669:Drivers/display_ILI-93xx_sm/lcd.c **** }
 8129              		.loc 1 669 2 view .LVU2512
 8130              	.LBE882:
 8131              	.LBE881:
 8132              	.LBE876:
 8133              	.LBE875:
1786:Drivers/display_ILI-93xx_sm/lcd.c **** 			}
 8134              		.loc 1 1786 5 is_stmt 1 view .LVU2513
1786:Drivers/display_ILI-93xx_sm/lcd.c **** 			}
 8135              		.loc 1 1786 9 is_stmt 0 view .LVU2514
 8136 0196 0234     		adds	r4, r4, #2
 8137              	.LVL521:
 8138              	.L396:
1777:Drivers/display_ILI-93xx_sm/lcd.c **** #if defined(SSD1297)
 8139              		.loc 1 1777 10 view .LVU2515
 8140 0198 B442     		cmp	r4, r6
 8141 019a 9DD2     		bcs	.L407
1783:Drivers/display_ILI-93xx_sm/lcd.c **** 				LCD_Write8(*(ptr));
 8142              		.loc 1 1783 5 is_stmt 1 view .LVU2516
 8143 019c 6278     		ldrb	r2, [r4, #1]	@ zero_extendqisi2
 8144              	.LVL522:
 8145              	.LBB883:
 8146              	.LBI866:
 847:Drivers/display_ILI-93xx_sm/lcd.c **** 	// ------ PORT -----     --- Data ----
 8147              		.loc 1 847 13 view .LVU2517
 8148              	.LBB874:
 860:Drivers/display_ILI-93xx_sm/lcd.c **** 	GPIOB->ODR = (GPIOB->ODR & 0xFBC7) | (data & 0x08) | ((data & 0x10) << 1) | ((data & 0x20) >> 1) |
 8149              		.loc 1 860 2 view .LVU2518
 860:Drivers/display_ILI-93xx_sm/lcd.c **** 	GPIOB->ODR = (GPIOB->ODR & 0xFBC7) | (data & 0x08) | ((data & 0x10) << 1) | ((data & 0x20) >> 1) |
 8150              		.loc 1 860 21 is_stmt 0 view .LVU2519
 8151 019e 6448     		ldr	r0, .L463+12
 8152 01a0 C168     		ldr	r1, [r0, #12]
 860:Drivers/display_ILI-93xx_sm/lcd.c **** 	GPIOB->ODR = (GPIOB->ODR & 0xFBC7) | (data & 0x08) | ((data & 0x10) << 1) | ((data & 0x20) >> 1) |
ARM GAS  /tmp/cc47Teva.s 			page 214


 8153              		.loc 1 860 27 view .LVU2520
 8154 01a2 21F4F061 		bic	r1, r1, #1920
 8155 01a6 0904     		lsls	r1, r1, #16
 8156 01a8 090C     		lsrs	r1, r1, #16
 860:Drivers/display_ILI-93xx_sm/lcd.c **** 	GPIOB->ODR = (GPIOB->ODR & 0xFBC7) | (data & 0x08) | ((data & 0x10) << 1) | ((data & 0x20) >> 1) |
 8157              		.loc 1 860 54 view .LVU2521
 8158 01aa 5302     		lsls	r3, r2, #9
 8159 01ac 03F40073 		and	r3, r3, #512
 860:Drivers/display_ILI-93xx_sm/lcd.c **** 	GPIOB->ODR = (GPIOB->ODR & 0xFBC7) | (data & 0x08) | ((data & 0x10) << 1) | ((data & 0x20) >> 1) |
 8160              		.loc 1 860 37 view .LVU2522
 8161 01b0 1943     		orrs	r1, r1, r3
 860:Drivers/display_ILI-93xx_sm/lcd.c **** 	GPIOB->ODR = (GPIOB->ODR & 0xFBC7) | (data & 0x08) | ((data & 0x10) << 1) | ((data & 0x20) >> 1) |
 8162              		.loc 1 860 77 view .LVU2523
 8163 01b2 1302     		lsls	r3, r2, #8
 8164 01b4 03F48063 		and	r3, r3, #1024
 860:Drivers/display_ILI-93xx_sm/lcd.c **** 	GPIOB->ODR = (GPIOB->ODR & 0xFBC7) | (data & 0x08) | ((data & 0x10) << 1) | ((data & 0x20) >> 1) |
 8165              		.loc 1 860 60 view .LVU2524
 8166 01b8 1943     		orrs	r1, r1, r3
 860:Drivers/display_ILI-93xx_sm/lcd.c **** 	GPIOB->ODR = (GPIOB->ODR & 0xFBC7) | (data & 0x08) | ((data & 0x10) << 1) | ((data & 0x20) >> 1) |
 8167              		.loc 1 860 100 view .LVU2525
 8168 01ba 5500     		lsls	r5, r2, #1
 8169 01bc 05F48073 		and	r3, r5, #256
 860:Drivers/display_ILI-93xx_sm/lcd.c **** 	GPIOB->ODR = (GPIOB->ODR & 0xFBC7) | (data & 0x08) | ((data & 0x10) << 1) | ((data & 0x20) >> 1) |
 8170              		.loc 1 860 83 view .LVU2526
 8171 01c0 1943     		orrs	r1, r1, r3
 860:Drivers/display_ILI-93xx_sm/lcd.c **** 	GPIOB->ODR = (GPIOB->ODR & 0xFBC7) | (data & 0x08) | ((data & 0x10) << 1) | ((data & 0x20) >> 1) |
 8172              		.loc 1 860 123 view .LVU2527
 8173 01c2 9301     		lsls	r3, r2, #6
 8174 01c4 03F08003 		and	r3, r3, #128
 860:Drivers/display_ILI-93xx_sm/lcd.c **** 	GPIOB->ODR = (GPIOB->ODR & 0xFBC7) | (data & 0x08) | ((data & 0x10) << 1) | ((data & 0x20) >> 1) |
 8175              		.loc 1 860 106 view .LVU2528
 8176 01c8 1943     		orrs	r1, r1, r3
 860:Drivers/display_ILI-93xx_sm/lcd.c **** 	GPIOB->ODR = (GPIOB->ODR & 0xFBC7) | (data & 0x08) | ((data & 0x10) << 1) | ((data & 0x20) >> 1) |
 8177              		.loc 1 860 13 view .LVU2529
 8178 01ca C160     		str	r1, [r0, #12]
 861:Drivers/display_ILI-93xx_sm/lcd.c **** #else
 8179              		.loc 1 861 2 is_stmt 1 view .LVU2530
 861:Drivers/display_ILI-93xx_sm/lcd.c **** #else
 8180              		.loc 1 861 21 is_stmt 0 view .LVU2531
 8181 01cc 5749     		ldr	r1, .L463+8
 8182 01ce CB68     		ldr	r3, [r1, #12]
 861:Drivers/display_ILI-93xx_sm/lcd.c **** #else
 8183              		.loc 1 861 27 view .LVU2532
 8184 01d0 23F48763 		bic	r3, r3, #1080
 8185 01d4 1B04     		lsls	r3, r3, #16
 8186 01d6 1B0C     		lsrs	r3, r3, #16
 861:Drivers/display_ILI-93xx_sm/lcd.c **** #else
 8187              		.loc 1 861 45 view .LVU2533
 8188 01d8 02F00807 		and	r7, r2, #8
 861:Drivers/display_ILI-93xx_sm/lcd.c **** #else
 8189              		.loc 1 861 37 view .LVU2534
 8190 01dc 3B43     		orrs	r3, r3, r7
 861:Drivers/display_ILI-93xx_sm/lcd.c **** #else
 8191              		.loc 1 861 70 view .LVU2535
 8192 01de 05F02005 		and	r5, r5, #32
 861:Drivers/display_ILI-93xx_sm/lcd.c **** #else
 8193              		.loc 1 861 53 view .LVU2536
ARM GAS  /tmp/cc47Teva.s 			page 215


 8194 01e2 2B43     		orrs	r3, r3, r5
 861:Drivers/display_ILI-93xx_sm/lcd.c **** #else
 8195              		.loc 1 861 93 view .LVU2537
 8196 01e4 5510     		asrs	r5, r2, #1
 8197 01e6 05F01005 		and	r5, r5, #16
 861:Drivers/display_ILI-93xx_sm/lcd.c **** #else
 8198              		.loc 1 861 76 view .LVU2538
 8199 01ea 2B43     		orrs	r3, r3, r5
 861:Drivers/display_ILI-93xx_sm/lcd.c **** #else
 8200              		.loc 1 861 116 view .LVU2539
 8201 01ec 1201     		lsls	r2, r2, #4
 8202              	.LVL523:
 861:Drivers/display_ILI-93xx_sm/lcd.c **** #else
 8203              		.loc 1 861 116 view .LVU2540
 8204 01ee 02F48062 		and	r2, r2, #1024
 861:Drivers/display_ILI-93xx_sm/lcd.c **** #else
 8205              		.loc 1 861 99 view .LVU2541
 8206 01f2 1343     		orrs	r3, r3, r2
 861:Drivers/display_ILI-93xx_sm/lcd.c **** #else
 8207              		.loc 1 861 13 view .LVU2542
 8208 01f4 CB60     		str	r3, [r1, #12]
 869:Drivers/display_ILI-93xx_sm/lcd.c **** }
 8209              		.loc 1 869 2 is_stmt 1 view .LVU2543
 869:Drivers/display_ILI-93xx_sm/lcd.c **** }
 8210              		.loc 1 869 2 view .LVU2544
 8211 01f6 4FF40033 		mov	r3, #131072
 8212 01fa 0361     		str	r3, [r0, #16]
 869:Drivers/display_ILI-93xx_sm/lcd.c **** }
 8213              		.loc 1 869 2 view .LVU2545
 8214              	.LVL524:
 8215              	.LBB873:
 8216              	.LBI868:
 668:Drivers/display_ILI-93xx_sm/lcd.c **** 	for (; t; t--) __asm("nop");
 8217              		.loc 1 668 13 view .LVU2546
 8218              	.LBB870:
 669:Drivers/display_ILI-93xx_sm/lcd.c **** }
 8219              		.loc 1 669 2 view .LVU2547
 8220              	.LBE870:
 8221              	.LBE873:
 869:Drivers/display_ILI-93xx_sm/lcd.c **** }
 8222              		.loc 1 869 2 is_stmt 0 view .LVU2548
 8223 01fc 0223     		movs	r3, #2
 8224 01fe 83E7     		b	.L398
 8225              	.LVL525:
 8226              	.L410:
 869:Drivers/display_ILI-93xx_sm/lcd.c **** }
 8227              		.loc 1 869 2 view .LVU2549
 8228              	.LBE874:
 8229              	.LBE883:
 8230              	.LBB884:
 8231              	.LBB885:
 8232              	.LBB886:
 8233              	.LBB887:
 669:Drivers/display_ILI-93xx_sm/lcd.c **** }
 8234              		.loc 1 669 17 is_stmt 1 view .LVU2550
 8235              		.syntax unified
 8236              	@ 669 "Drivers/display_ILI-93xx_sm/lcd.c" 1
ARM GAS  /tmp/cc47Teva.s 			page 216


 8237 0200 00BF     		nop
 8238              	@ 0 "" 2
 669:Drivers/display_ILI-93xx_sm/lcd.c **** }
 8239              		.loc 1 669 13 is_stmt 0 view .LVU2551
 8240              		.thumb
 8241              		.syntax unified
 8242 0202 013B     		subs	r3, r3, #1
 8243              	.LVL526:
 8244              	.L409:
 669:Drivers/display_ILI-93xx_sm/lcd.c **** }
 8245              		.loc 1 669 2 view .LVU2552
 8246 0204 002B     		cmp	r3, #0
 8247 0206 FBD1     		bne	.L410
 8248              	.LVL527:
 669:Drivers/display_ILI-93xx_sm/lcd.c **** }
 8249              		.loc 1 669 2 view .LVU2553
 8250              	.LBE887:
 8251              	.LBE886:
 869:Drivers/display_ILI-93xx_sm/lcd.c **** }
 8252              		.loc 1 869 2 is_stmt 1 view .LVU2554
 8253 0208 0223     		movs	r3, #2
 8254 020a 494A     		ldr	r2, .L463+12
 8255 020c 1361     		str	r3, [r2, #16]
 869:Drivers/display_ILI-93xx_sm/lcd.c **** }
 8256              		.loc 1 869 2 view .LVU2555
 8257              	.LVL528:
 8258              	.LBB889:
 8259              	.LBI889:
 668:Drivers/display_ILI-93xx_sm/lcd.c **** 	for (; t; t--) __asm("nop");
 8260              		.loc 1 668 13 view .LVU2556
 8261 020e 01E0     		b	.L411
 8262              	.LVL529:
 8263              	.L412:
 8264              	.LBB890:
 669:Drivers/display_ILI-93xx_sm/lcd.c **** }
 8265              		.loc 1 669 17 view .LVU2557
 8266              		.syntax unified
 8267              	@ 669 "Drivers/display_ILI-93xx_sm/lcd.c" 1
 8268 0210 00BF     		nop
 8269              	@ 0 "" 2
 669:Drivers/display_ILI-93xx_sm/lcd.c **** }
 8270              		.loc 1 669 13 is_stmt 0 view .LVU2558
 8271              		.thumb
 8272              		.syntax unified
 8273 0212 013B     		subs	r3, r3, #1
 8274              	.LVL530:
 8275              	.L411:
 669:Drivers/display_ILI-93xx_sm/lcd.c **** }
 8276              		.loc 1 669 2 view .LVU2559
 8277 0214 002B     		cmp	r3, #0
 8278 0216 FBD1     		bne	.L412
 8279              	.LVL531:
 669:Drivers/display_ILI-93xx_sm/lcd.c **** }
 8280              		.loc 1 669 2 view .LVU2560
 8281              	.LBE890:
 8282              	.LBE889:
 8283              	.LBE885:
ARM GAS  /tmp/cc47Teva.s 			page 217


 8284              	.LBE884:
1796:Drivers/display_ILI-93xx_sm/lcd.c **** #endif
 8285              		.loc 1 1796 5 is_stmt 1 view .LVU2561
1796:Drivers/display_ILI-93xx_sm/lcd.c **** #endif
 8286              		.loc 1 1796 18 is_stmt 0 view .LVU2562
 8287 0218 6378     		ldrb	r3, [r4, #1]	@ zero_extendqisi2
1796:Drivers/display_ILI-93xx_sm/lcd.c **** #endif
 8288              		.loc 1 1796 37 view .LVU2563
 8289 021a DB00     		lsls	r3, r3, #3
 8290 021c 23F01F03 		bic	r3, r3, #31
 8291 0220 5BB2     		sxtb	r3, r3
1796:Drivers/display_ILI-93xx_sm/lcd.c **** #endif
 8292              		.loc 1 1796 46 view .LVU2564
 8293 0222 A278     		ldrb	r2, [r4, #2]	@ zero_extendqisi2
1796:Drivers/display_ILI-93xx_sm/lcd.c **** #endif
 8294              		.loc 1 1796 43 view .LVU2565
 8295 0224 43EAD203 		orr	r3, r3, r2, lsr #3
1796:Drivers/display_ILI-93xx_sm/lcd.c **** #endif
 8296              		.loc 1 1796 5 view .LVU2566
 8297 0228 DBB2     		uxtb	r3, r3
 8298              	.LVL532:
 8299              	.LBB893:
 8300              	.LBI893:
 847:Drivers/display_ILI-93xx_sm/lcd.c **** 	// ------ PORT -----     --- Data ----
 8301              		.loc 1 847 13 is_stmt 1 view .LVU2567
 8302              	.LBB894:
 860:Drivers/display_ILI-93xx_sm/lcd.c **** 	GPIOB->ODR = (GPIOB->ODR & 0xFBC7) | (data & 0x08) | ((data & 0x10) << 1) | ((data & 0x20) >> 1) |
 8303              		.loc 1 860 2 view .LVU2568
 860:Drivers/display_ILI-93xx_sm/lcd.c **** 	GPIOB->ODR = (GPIOB->ODR & 0xFBC7) | (data & 0x08) | ((data & 0x10) << 1) | ((data & 0x20) >> 1) |
 8304              		.loc 1 860 21 is_stmt 0 view .LVU2569
 8305 022a 4148     		ldr	r0, .L463+12
 8306 022c C168     		ldr	r1, [r0, #12]
 860:Drivers/display_ILI-93xx_sm/lcd.c **** 	GPIOB->ODR = (GPIOB->ODR & 0xFBC7) | (data & 0x08) | ((data & 0x10) << 1) | ((data & 0x20) >> 1) |
 8307              		.loc 1 860 27 view .LVU2570
 8308 022e 21F4F061 		bic	r1, r1, #1920
 8309 0232 0904     		lsls	r1, r1, #16
 8310 0234 090C     		lsrs	r1, r1, #16
 860:Drivers/display_ILI-93xx_sm/lcd.c **** 	GPIOB->ODR = (GPIOB->ODR & 0xFBC7) | (data & 0x08) | ((data & 0x10) << 1) | ((data & 0x20) >> 1) |
 8311              		.loc 1 860 54 view .LVU2571
 8312 0236 5A02     		lsls	r2, r3, #9
 8313 0238 02F40072 		and	r2, r2, #512
 860:Drivers/display_ILI-93xx_sm/lcd.c **** 	GPIOB->ODR = (GPIOB->ODR & 0xFBC7) | (data & 0x08) | ((data & 0x10) << 1) | ((data & 0x20) >> 1) |
 8314              		.loc 1 860 37 view .LVU2572
 8315 023c 1143     		orrs	r1, r1, r2
 860:Drivers/display_ILI-93xx_sm/lcd.c **** 	GPIOB->ODR = (GPIOB->ODR & 0xFBC7) | (data & 0x08) | ((data & 0x10) << 1) | ((data & 0x20) >> 1) |
 8316              		.loc 1 860 77 view .LVU2573
 8317 023e 1A02     		lsls	r2, r3, #8
 8318 0240 02F48062 		and	r2, r2, #1024
 860:Drivers/display_ILI-93xx_sm/lcd.c **** 	GPIOB->ODR = (GPIOB->ODR & 0xFBC7) | (data & 0x08) | ((data & 0x10) << 1) | ((data & 0x20) >> 1) |
 8319              		.loc 1 860 60 view .LVU2574
 8320 0244 1143     		orrs	r1, r1, r2
 860:Drivers/display_ILI-93xx_sm/lcd.c **** 	GPIOB->ODR = (GPIOB->ODR & 0xFBC7) | (data & 0x08) | ((data & 0x10) << 1) | ((data & 0x20) >> 1) |
 8321              		.loc 1 860 100 view .LVU2575
 8322 0246 5D00     		lsls	r5, r3, #1
 8323 0248 05F48072 		and	r2, r5, #256
 860:Drivers/display_ILI-93xx_sm/lcd.c **** 	GPIOB->ODR = (GPIOB->ODR & 0xFBC7) | (data & 0x08) | ((data & 0x10) << 1) | ((data & 0x20) >> 1) |
 8324              		.loc 1 860 83 view .LVU2576
ARM GAS  /tmp/cc47Teva.s 			page 218


 8325 024c 1143     		orrs	r1, r1, r2
 860:Drivers/display_ILI-93xx_sm/lcd.c **** 	GPIOB->ODR = (GPIOB->ODR & 0xFBC7) | (data & 0x08) | ((data & 0x10) << 1) | ((data & 0x20) >> 1) |
 8326              		.loc 1 860 123 view .LVU2577
 8327 024e 9A01     		lsls	r2, r3, #6
 8328 0250 02F08002 		and	r2, r2, #128
 860:Drivers/display_ILI-93xx_sm/lcd.c **** 	GPIOB->ODR = (GPIOB->ODR & 0xFBC7) | (data & 0x08) | ((data & 0x10) << 1) | ((data & 0x20) >> 1) |
 8329              		.loc 1 860 106 view .LVU2578
 8330 0254 1143     		orrs	r1, r1, r2
 860:Drivers/display_ILI-93xx_sm/lcd.c **** 	GPIOB->ODR = (GPIOB->ODR & 0xFBC7) | (data & 0x08) | ((data & 0x10) << 1) | ((data & 0x20) >> 1) |
 8331              		.loc 1 860 13 view .LVU2579
 8332 0256 C160     		str	r1, [r0, #12]
 861:Drivers/display_ILI-93xx_sm/lcd.c **** #else
 8333              		.loc 1 861 2 is_stmt 1 view .LVU2580
 861:Drivers/display_ILI-93xx_sm/lcd.c **** #else
 8334              		.loc 1 861 21 is_stmt 0 view .LVU2581
 8335 0258 3449     		ldr	r1, .L463+8
 8336 025a CA68     		ldr	r2, [r1, #12]
 861:Drivers/display_ILI-93xx_sm/lcd.c **** #else
 8337              		.loc 1 861 27 view .LVU2582
 8338 025c 22F48762 		bic	r2, r2, #1080
 8339 0260 1204     		lsls	r2, r2, #16
 8340 0262 120C     		lsrs	r2, r2, #16
 861:Drivers/display_ILI-93xx_sm/lcd.c **** #else
 8341              		.loc 1 861 45 view .LVU2583
 8342 0264 03F00807 		and	r7, r3, #8
 861:Drivers/display_ILI-93xx_sm/lcd.c **** #else
 8343              		.loc 1 861 37 view .LVU2584
 8344 0268 3A43     		orrs	r2, r2, r7
 861:Drivers/display_ILI-93xx_sm/lcd.c **** #else
 8345              		.loc 1 861 70 view .LVU2585
 8346 026a 05F02005 		and	r5, r5, #32
 861:Drivers/display_ILI-93xx_sm/lcd.c **** #else
 8347              		.loc 1 861 53 view .LVU2586
 8348 026e 2A43     		orrs	r2, r2, r5
 861:Drivers/display_ILI-93xx_sm/lcd.c **** #else
 8349              		.loc 1 861 93 view .LVU2587
 8350 0270 5D10     		asrs	r5, r3, #1
 8351 0272 05F01005 		and	r5, r5, #16
 861:Drivers/display_ILI-93xx_sm/lcd.c **** #else
 8352              		.loc 1 861 76 view .LVU2588
 8353 0276 2A43     		orrs	r2, r2, r5
 861:Drivers/display_ILI-93xx_sm/lcd.c **** #else
 8354              		.loc 1 861 116 view .LVU2589
 8355 0278 1B01     		lsls	r3, r3, #4
 8356              	.LVL533:
 861:Drivers/display_ILI-93xx_sm/lcd.c **** #else
 8357              		.loc 1 861 116 view .LVU2590
 8358 027a 03F48063 		and	r3, r3, #1024
 861:Drivers/display_ILI-93xx_sm/lcd.c **** #else
 8359              		.loc 1 861 99 view .LVU2591
 8360 027e 1343     		orrs	r3, r3, r2
 861:Drivers/display_ILI-93xx_sm/lcd.c **** #else
 8361              		.loc 1 861 13 view .LVU2592
 8362 0280 CB60     		str	r3, [r1, #12]
 869:Drivers/display_ILI-93xx_sm/lcd.c **** }
 8363              		.loc 1 869 2 is_stmt 1 view .LVU2593
 869:Drivers/display_ILI-93xx_sm/lcd.c **** }
ARM GAS  /tmp/cc47Teva.s 			page 219


 8364              		.loc 1 869 2 view .LVU2594
 8365 0282 4FF40033 		mov	r3, #131072
 8366 0286 0361     		str	r3, [r0, #16]
 869:Drivers/display_ILI-93xx_sm/lcd.c **** }
 8367              		.loc 1 869 2 view .LVU2595
 8368              	.LVL534:
 8369              	.LBB895:
 8370              	.LBI895:
 668:Drivers/display_ILI-93xx_sm/lcd.c **** 	for (; t; t--) __asm("nop");
 8371              		.loc 1 668 13 view .LVU2596
 8372              	.LBB896:
 669:Drivers/display_ILI-93xx_sm/lcd.c **** }
 8373              		.loc 1 669 2 view .LVU2597
 8374              	.LBE896:
 8375              	.LBE895:
 869:Drivers/display_ILI-93xx_sm/lcd.c **** }
 8376              		.loc 1 869 2 is_stmt 0 view .LVU2598
 8377 0288 0223     		movs	r3, #2
 8378 028a 01E0     		b	.L413
 8379              	.LVL535:
 8380              	.L414:
 8381              	.LBB898:
 8382              	.LBB897:
 669:Drivers/display_ILI-93xx_sm/lcd.c **** }
 8383              		.loc 1 669 17 is_stmt 1 view .LVU2599
 8384              		.syntax unified
 8385              	@ 669 "Drivers/display_ILI-93xx_sm/lcd.c" 1
 8386 028c 00BF     		nop
 8387              	@ 0 "" 2
 669:Drivers/display_ILI-93xx_sm/lcd.c **** }
 8388              		.loc 1 669 13 is_stmt 0 view .LVU2600
 8389              		.thumb
 8390              		.syntax unified
 8391 028e 013B     		subs	r3, r3, #1
 8392              	.LVL536:
 8393              	.L413:
 669:Drivers/display_ILI-93xx_sm/lcd.c **** }
 8394              		.loc 1 669 2 view .LVU2601
 8395 0290 002B     		cmp	r3, #0
 8396 0292 FBD1     		bne	.L414
 8397              	.LVL537:
 669:Drivers/display_ILI-93xx_sm/lcd.c **** }
 8398              		.loc 1 669 2 view .LVU2602
 8399              	.LBE897:
 8400              	.LBE898:
 869:Drivers/display_ILI-93xx_sm/lcd.c **** }
 8401              		.loc 1 869 2 is_stmt 1 view .LVU2603
 8402 0294 0223     		movs	r3, #2
 8403 0296 264A     		ldr	r2, .L463+12
 8404 0298 1361     		str	r3, [r2, #16]
 869:Drivers/display_ILI-93xx_sm/lcd.c **** }
 8405              		.loc 1 869 2 view .LVU2604
 8406              	.LVL538:
 8407              	.LBB899:
 8408              	.LBI899:
 668:Drivers/display_ILI-93xx_sm/lcd.c **** 	for (; t; t--) __asm("nop");
 8409              		.loc 1 668 13 view .LVU2605
ARM GAS  /tmp/cc47Teva.s 			page 220


 8410              	.L415:
 8411              	.LBB900:
 669:Drivers/display_ILI-93xx_sm/lcd.c **** }
 8412              		.loc 1 669 2 is_stmt 0 view .LVU2606
 8413 029a 13B1     		cbz	r3, .L452
 669:Drivers/display_ILI-93xx_sm/lcd.c **** }
 8414              		.loc 1 669 17 is_stmt 1 view .LVU2607
 8415              		.syntax unified
 8416              	@ 669 "Drivers/display_ILI-93xx_sm/lcd.c" 1
 8417 029c 00BF     		nop
 8418              	@ 0 "" 2
 669:Drivers/display_ILI-93xx_sm/lcd.c **** }
 8419              		.loc 1 669 13 is_stmt 0 view .LVU2608
 8420              		.thumb
 8421              		.syntax unified
 8422 029e 013B     		subs	r3, r3, #1
 8423              	.LVL539:
 669:Drivers/display_ILI-93xx_sm/lcd.c **** }
 8424              		.loc 1 669 13 view .LVU2609
 8425 02a0 FBE7     		b	.L415
 8426              	.L452:
 8427              	.LVL540:
 669:Drivers/display_ILI-93xx_sm/lcd.c **** }
 8428              		.loc 1 669 13 view .LVU2610
 8429              	.LBE900:
 8430              	.LBE899:
 8431              	.LBE894:
 8432              	.LBE893:
1798:Drivers/display_ILI-93xx_sm/lcd.c **** 			}
 8433              		.loc 1 1798 5 is_stmt 1 view .LVU2611
1798:Drivers/display_ILI-93xx_sm/lcd.c **** 			}
 8434              		.loc 1 1798 9 is_stmt 0 view .LVU2612
 8435 02a2 0334     		adds	r4, r4, #3
 8436              	.LVL541:
 8437              	.L408:
1789:Drivers/display_ILI-93xx_sm/lcd.c **** #if defined(SSD1297)
 8438              		.loc 1 1789 10 view .LVU2613
 8439 02a4 B442     		cmp	r4, r6
 8440 02a6 BFF417AF 		bcs	.L407
1795:Drivers/display_ILI-93xx_sm/lcd.c **** 				LCD_Write8(((*(ptr + 1) & 0x1C) << 3) | (*(ptr + 2) >> 3));
 8441              		.loc 1 1795 5 is_stmt 1 view .LVU2614
1795:Drivers/display_ILI-93xx_sm/lcd.c **** 				LCD_Write8(((*(ptr + 1) & 0x1C) << 3) | (*(ptr + 2) >> 3));
 8442              		.loc 1 1795 17 is_stmt 0 view .LVU2615
 8443 02aa 94F90030 		ldrsb	r3, [r4]
1795:Drivers/display_ILI-93xx_sm/lcd.c **** 				LCD_Write8(((*(ptr + 1) & 0x1C) << 3) | (*(ptr + 2) >> 3));
 8444              		.loc 1 1795 24 view .LVU2616
 8445 02ae 23F00703 		bic	r3, r3, #7
1795:Drivers/display_ILI-93xx_sm/lcd.c **** 				LCD_Write8(((*(ptr + 1) & 0x1C) << 3) | (*(ptr + 2) >> 3));
 8446              		.loc 1 1795 35 view .LVU2617
 8447 02b2 6278     		ldrb	r2, [r4, #1]	@ zero_extendqisi2
1795:Drivers/display_ILI-93xx_sm/lcd.c **** 				LCD_Write8(((*(ptr + 1) & 0x1C) << 3) | (*(ptr + 2) >> 3));
 8448              		.loc 1 1795 32 view .LVU2618
 8449 02b4 43EA5213 		orr	r3, r3, r2, lsr #5
1795:Drivers/display_ILI-93xx_sm/lcd.c **** 				LCD_Write8(((*(ptr + 1) & 0x1C) << 3) | (*(ptr + 2) >> 3));
 8450              		.loc 1 1795 5 view .LVU2619
 8451 02b8 DBB2     		uxtb	r3, r3
 8452              	.LVL542:
ARM GAS  /tmp/cc47Teva.s 			page 221


 8453              	.LBB901:
 8454              	.LBI884:
 847:Drivers/display_ILI-93xx_sm/lcd.c **** 	// ------ PORT -----     --- Data ----
 8455              		.loc 1 847 13 is_stmt 1 view .LVU2620
 8456              	.LBB892:
 860:Drivers/display_ILI-93xx_sm/lcd.c **** 	GPIOB->ODR = (GPIOB->ODR & 0xFBC7) | (data & 0x08) | ((data & 0x10) << 1) | ((data & 0x20) >> 1) |
 8457              		.loc 1 860 2 view .LVU2621
 860:Drivers/display_ILI-93xx_sm/lcd.c **** 	GPIOB->ODR = (GPIOB->ODR & 0xFBC7) | (data & 0x08) | ((data & 0x10) << 1) | ((data & 0x20) >> 1) |
 8458              		.loc 1 860 21 is_stmt 0 view .LVU2622
 8459 02ba 1D48     		ldr	r0, .L463+12
 8460 02bc C168     		ldr	r1, [r0, #12]
 860:Drivers/display_ILI-93xx_sm/lcd.c **** 	GPIOB->ODR = (GPIOB->ODR & 0xFBC7) | (data & 0x08) | ((data & 0x10) << 1) | ((data & 0x20) >> 1) |
 8461              		.loc 1 860 27 view .LVU2623
 8462 02be 21F4F061 		bic	r1, r1, #1920
 8463 02c2 0904     		lsls	r1, r1, #16
 8464 02c4 090C     		lsrs	r1, r1, #16
 860:Drivers/display_ILI-93xx_sm/lcd.c **** 	GPIOB->ODR = (GPIOB->ODR & 0xFBC7) | (data & 0x08) | ((data & 0x10) << 1) | ((data & 0x20) >> 1) |
 8465              		.loc 1 860 54 view .LVU2624
 8466 02c6 5A02     		lsls	r2, r3, #9
 8467 02c8 02F40072 		and	r2, r2, #512
 860:Drivers/display_ILI-93xx_sm/lcd.c **** 	GPIOB->ODR = (GPIOB->ODR & 0xFBC7) | (data & 0x08) | ((data & 0x10) << 1) | ((data & 0x20) >> 1) |
 8468              		.loc 1 860 37 view .LVU2625
 8469 02cc 1143     		orrs	r1, r1, r2
 860:Drivers/display_ILI-93xx_sm/lcd.c **** 	GPIOB->ODR = (GPIOB->ODR & 0xFBC7) | (data & 0x08) | ((data & 0x10) << 1) | ((data & 0x20) >> 1) |
 8470              		.loc 1 860 77 view .LVU2626
 8471 02ce 1A02     		lsls	r2, r3, #8
 8472 02d0 02F48062 		and	r2, r2, #1024
 860:Drivers/display_ILI-93xx_sm/lcd.c **** 	GPIOB->ODR = (GPIOB->ODR & 0xFBC7) | (data & 0x08) | ((data & 0x10) << 1) | ((data & 0x20) >> 1) |
 8473              		.loc 1 860 60 view .LVU2627
 8474 02d4 1143     		orrs	r1, r1, r2
 860:Drivers/display_ILI-93xx_sm/lcd.c **** 	GPIOB->ODR = (GPIOB->ODR & 0xFBC7) | (data & 0x08) | ((data & 0x10) << 1) | ((data & 0x20) >> 1) |
 8475              		.loc 1 860 100 view .LVU2628
 8476 02d6 5D00     		lsls	r5, r3, #1
 8477 02d8 05F48072 		and	r2, r5, #256
 860:Drivers/display_ILI-93xx_sm/lcd.c **** 	GPIOB->ODR = (GPIOB->ODR & 0xFBC7) | (data & 0x08) | ((data & 0x10) << 1) | ((data & 0x20) >> 1) |
 8478              		.loc 1 860 83 view .LVU2629
 8479 02dc 1143     		orrs	r1, r1, r2
 860:Drivers/display_ILI-93xx_sm/lcd.c **** 	GPIOB->ODR = (GPIOB->ODR & 0xFBC7) | (data & 0x08) | ((data & 0x10) << 1) | ((data & 0x20) >> 1) |
 8480              		.loc 1 860 123 view .LVU2630
 8481 02de 9A01     		lsls	r2, r3, #6
 8482 02e0 02F08002 		and	r2, r2, #128
 860:Drivers/display_ILI-93xx_sm/lcd.c **** 	GPIOB->ODR = (GPIOB->ODR & 0xFBC7) | (data & 0x08) | ((data & 0x10) << 1) | ((data & 0x20) >> 1) |
 8483              		.loc 1 860 106 view .LVU2631
 8484 02e4 1143     		orrs	r1, r1, r2
 860:Drivers/display_ILI-93xx_sm/lcd.c **** 	GPIOB->ODR = (GPIOB->ODR & 0xFBC7) | (data & 0x08) | ((data & 0x10) << 1) | ((data & 0x20) >> 1) |
 8485              		.loc 1 860 13 view .LVU2632
 8486 02e6 C160     		str	r1, [r0, #12]
 861:Drivers/display_ILI-93xx_sm/lcd.c **** #else
 8487              		.loc 1 861 2 is_stmt 1 view .LVU2633
 861:Drivers/display_ILI-93xx_sm/lcd.c **** #else
 8488              		.loc 1 861 21 is_stmt 0 view .LVU2634
 8489 02e8 1049     		ldr	r1, .L463+8
 8490 02ea CA68     		ldr	r2, [r1, #12]
 861:Drivers/display_ILI-93xx_sm/lcd.c **** #else
 8491              		.loc 1 861 27 view .LVU2635
 8492 02ec 22F48762 		bic	r2, r2, #1080
 8493 02f0 1204     		lsls	r2, r2, #16
ARM GAS  /tmp/cc47Teva.s 			page 222


 8494 02f2 120C     		lsrs	r2, r2, #16
 861:Drivers/display_ILI-93xx_sm/lcd.c **** #else
 8495              		.loc 1 861 45 view .LVU2636
 8496 02f4 03F00807 		and	r7, r3, #8
 861:Drivers/display_ILI-93xx_sm/lcd.c **** #else
 8497              		.loc 1 861 37 view .LVU2637
 8498 02f8 3A43     		orrs	r2, r2, r7
 861:Drivers/display_ILI-93xx_sm/lcd.c **** #else
 8499              		.loc 1 861 70 view .LVU2638
 8500 02fa 05F02005 		and	r5, r5, #32
 861:Drivers/display_ILI-93xx_sm/lcd.c **** #else
 8501              		.loc 1 861 53 view .LVU2639
 8502 02fe 2A43     		orrs	r2, r2, r5
 861:Drivers/display_ILI-93xx_sm/lcd.c **** #else
 8503              		.loc 1 861 93 view .LVU2640
 8504 0300 5D10     		asrs	r5, r3, #1
 8505 0302 05F01005 		and	r5, r5, #16
 861:Drivers/display_ILI-93xx_sm/lcd.c **** #else
 8506              		.loc 1 861 76 view .LVU2641
 8507 0306 2A43     		orrs	r2, r2, r5
 861:Drivers/display_ILI-93xx_sm/lcd.c **** #else
 8508              		.loc 1 861 116 view .LVU2642
 8509 0308 1B01     		lsls	r3, r3, #4
 8510              	.LVL543:
 861:Drivers/display_ILI-93xx_sm/lcd.c **** #else
 8511              		.loc 1 861 116 view .LVU2643
 8512 030a 03F48063 		and	r3, r3, #1024
 861:Drivers/display_ILI-93xx_sm/lcd.c **** #else
 8513              		.loc 1 861 99 view .LVU2644
 8514 030e 1343     		orrs	r3, r3, r2
 861:Drivers/display_ILI-93xx_sm/lcd.c **** #else
 8515              		.loc 1 861 13 view .LVU2645
 8516 0310 CB60     		str	r3, [r1, #12]
 869:Drivers/display_ILI-93xx_sm/lcd.c **** }
 8517              		.loc 1 869 2 is_stmt 1 view .LVU2646
 869:Drivers/display_ILI-93xx_sm/lcd.c **** }
 8518              		.loc 1 869 2 view .LVU2647
 8519 0312 4FF40033 		mov	r3, #131072
 8520 0316 0361     		str	r3, [r0, #16]
 869:Drivers/display_ILI-93xx_sm/lcd.c **** }
 8521              		.loc 1 869 2 view .LVU2648
 8522              	.LVL544:
 8523              	.LBB891:
 8524              	.LBI886:
 668:Drivers/display_ILI-93xx_sm/lcd.c **** 	for (; t; t--) __asm("nop");
 8525              		.loc 1 668 13 view .LVU2649
 8526              	.LBB888:
 669:Drivers/display_ILI-93xx_sm/lcd.c **** }
 8527              		.loc 1 669 2 view .LVU2650
 8528              	.LBE888:
 8529              	.LBE891:
 869:Drivers/display_ILI-93xx_sm/lcd.c **** }
 8530              		.loc 1 869 2 is_stmt 0 view .LVU2651
 8531 0318 0223     		movs	r3, #2
 8532 031a 73E7     		b	.L409
 8533              	.LVL545:
 8534              	.L449:
ARM GAS  /tmp/cc47Teva.s 			page 223


 869:Drivers/display_ILI-93xx_sm/lcd.c **** }
 8535              		.loc 1 869 2 view .LVU2652
 8536              	.LBE892:
 8537              	.LBE901:
 8538              	.LBB902:
1807:Drivers/display_ILI-93xx_sm/lcd.c **** 				rowstart = start + row * width * 2;
 8539              		.loc 1 1807 4 is_stmt 1 view .LVU2653
 8540              	.LBB828:
1807:Drivers/display_ILI-93xx_sm/lcd.c **** 				rowstart = start + row * width * 2;
 8541              		.loc 1 1807 9 view .LVU2654
1807:Drivers/display_ILI-93xx_sm/lcd.c **** 				rowstart = start + row * width * 2;
 8542              		.loc 1 1807 31 is_stmt 0 view .LVU2655
 8543 031c BFB2     		uxth	r7, r7
 8544              	.LVL546:
1807:Drivers/display_ILI-93xx_sm/lcd.c **** 				rowstart = start + row * width * 2;
 8545              		.loc 1 1807 18 view .LVU2656
 8546 031e 013F     		subs	r7, r7, #1
 8547 0320 BFB2     		uxth	r7, r7
 8548              	.LVL547:
1807:Drivers/display_ILI-93xx_sm/lcd.c **** 				rowstart = start + row * width * 2;
 8549              		.loc 1 1807 4 view .LVU2657
 8550 0322 90E0     		b	.L419
 8551              	.L464:
 8552              		.align	2
 8553              	.L463:
 8554 0324 00000000 		.word	.LANCHOR0
 8555 0328 00000000 		.word	.LANCHOR1
 8556 032c 000C0140 		.word	1073810432
 8557 0330 00080140 		.word	1073809408
 8558              	.LVL548:
 8559              	.L457:
 8560              	.LBB829:
 8561              	.LBB830:
 869:Drivers/display_ILI-93xx_sm/lcd.c **** }
 8562              		.loc 1 869 2 is_stmt 1 view .LVU2658
 8563 0334 0223     		movs	r3, #2
 8564 0336 AA4A     		ldr	r2, .L465
 8565 0338 1361     		str	r3, [r2, #16]
 869:Drivers/display_ILI-93xx_sm/lcd.c **** }
 8566              		.loc 1 869 2 view .LVU2659
 8567              	.LVL549:
 8568              	.LBB831:
 8569              	.LBI831:
 668:Drivers/display_ILI-93xx_sm/lcd.c **** 	for (; t; t--) __asm("nop");
 8570              		.loc 1 668 13 view .LVU2660
 8571              	.L423:
 8572              	.LBB832:
 669:Drivers/display_ILI-93xx_sm/lcd.c **** }
 8573              		.loc 1 669 2 is_stmt 0 view .LVU2661
 8574 033a 13B1     		cbz	r3, .L453
 669:Drivers/display_ILI-93xx_sm/lcd.c **** }
 8575              		.loc 1 669 17 is_stmt 1 view .LVU2662
 8576              		.syntax unified
 8577              	@ 669 "Drivers/display_ILI-93xx_sm/lcd.c" 1
 8578 033c 00BF     		nop
 8579              	@ 0 "" 2
 669:Drivers/display_ILI-93xx_sm/lcd.c **** }
ARM GAS  /tmp/cc47Teva.s 			page 224


 8580              		.loc 1 669 13 is_stmt 0 view .LVU2663
 8581              		.thumb
 8582              		.syntax unified
 8583 033e 013B     		subs	r3, r3, #1
 8584              	.LVL550:
 669:Drivers/display_ILI-93xx_sm/lcd.c **** }
 8585              		.loc 1 669 13 view .LVU2664
 8586 0340 FBE7     		b	.L423
 8587              	.L453:
 8588              	.LVL551:
 669:Drivers/display_ILI-93xx_sm/lcd.c **** }
 8589              		.loc 1 669 13 view .LVU2665
 8590              	.LBE832:
 8591              	.LBE831:
 8592              	.LBE830:
 8593              	.LBE829:
1818:Drivers/display_ILI-93xx_sm/lcd.c **** #endif
 8594              		.loc 1 1818 6 is_stmt 1 view .LVU2666
 8595 0342 0A78     		ldrb	r2, [r1]	@ zero_extendqisi2
 8596              	.LVL552:
 8597              	.LBB838:
 8598              	.LBI838:
 847:Drivers/display_ILI-93xx_sm/lcd.c **** 	// ------ PORT -----     --- Data ----
 8599              		.loc 1 847 13 view .LVU2667
 8600              	.LBB839:
 860:Drivers/display_ILI-93xx_sm/lcd.c **** 	GPIOB->ODR = (GPIOB->ODR & 0xFBC7) | (data & 0x08) | ((data & 0x10) << 1) | ((data & 0x20) >> 1) |
 8601              		.loc 1 860 2 view .LVU2668
 860:Drivers/display_ILI-93xx_sm/lcd.c **** 	GPIOB->ODR = (GPIOB->ODR & 0xFBC7) | (data & 0x08) | ((data & 0x10) << 1) | ((data & 0x20) >> 1) |
 8602              		.loc 1 860 21 is_stmt 0 view .LVU2669
 8603 0344 A648     		ldr	r0, .L465
 8604 0346 C668     		ldr	r6, [r0, #12]
 860:Drivers/display_ILI-93xx_sm/lcd.c **** 	GPIOB->ODR = (GPIOB->ODR & 0xFBC7) | (data & 0x08) | ((data & 0x10) << 1) | ((data & 0x20) >> 1) |
 8605              		.loc 1 860 27 view .LVU2670
 8606 0348 26F4F066 		bic	r6, r6, #1920
 8607 034c 3604     		lsls	r6, r6, #16
 8608 034e 360C     		lsrs	r6, r6, #16
 860:Drivers/display_ILI-93xx_sm/lcd.c **** 	GPIOB->ODR = (GPIOB->ODR & 0xFBC7) | (data & 0x08) | ((data & 0x10) << 1) | ((data & 0x20) >> 1) |
 8609              		.loc 1 860 54 view .LVU2671
 8610 0350 5302     		lsls	r3, r2, #9
 8611 0352 03F40073 		and	r3, r3, #512
 860:Drivers/display_ILI-93xx_sm/lcd.c **** 	GPIOB->ODR = (GPIOB->ODR & 0xFBC7) | (data & 0x08) | ((data & 0x10) << 1) | ((data & 0x20) >> 1) |
 8612              		.loc 1 860 37 view .LVU2672
 8613 0356 1E43     		orrs	r6, r6, r3
 860:Drivers/display_ILI-93xx_sm/lcd.c **** 	GPIOB->ODR = (GPIOB->ODR & 0xFBC7) | (data & 0x08) | ((data & 0x10) << 1) | ((data & 0x20) >> 1) |
 8614              		.loc 1 860 77 view .LVU2673
 8615 0358 1302     		lsls	r3, r2, #8
 8616 035a 03F48063 		and	r3, r3, #1024
 860:Drivers/display_ILI-93xx_sm/lcd.c **** 	GPIOB->ODR = (GPIOB->ODR & 0xFBC7) | (data & 0x08) | ((data & 0x10) << 1) | ((data & 0x20) >> 1) |
 8617              		.loc 1 860 60 view .LVU2674
 8618 035e 1E43     		orrs	r6, r6, r3
 860:Drivers/display_ILI-93xx_sm/lcd.c **** 	GPIOB->ODR = (GPIOB->ODR & 0xFBC7) | (data & 0x08) | ((data & 0x10) << 1) | ((data & 0x20) >> 1) |
 8619              		.loc 1 860 100 view .LVU2675
 8620 0360 4FEA420E 		lsl	lr, r2, #1
 8621 0364 0EF48073 		and	r3, lr, #256
 860:Drivers/display_ILI-93xx_sm/lcd.c **** 	GPIOB->ODR = (GPIOB->ODR & 0xFBC7) | (data & 0x08) | ((data & 0x10) << 1) | ((data & 0x20) >> 1) |
 8622              		.loc 1 860 83 view .LVU2676
 8623 0368 1E43     		orrs	r6, r6, r3
ARM GAS  /tmp/cc47Teva.s 			page 225


 860:Drivers/display_ILI-93xx_sm/lcd.c **** 	GPIOB->ODR = (GPIOB->ODR & 0xFBC7) | (data & 0x08) | ((data & 0x10) << 1) | ((data & 0x20) >> 1) |
 8624              		.loc 1 860 123 view .LVU2677
 8625 036a 9301     		lsls	r3, r2, #6
 8626 036c 03F08003 		and	r3, r3, #128
 860:Drivers/display_ILI-93xx_sm/lcd.c **** 	GPIOB->ODR = (GPIOB->ODR & 0xFBC7) | (data & 0x08) | ((data & 0x10) << 1) | ((data & 0x20) >> 1) |
 8627              		.loc 1 860 106 view .LVU2678
 8628 0370 1E43     		orrs	r6, r6, r3
 860:Drivers/display_ILI-93xx_sm/lcd.c **** 	GPIOB->ODR = (GPIOB->ODR & 0xFBC7) | (data & 0x08) | ((data & 0x10) << 1) | ((data & 0x20) >> 1) |
 8629              		.loc 1 860 13 view .LVU2679
 8630 0372 C660     		str	r6, [r0, #12]
 861:Drivers/display_ILI-93xx_sm/lcd.c **** #else
 8631              		.loc 1 861 2 is_stmt 1 view .LVU2680
 861:Drivers/display_ILI-93xx_sm/lcd.c **** #else
 8632              		.loc 1 861 21 is_stmt 0 view .LVU2681
 8633 0374 9B4E     		ldr	r6, .L465+4
 8634 0376 F368     		ldr	r3, [r6, #12]
 861:Drivers/display_ILI-93xx_sm/lcd.c **** #else
 8635              		.loc 1 861 27 view .LVU2682
 8636 0378 23F48763 		bic	r3, r3, #1080
 8637 037c 1B04     		lsls	r3, r3, #16
 8638 037e 1B0C     		lsrs	r3, r3, #16
 861:Drivers/display_ILI-93xx_sm/lcd.c **** #else
 8639              		.loc 1 861 45 view .LVU2683
 8640 0380 02F00808 		and	r8, r2, #8
 861:Drivers/display_ILI-93xx_sm/lcd.c **** #else
 8641              		.loc 1 861 37 view .LVU2684
 8642 0384 43EA0803 		orr	r3, r3, r8
 861:Drivers/display_ILI-93xx_sm/lcd.c **** #else
 8643              		.loc 1 861 70 view .LVU2685
 8644 0388 0EF0200E 		and	lr, lr, #32
 861:Drivers/display_ILI-93xx_sm/lcd.c **** #else
 8645              		.loc 1 861 53 view .LVU2686
 8646 038c 43EA0E03 		orr	r3, r3, lr
 861:Drivers/display_ILI-93xx_sm/lcd.c **** #else
 8647              		.loc 1 861 93 view .LVU2687
 8648 0390 4FEA620E 		asr	lr, r2, #1
 8649 0394 0EF0100E 		and	lr, lr, #16
 861:Drivers/display_ILI-93xx_sm/lcd.c **** #else
 8650              		.loc 1 861 76 view .LVU2688
 8651 0398 43EA0E03 		orr	r3, r3, lr
 861:Drivers/display_ILI-93xx_sm/lcd.c **** #else
 8652              		.loc 1 861 116 view .LVU2689
 8653 039c 1201     		lsls	r2, r2, #4
 8654              	.LVL553:
 861:Drivers/display_ILI-93xx_sm/lcd.c **** #else
 8655              		.loc 1 861 116 view .LVU2690
 8656 039e 02F48062 		and	r2, r2, #1024
 861:Drivers/display_ILI-93xx_sm/lcd.c **** #else
 8657              		.loc 1 861 99 view .LVU2691
 8658 03a2 1343     		orrs	r3, r3, r2
 861:Drivers/display_ILI-93xx_sm/lcd.c **** #else
 8659              		.loc 1 861 13 view .LVU2692
 8660 03a4 F360     		str	r3, [r6, #12]
 869:Drivers/display_ILI-93xx_sm/lcd.c **** }
 8661              		.loc 1 869 2 is_stmt 1 view .LVU2693
 869:Drivers/display_ILI-93xx_sm/lcd.c **** }
 8662              		.loc 1 869 2 view .LVU2694
ARM GAS  /tmp/cc47Teva.s 			page 226


 8663 03a6 4FF40033 		mov	r3, #131072
 8664 03aa 0361     		str	r3, [r0, #16]
 869:Drivers/display_ILI-93xx_sm/lcd.c **** }
 8665              		.loc 1 869 2 view .LVU2695
 8666              	.LVL554:
 8667              	.LBB840:
 8668              	.LBI840:
 668:Drivers/display_ILI-93xx_sm/lcd.c **** 	for (; t; t--) __asm("nop");
 8669              		.loc 1 668 13 view .LVU2696
 8670              	.LBB841:
 669:Drivers/display_ILI-93xx_sm/lcd.c **** }
 8671              		.loc 1 669 2 view .LVU2697
 8672              	.LBE841:
 8673              	.LBE840:
 869:Drivers/display_ILI-93xx_sm/lcd.c **** }
 8674              		.loc 1 869 2 is_stmt 0 view .LVU2698
 8675 03ac 0223     		movs	r3, #2
 8676              	.LVL555:
 8677              	.L425:
 8678              	.LBB843:
 8679              	.LBB842:
 669:Drivers/display_ILI-93xx_sm/lcd.c **** }
 8680              		.loc 1 669 2 view .LVU2699
 8681 03ae 13B1     		cbz	r3, .L454
 669:Drivers/display_ILI-93xx_sm/lcd.c **** }
 8682              		.loc 1 669 17 is_stmt 1 view .LVU2700
 8683              		.syntax unified
 8684              	@ 669 "Drivers/display_ILI-93xx_sm/lcd.c" 1
 8685 03b0 00BF     		nop
 8686              	@ 0 "" 2
 669:Drivers/display_ILI-93xx_sm/lcd.c **** }
 8687              		.loc 1 669 13 is_stmt 0 view .LVU2701
 8688              		.thumb
 8689              		.syntax unified
 8690 03b2 013B     		subs	r3, r3, #1
 8691              	.LVL556:
 669:Drivers/display_ILI-93xx_sm/lcd.c **** }
 8692              		.loc 1 669 13 view .LVU2702
 8693 03b4 FBE7     		b	.L425
 8694              	.L454:
 8695              	.LVL557:
 669:Drivers/display_ILI-93xx_sm/lcd.c **** }
 8696              		.loc 1 669 13 view .LVU2703
 8697              	.LBE842:
 8698              	.LBE843:
 869:Drivers/display_ILI-93xx_sm/lcd.c **** }
 8699              		.loc 1 869 2 is_stmt 1 view .LVU2704
 8700 03b6 0223     		movs	r3, #2
 8701 03b8 894A     		ldr	r2, .L465
 8702 03ba 1361     		str	r3, [r2, #16]
 869:Drivers/display_ILI-93xx_sm/lcd.c **** }
 8703              		.loc 1 869 2 view .LVU2705
 8704              	.LVL558:
 8705              	.LBB844:
 8706              	.LBI844:
 668:Drivers/display_ILI-93xx_sm/lcd.c **** 	for (; t; t--) __asm("nop");
 8707              		.loc 1 668 13 view .LVU2706
ARM GAS  /tmp/cc47Teva.s 			page 227


 8708              	.L427:
 8709              	.LBB845:
 669:Drivers/display_ILI-93xx_sm/lcd.c **** }
 8710              		.loc 1 669 2 is_stmt 0 view .LVU2707
 8711 03bc 13B1     		cbz	r3, .L455
 669:Drivers/display_ILI-93xx_sm/lcd.c **** }
 8712              		.loc 1 669 17 is_stmt 1 view .LVU2708
 8713              		.syntax unified
 8714              	@ 669 "Drivers/display_ILI-93xx_sm/lcd.c" 1
 8715 03be 00BF     		nop
 8716              	@ 0 "" 2
 669:Drivers/display_ILI-93xx_sm/lcd.c **** }
 8717              		.loc 1 669 13 is_stmt 0 view .LVU2709
 8718              		.thumb
 8719              		.syntax unified
 8720 03c0 013B     		subs	r3, r3, #1
 8721              	.LVL559:
 669:Drivers/display_ILI-93xx_sm/lcd.c **** }
 8722              		.loc 1 669 13 view .LVU2710
 8723 03c2 FBE7     		b	.L427
 8724              	.L455:
 8725              	.LVL560:
 669:Drivers/display_ILI-93xx_sm/lcd.c **** }
 8726              		.loc 1 669 13 view .LVU2711
 8727              	.LBE845:
 8728              	.LBE844:
 8729              	.LBE839:
 8730              	.LBE838:
1820:Drivers/display_ILI-93xx_sm/lcd.c **** 				}
 8731              		.loc 1 1820 6 is_stmt 1 view .LVU2712
1820:Drivers/display_ILI-93xx_sm/lcd.c **** 				}
 8732              		.loc 1 1820 10 is_stmt 0 view .LVU2713
 8733 03c4 0231     		adds	r1, r1, #2
 8734              	.LVL561:
 8735              	.L420:
1811:Drivers/display_ILI-93xx_sm/lcd.c **** #if defined(SSD1297)
 8736              		.loc 1 1811 11 view .LVU2714
 8737 03c6 6145     		cmp	r1, ip
 8738 03c8 3BD2     		bcs	.L456
1817:Drivers/display_ILI-93xx_sm/lcd.c **** 					LCD_Write8(*(ptr));
 8739              		.loc 1 1817 6 is_stmt 1 view .LVU2715
 8740 03ca 4A78     		ldrb	r2, [r1, #1]	@ zero_extendqisi2
 8741              	.LVL562:
 8742              	.LBB846:
 8743              	.LBI829:
 847:Drivers/display_ILI-93xx_sm/lcd.c **** 	// ------ PORT -----     --- Data ----
 8744              		.loc 1 847 13 view .LVU2716
 8745              	.LBB837:
 860:Drivers/display_ILI-93xx_sm/lcd.c **** 	GPIOB->ODR = (GPIOB->ODR & 0xFBC7) | (data & 0x08) | ((data & 0x10) << 1) | ((data & 0x20) >> 1) |
 8746              		.loc 1 860 2 view .LVU2717
 860:Drivers/display_ILI-93xx_sm/lcd.c **** 	GPIOB->ODR = (GPIOB->ODR & 0xFBC7) | (data & 0x08) | ((data & 0x10) << 1) | ((data & 0x20) >> 1) |
 8747              		.loc 1 860 21 is_stmt 0 view .LVU2718
 8748 03cc 8448     		ldr	r0, .L465
 8749 03ce C668     		ldr	r6, [r0, #12]
 860:Drivers/display_ILI-93xx_sm/lcd.c **** 	GPIOB->ODR = (GPIOB->ODR & 0xFBC7) | (data & 0x08) | ((data & 0x10) << 1) | ((data & 0x20) >> 1) |
 8750              		.loc 1 860 27 view .LVU2719
 8751 03d0 26F4F066 		bic	r6, r6, #1920
ARM GAS  /tmp/cc47Teva.s 			page 228


 8752 03d4 3604     		lsls	r6, r6, #16
 8753 03d6 360C     		lsrs	r6, r6, #16
 860:Drivers/display_ILI-93xx_sm/lcd.c **** 	GPIOB->ODR = (GPIOB->ODR & 0xFBC7) | (data & 0x08) | ((data & 0x10) << 1) | ((data & 0x20) >> 1) |
 8754              		.loc 1 860 54 view .LVU2720
 8755 03d8 5302     		lsls	r3, r2, #9
 8756 03da 03F40073 		and	r3, r3, #512
 860:Drivers/display_ILI-93xx_sm/lcd.c **** 	GPIOB->ODR = (GPIOB->ODR & 0xFBC7) | (data & 0x08) | ((data & 0x10) << 1) | ((data & 0x20) >> 1) |
 8757              		.loc 1 860 37 view .LVU2721
 8758 03de 1E43     		orrs	r6, r6, r3
 860:Drivers/display_ILI-93xx_sm/lcd.c **** 	GPIOB->ODR = (GPIOB->ODR & 0xFBC7) | (data & 0x08) | ((data & 0x10) << 1) | ((data & 0x20) >> 1) |
 8759              		.loc 1 860 77 view .LVU2722
 8760 03e0 1302     		lsls	r3, r2, #8
 8761 03e2 03F48063 		and	r3, r3, #1024
 860:Drivers/display_ILI-93xx_sm/lcd.c **** 	GPIOB->ODR = (GPIOB->ODR & 0xFBC7) | (data & 0x08) | ((data & 0x10) << 1) | ((data & 0x20) >> 1) |
 8762              		.loc 1 860 60 view .LVU2723
 8763 03e6 1E43     		orrs	r6, r6, r3
 860:Drivers/display_ILI-93xx_sm/lcd.c **** 	GPIOB->ODR = (GPIOB->ODR & 0xFBC7) | (data & 0x08) | ((data & 0x10) << 1) | ((data & 0x20) >> 1) |
 8764              		.loc 1 860 100 view .LVU2724
 8765 03e8 4FEA420E 		lsl	lr, r2, #1
 8766 03ec 0EF48073 		and	r3, lr, #256
 860:Drivers/display_ILI-93xx_sm/lcd.c **** 	GPIOB->ODR = (GPIOB->ODR & 0xFBC7) | (data & 0x08) | ((data & 0x10) << 1) | ((data & 0x20) >> 1) |
 8767              		.loc 1 860 83 view .LVU2725
 8768 03f0 1E43     		orrs	r6, r6, r3
 860:Drivers/display_ILI-93xx_sm/lcd.c **** 	GPIOB->ODR = (GPIOB->ODR & 0xFBC7) | (data & 0x08) | ((data & 0x10) << 1) | ((data & 0x20) >> 1) |
 8769              		.loc 1 860 123 view .LVU2726
 8770 03f2 9301     		lsls	r3, r2, #6
 8771 03f4 03F08003 		and	r3, r3, #128
 860:Drivers/display_ILI-93xx_sm/lcd.c **** 	GPIOB->ODR = (GPIOB->ODR & 0xFBC7) | (data & 0x08) | ((data & 0x10) << 1) | ((data & 0x20) >> 1) |
 8772              		.loc 1 860 106 view .LVU2727
 8773 03f8 1E43     		orrs	r6, r6, r3
 860:Drivers/display_ILI-93xx_sm/lcd.c **** 	GPIOB->ODR = (GPIOB->ODR & 0xFBC7) | (data & 0x08) | ((data & 0x10) << 1) | ((data & 0x20) >> 1) |
 8774              		.loc 1 860 13 view .LVU2728
 8775 03fa C660     		str	r6, [r0, #12]
 861:Drivers/display_ILI-93xx_sm/lcd.c **** #else
 8776              		.loc 1 861 2 is_stmt 1 view .LVU2729
 861:Drivers/display_ILI-93xx_sm/lcd.c **** #else
 8777              		.loc 1 861 21 is_stmt 0 view .LVU2730
 8778 03fc 794E     		ldr	r6, .L465+4
 8779 03fe F368     		ldr	r3, [r6, #12]
 861:Drivers/display_ILI-93xx_sm/lcd.c **** #else
 8780              		.loc 1 861 27 view .LVU2731
 8781 0400 23F48763 		bic	r3, r3, #1080
 8782 0404 1B04     		lsls	r3, r3, #16
 8783 0406 1B0C     		lsrs	r3, r3, #16
 861:Drivers/display_ILI-93xx_sm/lcd.c **** #else
 8784              		.loc 1 861 45 view .LVU2732
 8785 0408 02F00808 		and	r8, r2, #8
 861:Drivers/display_ILI-93xx_sm/lcd.c **** #else
 8786              		.loc 1 861 37 view .LVU2733
 8787 040c 43EA0803 		orr	r3, r3, r8
 861:Drivers/display_ILI-93xx_sm/lcd.c **** #else
 8788              		.loc 1 861 70 view .LVU2734
 8789 0410 0EF0200E 		and	lr, lr, #32
 861:Drivers/display_ILI-93xx_sm/lcd.c **** #else
 8790              		.loc 1 861 53 view .LVU2735
 8791 0414 43EA0E03 		orr	r3, r3, lr
 861:Drivers/display_ILI-93xx_sm/lcd.c **** #else
ARM GAS  /tmp/cc47Teva.s 			page 229


 8792              		.loc 1 861 93 view .LVU2736
 8793 0418 4FEA620E 		asr	lr, r2, #1
 8794 041c 0EF0100E 		and	lr, lr, #16
 861:Drivers/display_ILI-93xx_sm/lcd.c **** #else
 8795              		.loc 1 861 76 view .LVU2737
 8796 0420 43EA0E03 		orr	r3, r3, lr
 861:Drivers/display_ILI-93xx_sm/lcd.c **** #else
 8797              		.loc 1 861 116 view .LVU2738
 8798 0424 1201     		lsls	r2, r2, #4
 8799              	.LVL563:
 861:Drivers/display_ILI-93xx_sm/lcd.c **** #else
 8800              		.loc 1 861 116 view .LVU2739
 8801 0426 02F48062 		and	r2, r2, #1024
 861:Drivers/display_ILI-93xx_sm/lcd.c **** #else
 8802              		.loc 1 861 99 view .LVU2740
 8803 042a 1343     		orrs	r3, r3, r2
 861:Drivers/display_ILI-93xx_sm/lcd.c **** #else
 8804              		.loc 1 861 13 view .LVU2741
 8805 042c F360     		str	r3, [r6, #12]
 869:Drivers/display_ILI-93xx_sm/lcd.c **** }
 8806              		.loc 1 869 2 is_stmt 1 view .LVU2742
 869:Drivers/display_ILI-93xx_sm/lcd.c **** }
 8807              		.loc 1 869 2 view .LVU2743
 8808 042e 4FF40033 		mov	r3, #131072
 8809 0432 0361     		str	r3, [r0, #16]
 869:Drivers/display_ILI-93xx_sm/lcd.c **** }
 8810              		.loc 1 869 2 view .LVU2744
 8811              	.LVL564:
 8812              	.LBB833:
 8813              	.LBI833:
 668:Drivers/display_ILI-93xx_sm/lcd.c **** 	for (; t; t--) __asm("nop");
 8814              		.loc 1 668 13 view .LVU2745
 8815              	.LBB834:
 669:Drivers/display_ILI-93xx_sm/lcd.c **** }
 8816              		.loc 1 669 2 view .LVU2746
 8817              	.LBE834:
 8818              	.LBE833:
 869:Drivers/display_ILI-93xx_sm/lcd.c **** }
 8819              		.loc 1 869 2 is_stmt 0 view .LVU2747
 8820 0434 0223     		movs	r3, #2
 8821              	.LVL565:
 8822              	.L421:
 8823              	.LBB836:
 8824              	.LBB835:
 669:Drivers/display_ILI-93xx_sm/lcd.c **** }
 8825              		.loc 1 669 2 view .LVU2748
 8826 0436 002B     		cmp	r3, #0
 8827 0438 3FF47CAF 		beq	.L457
 669:Drivers/display_ILI-93xx_sm/lcd.c **** }
 8828              		.loc 1 669 17 is_stmt 1 view .LVU2749
 8829              		.syntax unified
 8830              	@ 669 "Drivers/display_ILI-93xx_sm/lcd.c" 1
 8831 043c 00BF     		nop
 8832              	@ 0 "" 2
 669:Drivers/display_ILI-93xx_sm/lcd.c **** }
 8833              		.loc 1 669 13 is_stmt 0 view .LVU2750
 8834              		.thumb
ARM GAS  /tmp/cc47Teva.s 			page 230


 8835              		.syntax unified
 8836 043e 013B     		subs	r3, r3, #1
 8837              	.LVL566:
 669:Drivers/display_ILI-93xx_sm/lcd.c **** }
 8838              		.loc 1 669 13 view .LVU2751
 8839 0440 F9E7     		b	.L421
 8840              	.LVL567:
 8841              	.L456:
 669:Drivers/display_ILI-93xx_sm/lcd.c **** }
 8842              		.loc 1 669 13 view .LVU2752
 8843              	.LBE835:
 8844              	.LBE836:
 8845              	.LBE837:
 8846              	.LBE846:
1807:Drivers/display_ILI-93xx_sm/lcd.c **** 				rowstart = start + row * width * 2;
 8847              		.loc 1 1807 48 discriminator 2 view .LVU2753
 8848 0442 013F     		subs	r7, r7, #1
 8849              	.LVL568:
1807:Drivers/display_ILI-93xx_sm/lcd.c **** 				rowstart = start + row * width * 2;
 8850              		.loc 1 1807 48 discriminator 2 view .LVU2754
 8851 0444 BFB2     		uxth	r7, r7
 8852              	.LVL569:
 8853              	.L419:
1807:Drivers/display_ILI-93xx_sm/lcd.c **** 				rowstart = start + row * width * 2;
 8854              		.loc 1 1807 4 discriminator 1 view .LVU2755
 8855 0446 002F     		cmp	r7, #0
 8856 0448 3FF446AE 		beq	.L407
1808:Drivers/display_ILI-93xx_sm/lcd.c **** 				rowend = start + (row + 1) * width * 2 - 1;
 8857              		.loc 1 1808 5 is_stmt 1 view .LVU2756
1808:Drivers/display_ILI-93xx_sm/lcd.c **** 				rowend = start + (row + 1) * width * 2 - 1;
 8858              		.loc 1 1808 28 is_stmt 0 view .LVU2757
 8859 044c 05FB07F1 		mul	r1, r5, r7
1808:Drivers/display_ILI-93xx_sm/lcd.c **** 				rowend = start + (row + 1) * width * 2 - 1;
 8860              		.loc 1 1808 14 view .LVU2758
 8861 0450 04EB4101 		add	r1, r4, r1, lsl #1
 8862              	.LVL570:
1809:Drivers/display_ILI-93xx_sm/lcd.c **** 				ptr = rowstart;
 8863              		.loc 1 1809 5 is_stmt 1 view .LVU2759
1809:Drivers/display_ILI-93xx_sm/lcd.c **** 				ptr = rowstart;
 8864              		.loc 1 1809 32 is_stmt 0 view .LVU2760
 8865 0454 07FB055C 		mla	ip, r7, r5, r5
1809:Drivers/display_ILI-93xx_sm/lcd.c **** 				ptr = rowstart;
 8866              		.loc 1 1809 40 view .LVU2761
 8867 0458 4FEA4C0C 		lsl	ip, ip, #1
1809:Drivers/display_ILI-93xx_sm/lcd.c **** 				ptr = rowstart;
 8868              		.loc 1 1809 44 view .LVU2762
 8869 045c 0CF1FF3C 		add	ip, ip, #-1
1809:Drivers/display_ILI-93xx_sm/lcd.c **** 				ptr = rowstart;
 8870              		.loc 1 1809 12 view .LVU2763
 8871 0460 A444     		add	ip, ip, r4
 8872              	.LVL571:
1810:Drivers/display_ILI-93xx_sm/lcd.c **** 				while (ptr < rowend) {
 8873              		.loc 1 1810 5 is_stmt 1 view .LVU2764
1811:Drivers/display_ILI-93xx_sm/lcd.c **** #if defined(SSD1297)
 8874              		.loc 1 1811 5 view .LVU2765
1811:Drivers/display_ILI-93xx_sm/lcd.c **** #if defined(SSD1297)
 8875              		.loc 1 1811 11 is_stmt 0 view .LVU2766
ARM GAS  /tmp/cc47Teva.s 			page 231


 8876 0462 B0E7     		b	.L420
 8877              	.LVL572:
 8878              	.L450:
1811:Drivers/display_ILI-93xx_sm/lcd.c **** #if defined(SSD1297)
 8879              		.loc 1 1811 11 view .LVU2767
 8880              	.LBE828:
1824:Drivers/display_ILI-93xx_sm/lcd.c **** 				rowstart = start + row * width * 3;
 8881              		.loc 1 1824 4 is_stmt 1 view .LVU2768
 8882              	.LBB847:
1824:Drivers/display_ILI-93xx_sm/lcd.c **** 				rowstart = start + row * width * 3;
 8883              		.loc 1 1824 9 view .LVU2769
1824:Drivers/display_ILI-93xx_sm/lcd.c **** 				rowstart = start + row * width * 3;
 8884              		.loc 1 1824 31 is_stmt 0 view .LVU2770
 8885 0464 BEB2     		uxth	r6, r7
 8886              	.LVL573:
1824:Drivers/display_ILI-93xx_sm/lcd.c **** 				rowstart = start + row * width * 3;
 8887              		.loc 1 1824 18 view .LVU2771
 8888 0466 013E     		subs	r6, r6, #1
 8889 0468 B6B2     		uxth	r6, r6
 8890              	.LVL574:
1824:Drivers/display_ILI-93xx_sm/lcd.c **** 				rowstart = start + row * width * 3;
 8891              		.loc 1 1824 4 view .LVU2772
 8892 046a A9E0     		b	.L431
 8893              	.LVL575:
 8894              	.L462:
 8895              	.LBB848:
 8896              	.LBB849:
 869:Drivers/display_ILI-93xx_sm/lcd.c **** }
 8897              		.loc 1 869 2 is_stmt 1 view .LVU2773
 8898 046c 0223     		movs	r3, #2
 8899 046e 5C4A     		ldr	r2, .L465
 8900 0470 1361     		str	r3, [r2, #16]
 869:Drivers/display_ILI-93xx_sm/lcd.c **** }
 8901              		.loc 1 869 2 view .LVU2774
 8902              	.LVL576:
 8903              	.LBB850:
 8904              	.LBI850:
 668:Drivers/display_ILI-93xx_sm/lcd.c **** 	for (; t; t--) __asm("nop");
 8905              		.loc 1 668 13 view .LVU2775
 8906              	.L435:
 8907              	.LBB851:
 669:Drivers/display_ILI-93xx_sm/lcd.c **** }
 8908              		.loc 1 669 2 is_stmt 0 view .LVU2776
 8909 0472 13B1     		cbz	r3, .L458
 669:Drivers/display_ILI-93xx_sm/lcd.c **** }
 8910              		.loc 1 669 17 is_stmt 1 view .LVU2777
 8911              		.syntax unified
 8912              	@ 669 "Drivers/display_ILI-93xx_sm/lcd.c" 1
 8913 0474 00BF     		nop
 8914              	@ 0 "" 2
 669:Drivers/display_ILI-93xx_sm/lcd.c **** }
 8915              		.loc 1 669 13 is_stmt 0 view .LVU2778
 8916              		.thumb
 8917              		.syntax unified
 8918 0476 013B     		subs	r3, r3, #1
 8919              	.LVL577:
 669:Drivers/display_ILI-93xx_sm/lcd.c **** }
ARM GAS  /tmp/cc47Teva.s 			page 232


 8920              		.loc 1 669 13 view .LVU2779
 8921 0478 FBE7     		b	.L435
 8922              	.L458:
 8923              	.LVL578:
 669:Drivers/display_ILI-93xx_sm/lcd.c **** }
 8924              		.loc 1 669 13 view .LVU2780
 8925              	.LBE851:
 8926              	.LBE850:
 8927              	.LBE849:
 8928              	.LBE848:
1835:Drivers/display_ILI-93xx_sm/lcd.c **** #endif
 8929              		.loc 1 1835 6 is_stmt 1 view .LVU2781
1835:Drivers/display_ILI-93xx_sm/lcd.c **** #endif
 8930              		.loc 1 1835 19 is_stmt 0 view .LVU2782
 8931 047a 4B78     		ldrb	r3, [r1, #1]	@ zero_extendqisi2
1835:Drivers/display_ILI-93xx_sm/lcd.c **** #endif
 8932              		.loc 1 1835 38 view .LVU2783
 8933 047c DB00     		lsls	r3, r3, #3
 8934 047e 23F01F03 		bic	r3, r3, #31
 8935 0482 5BB2     		sxtb	r3, r3
1835:Drivers/display_ILI-93xx_sm/lcd.c **** #endif
 8936              		.loc 1 1835 47 view .LVU2784
 8937 0484 8A78     		ldrb	r2, [r1, #2]	@ zero_extendqisi2
1835:Drivers/display_ILI-93xx_sm/lcd.c **** #endif
 8938              		.loc 1 1835 44 view .LVU2785
 8939 0486 43EAD203 		orr	r3, r3, r2, lsr #3
1835:Drivers/display_ILI-93xx_sm/lcd.c **** #endif
 8940              		.loc 1 1835 6 view .LVU2786
 8941 048a DBB2     		uxtb	r3, r3
 8942              	.LVL579:
 8943              	.LBB857:
 8944              	.LBI857:
 847:Drivers/display_ILI-93xx_sm/lcd.c **** 	// ------ PORT -----     --- Data ----
 8945              		.loc 1 847 13 is_stmt 1 view .LVU2787
 8946              	.LBB858:
 860:Drivers/display_ILI-93xx_sm/lcd.c **** 	GPIOB->ODR = (GPIOB->ODR & 0xFBC7) | (data & 0x08) | ((data & 0x10) << 1) | ((data & 0x20) >> 1) |
 8947              		.loc 1 860 2 view .LVU2788
 860:Drivers/display_ILI-93xx_sm/lcd.c **** 	GPIOB->ODR = (GPIOB->ODR & 0xFBC7) | (data & 0x08) | ((data & 0x10) << 1) | ((data & 0x20) >> 1) |
 8948              		.loc 1 860 21 is_stmt 0 view .LVU2789
 8949 048c 5448     		ldr	r0, .L465
 8950 048e C268     		ldr	r2, [r0, #12]
 860:Drivers/display_ILI-93xx_sm/lcd.c **** 	GPIOB->ODR = (GPIOB->ODR & 0xFBC7) | (data & 0x08) | ((data & 0x10) << 1) | ((data & 0x20) >> 1) |
 8951              		.loc 1 860 27 view .LVU2790
 8952 0490 22F4F062 		bic	r2, r2, #1920
 8953 0494 1204     		lsls	r2, r2, #16
 8954 0496 120C     		lsrs	r2, r2, #16
 860:Drivers/display_ILI-93xx_sm/lcd.c **** 	GPIOB->ODR = (GPIOB->ODR & 0xFBC7) | (data & 0x08) | ((data & 0x10) << 1) | ((data & 0x20) >> 1) |
 8955              		.loc 1 860 54 view .LVU2791
 8956 0498 4FEA432C 		lsl	ip, r3, #9
 8957 049c 0CF4007C 		and	ip, ip, #512
 860:Drivers/display_ILI-93xx_sm/lcd.c **** 	GPIOB->ODR = (GPIOB->ODR & 0xFBC7) | (data & 0x08) | ((data & 0x10) << 1) | ((data & 0x20) >> 1) |
 8958              		.loc 1 860 37 view .LVU2792
 8959 04a0 42EA0C02 		orr	r2, r2, ip
 860:Drivers/display_ILI-93xx_sm/lcd.c **** 	GPIOB->ODR = (GPIOB->ODR & 0xFBC7) | (data & 0x08) | ((data & 0x10) << 1) | ((data & 0x20) >> 1) |
 8960              		.loc 1 860 77 view .LVU2793
 8961 04a4 4FEA032C 		lsl	ip, r3, #8
 8962 04a8 0CF4806C 		and	ip, ip, #1024
ARM GAS  /tmp/cc47Teva.s 			page 233


 860:Drivers/display_ILI-93xx_sm/lcd.c **** 	GPIOB->ODR = (GPIOB->ODR & 0xFBC7) | (data & 0x08) | ((data & 0x10) << 1) | ((data & 0x20) >> 1) |
 8963              		.loc 1 860 60 view .LVU2794
 8964 04ac 42EA0C02 		orr	r2, r2, ip
 860:Drivers/display_ILI-93xx_sm/lcd.c **** 	GPIOB->ODR = (GPIOB->ODR & 0xFBC7) | (data & 0x08) | ((data & 0x10) << 1) | ((data & 0x20) >> 1) |
 8965              		.loc 1 860 100 view .LVU2795
 8966 04b0 4FEA430E 		lsl	lr, r3, #1
 8967 04b4 0EF4807C 		and	ip, lr, #256
 860:Drivers/display_ILI-93xx_sm/lcd.c **** 	GPIOB->ODR = (GPIOB->ODR & 0xFBC7) | (data & 0x08) | ((data & 0x10) << 1) | ((data & 0x20) >> 1) |
 8968              		.loc 1 860 83 view .LVU2796
 8969 04b8 42EA0C0C 		orr	ip, r2, ip
 860:Drivers/display_ILI-93xx_sm/lcd.c **** 	GPIOB->ODR = (GPIOB->ODR & 0xFBC7) | (data & 0x08) | ((data & 0x10) << 1) | ((data & 0x20) >> 1) |
 8970              		.loc 1 860 123 view .LVU2797
 8971 04bc 9A01     		lsls	r2, r3, #6
 8972 04be 02F08002 		and	r2, r2, #128
 860:Drivers/display_ILI-93xx_sm/lcd.c **** 	GPIOB->ODR = (GPIOB->ODR & 0xFBC7) | (data & 0x08) | ((data & 0x10) << 1) | ((data & 0x20) >> 1) |
 8973              		.loc 1 860 106 view .LVU2798
 8974 04c2 4CEA0202 		orr	r2, ip, r2
 860:Drivers/display_ILI-93xx_sm/lcd.c **** 	GPIOB->ODR = (GPIOB->ODR & 0xFBC7) | (data & 0x08) | ((data & 0x10) << 1) | ((data & 0x20) >> 1) |
 8975              		.loc 1 860 13 view .LVU2799
 8976 04c6 C260     		str	r2, [r0, #12]
 861:Drivers/display_ILI-93xx_sm/lcd.c **** #else
 8977              		.loc 1 861 2 is_stmt 1 view .LVU2800
 861:Drivers/display_ILI-93xx_sm/lcd.c **** #else
 8978              		.loc 1 861 21 is_stmt 0 view .LVU2801
 8979 04c8 DFF818C1 		ldr	ip, .L465+4
 8980 04cc DCF80C20 		ldr	r2, [ip, #12]
 861:Drivers/display_ILI-93xx_sm/lcd.c **** #else
 8981              		.loc 1 861 27 view .LVU2802
 8982 04d0 22F48762 		bic	r2, r2, #1080
 8983 04d4 1204     		lsls	r2, r2, #16
 8984 04d6 120C     		lsrs	r2, r2, #16
 861:Drivers/display_ILI-93xx_sm/lcd.c **** #else
 8985              		.loc 1 861 45 view .LVU2803
 8986 04d8 03F00808 		and	r8, r3, #8
 861:Drivers/display_ILI-93xx_sm/lcd.c **** #else
 8987              		.loc 1 861 37 view .LVU2804
 8988 04dc 42EA0802 		orr	r2, r2, r8
 861:Drivers/display_ILI-93xx_sm/lcd.c **** #else
 8989              		.loc 1 861 70 view .LVU2805
 8990 04e0 0EF0200E 		and	lr, lr, #32
 861:Drivers/display_ILI-93xx_sm/lcd.c **** #else
 8991              		.loc 1 861 53 view .LVU2806
 8992 04e4 42EA0E02 		orr	r2, r2, lr
 861:Drivers/display_ILI-93xx_sm/lcd.c **** #else
 8993              		.loc 1 861 93 view .LVU2807
 8994 04e8 4FEA630E 		asr	lr, r3, #1
 8995 04ec 0EF0100E 		and	lr, lr, #16
 861:Drivers/display_ILI-93xx_sm/lcd.c **** #else
 8996              		.loc 1 861 76 view .LVU2808
 8997 04f0 42EA0E02 		orr	r2, r2, lr
 861:Drivers/display_ILI-93xx_sm/lcd.c **** #else
 8998              		.loc 1 861 116 view .LVU2809
 8999 04f4 1B01     		lsls	r3, r3, #4
 9000              	.LVL580:
 861:Drivers/display_ILI-93xx_sm/lcd.c **** #else
 9001              		.loc 1 861 116 view .LVU2810
 9002 04f6 03F48063 		and	r3, r3, #1024
ARM GAS  /tmp/cc47Teva.s 			page 234


 861:Drivers/display_ILI-93xx_sm/lcd.c **** #else
 9003              		.loc 1 861 99 view .LVU2811
 9004 04fa 1343     		orrs	r3, r3, r2
 861:Drivers/display_ILI-93xx_sm/lcd.c **** #else
 9005              		.loc 1 861 13 view .LVU2812
 9006 04fc CCF80C30 		str	r3, [ip, #12]
 869:Drivers/display_ILI-93xx_sm/lcd.c **** }
 9007              		.loc 1 869 2 is_stmt 1 view .LVU2813
 869:Drivers/display_ILI-93xx_sm/lcd.c **** }
 9008              		.loc 1 869 2 view .LVU2814
 9009 0500 4FF40033 		mov	r3, #131072
 9010 0504 0361     		str	r3, [r0, #16]
 869:Drivers/display_ILI-93xx_sm/lcd.c **** }
 9011              		.loc 1 869 2 view .LVU2815
 9012              	.LVL581:
 9013              	.LBB859:
 9014              	.LBI859:
 668:Drivers/display_ILI-93xx_sm/lcd.c **** 	for (; t; t--) __asm("nop");
 9015              		.loc 1 668 13 view .LVU2816
 9016              	.LBB860:
 669:Drivers/display_ILI-93xx_sm/lcd.c **** }
 9017              		.loc 1 669 2 view .LVU2817
 9018              	.LBE860:
 9019              	.LBE859:
 869:Drivers/display_ILI-93xx_sm/lcd.c **** }
 9020              		.loc 1 869 2 is_stmt 0 view .LVU2818
 9021 0506 0223     		movs	r3, #2
 9022              	.LVL582:
 9023              	.L437:
 9024              	.LBB862:
 9025              	.LBB861:
 669:Drivers/display_ILI-93xx_sm/lcd.c **** }
 9026              		.loc 1 669 2 view .LVU2819
 9027 0508 13B1     		cbz	r3, .L459
 669:Drivers/display_ILI-93xx_sm/lcd.c **** }
 9028              		.loc 1 669 17 is_stmt 1 view .LVU2820
 9029              		.syntax unified
 9030              	@ 669 "Drivers/display_ILI-93xx_sm/lcd.c" 1
 9031 050a 00BF     		nop
 9032              	@ 0 "" 2
 669:Drivers/display_ILI-93xx_sm/lcd.c **** }
 9033              		.loc 1 669 13 is_stmt 0 view .LVU2821
 9034              		.thumb
 9035              		.syntax unified
 9036 050c 013B     		subs	r3, r3, #1
 9037              	.LVL583:
 669:Drivers/display_ILI-93xx_sm/lcd.c **** }
 9038              		.loc 1 669 13 view .LVU2822
 9039 050e FBE7     		b	.L437
 9040              	.L459:
 9041              	.LVL584:
 669:Drivers/display_ILI-93xx_sm/lcd.c **** }
 9042              		.loc 1 669 13 view .LVU2823
 9043              	.LBE861:
 9044              	.LBE862:
 869:Drivers/display_ILI-93xx_sm/lcd.c **** }
 9045              		.loc 1 869 2 is_stmt 1 view .LVU2824
ARM GAS  /tmp/cc47Teva.s 			page 235


 9046 0510 0223     		movs	r3, #2
 9047 0512 334A     		ldr	r2, .L465
 9048 0514 1361     		str	r3, [r2, #16]
 869:Drivers/display_ILI-93xx_sm/lcd.c **** }
 9049              		.loc 1 869 2 view .LVU2825
 9050              	.LVL585:
 9051              	.LBB863:
 9052              	.LBI863:
 668:Drivers/display_ILI-93xx_sm/lcd.c **** 	for (; t; t--) __asm("nop");
 9053              		.loc 1 668 13 view .LVU2826
 9054              	.L439:
 9055              	.LBB864:
 669:Drivers/display_ILI-93xx_sm/lcd.c **** }
 9056              		.loc 1 669 2 is_stmt 0 view .LVU2827
 9057 0516 13B1     		cbz	r3, .L460
 669:Drivers/display_ILI-93xx_sm/lcd.c **** }
 9058              		.loc 1 669 17 is_stmt 1 view .LVU2828
 9059              		.syntax unified
 9060              	@ 669 "Drivers/display_ILI-93xx_sm/lcd.c" 1
 9061 0518 00BF     		nop
 9062              	@ 0 "" 2
 669:Drivers/display_ILI-93xx_sm/lcd.c **** }
 9063              		.loc 1 669 13 is_stmt 0 view .LVU2829
 9064              		.thumb
 9065              		.syntax unified
 9066 051a 013B     		subs	r3, r3, #1
 9067              	.LVL586:
 669:Drivers/display_ILI-93xx_sm/lcd.c **** }
 9068              		.loc 1 669 13 view .LVU2830
 9069 051c FBE7     		b	.L439
 9070              	.L460:
 9071              	.LVL587:
 669:Drivers/display_ILI-93xx_sm/lcd.c **** }
 9072              		.loc 1 669 13 view .LVU2831
 9073              	.LBE864:
 9074              	.LBE863:
 9075              	.LBE858:
 9076              	.LBE857:
1837:Drivers/display_ILI-93xx_sm/lcd.c **** 				}
 9077              		.loc 1 1837 6 is_stmt 1 view .LVU2832
1837:Drivers/display_ILI-93xx_sm/lcd.c **** 				}
 9078              		.loc 1 1837 10 is_stmt 0 view .LVU2833
 9079 051e 0331     		adds	r1, r1, #3
 9080              	.LVL588:
 9081              	.L432:
1828:Drivers/display_ILI-93xx_sm/lcd.c **** #if defined(SSD1297)
 9082              		.loc 1 1828 11 view .LVU2834
 9083 0520 B942     		cmp	r1, r7
 9084 0522 4BD2     		bcs	.L461
1834:Drivers/display_ILI-93xx_sm/lcd.c **** 					LCD_Write8(((*(ptr + 1) & 0x1C) << 3) | (*(ptr + 2) >> 3));
 9085              		.loc 1 1834 6 is_stmt 1 view .LVU2835
1834:Drivers/display_ILI-93xx_sm/lcd.c **** 					LCD_Write8(((*(ptr + 1) & 0x1C) << 3) | (*(ptr + 2) >> 3));
 9086              		.loc 1 1834 18 is_stmt 0 view .LVU2836
 9087 0524 91F90030 		ldrsb	r3, [r1]
1834:Drivers/display_ILI-93xx_sm/lcd.c **** 					LCD_Write8(((*(ptr + 1) & 0x1C) << 3) | (*(ptr + 2) >> 3));
 9088              		.loc 1 1834 25 view .LVU2837
 9089 0528 23F00703 		bic	r3, r3, #7
ARM GAS  /tmp/cc47Teva.s 			page 236


1834:Drivers/display_ILI-93xx_sm/lcd.c **** 					LCD_Write8(((*(ptr + 1) & 0x1C) << 3) | (*(ptr + 2) >> 3));
 9090              		.loc 1 1834 36 view .LVU2838
 9091 052c 4A78     		ldrb	r2, [r1, #1]	@ zero_extendqisi2
1834:Drivers/display_ILI-93xx_sm/lcd.c **** 					LCD_Write8(((*(ptr + 1) & 0x1C) << 3) | (*(ptr + 2) >> 3));
 9092              		.loc 1 1834 33 view .LVU2839
 9093 052e 43EA5213 		orr	r3, r3, r2, lsr #5
1834:Drivers/display_ILI-93xx_sm/lcd.c **** 					LCD_Write8(((*(ptr + 1) & 0x1C) << 3) | (*(ptr + 2) >> 3));
 9094              		.loc 1 1834 6 view .LVU2840
 9095 0532 DBB2     		uxtb	r3, r3
 9096              	.LVL589:
 9097              	.LBB865:
 9098              	.LBI848:
 847:Drivers/display_ILI-93xx_sm/lcd.c **** 	// ------ PORT -----     --- Data ----
 9099              		.loc 1 847 13 is_stmt 1 view .LVU2841
 9100              	.LBB856:
 860:Drivers/display_ILI-93xx_sm/lcd.c **** 	GPIOB->ODR = (GPIOB->ODR & 0xFBC7) | (data & 0x08) | ((data & 0x10) << 1) | ((data & 0x20) >> 1) |
 9101              		.loc 1 860 2 view .LVU2842
 860:Drivers/display_ILI-93xx_sm/lcd.c **** 	GPIOB->ODR = (GPIOB->ODR & 0xFBC7) | (data & 0x08) | ((data & 0x10) << 1) | ((data & 0x20) >> 1) |
 9102              		.loc 1 860 21 is_stmt 0 view .LVU2843
 9103 0534 2A48     		ldr	r0, .L465
 9104 0536 C268     		ldr	r2, [r0, #12]
 860:Drivers/display_ILI-93xx_sm/lcd.c **** 	GPIOB->ODR = (GPIOB->ODR & 0xFBC7) | (data & 0x08) | ((data & 0x10) << 1) | ((data & 0x20) >> 1) |
 9105              		.loc 1 860 27 view .LVU2844
 9106 0538 22F4F062 		bic	r2, r2, #1920
 9107 053c 1204     		lsls	r2, r2, #16
 9108 053e 120C     		lsrs	r2, r2, #16
 860:Drivers/display_ILI-93xx_sm/lcd.c **** 	GPIOB->ODR = (GPIOB->ODR & 0xFBC7) | (data & 0x08) | ((data & 0x10) << 1) | ((data & 0x20) >> 1) |
 9109              		.loc 1 860 54 view .LVU2845
 9110 0540 4FEA432C 		lsl	ip, r3, #9
 9111 0544 0CF4007C 		and	ip, ip, #512
 860:Drivers/display_ILI-93xx_sm/lcd.c **** 	GPIOB->ODR = (GPIOB->ODR & 0xFBC7) | (data & 0x08) | ((data & 0x10) << 1) | ((data & 0x20) >> 1) |
 9112              		.loc 1 860 37 view .LVU2846
 9113 0548 42EA0C02 		orr	r2, r2, ip
 860:Drivers/display_ILI-93xx_sm/lcd.c **** 	GPIOB->ODR = (GPIOB->ODR & 0xFBC7) | (data & 0x08) | ((data & 0x10) << 1) | ((data & 0x20) >> 1) |
 9114              		.loc 1 860 77 view .LVU2847
 9115 054c 4FEA032C 		lsl	ip, r3, #8
 9116 0550 0CF4806C 		and	ip, ip, #1024
 860:Drivers/display_ILI-93xx_sm/lcd.c **** 	GPIOB->ODR = (GPIOB->ODR & 0xFBC7) | (data & 0x08) | ((data & 0x10) << 1) | ((data & 0x20) >> 1) |
 9117              		.loc 1 860 60 view .LVU2848
 9118 0554 42EA0C02 		orr	r2, r2, ip
 860:Drivers/display_ILI-93xx_sm/lcd.c **** 	GPIOB->ODR = (GPIOB->ODR & 0xFBC7) | (data & 0x08) | ((data & 0x10) << 1) | ((data & 0x20) >> 1) |
 9119              		.loc 1 860 100 view .LVU2849
 9120 0558 4FEA430E 		lsl	lr, r3, #1
 9121 055c 0EF4807C 		and	ip, lr, #256
 860:Drivers/display_ILI-93xx_sm/lcd.c **** 	GPIOB->ODR = (GPIOB->ODR & 0xFBC7) | (data & 0x08) | ((data & 0x10) << 1) | ((data & 0x20) >> 1) |
 9122              		.loc 1 860 83 view .LVU2850
 9123 0560 42EA0C0C 		orr	ip, r2, ip
 860:Drivers/display_ILI-93xx_sm/lcd.c **** 	GPIOB->ODR = (GPIOB->ODR & 0xFBC7) | (data & 0x08) | ((data & 0x10) << 1) | ((data & 0x20) >> 1) |
 9124              		.loc 1 860 123 view .LVU2851
 9125 0564 9A01     		lsls	r2, r3, #6
 9126 0566 02F08002 		and	r2, r2, #128
 860:Drivers/display_ILI-93xx_sm/lcd.c **** 	GPIOB->ODR = (GPIOB->ODR & 0xFBC7) | (data & 0x08) | ((data & 0x10) << 1) | ((data & 0x20) >> 1) |
 9127              		.loc 1 860 106 view .LVU2852
 9128 056a 4CEA0202 		orr	r2, ip, r2
 860:Drivers/display_ILI-93xx_sm/lcd.c **** 	GPIOB->ODR = (GPIOB->ODR & 0xFBC7) | (data & 0x08) | ((data & 0x10) << 1) | ((data & 0x20) >> 1) |
 9129              		.loc 1 860 13 view .LVU2853
 9130 056e C260     		str	r2, [r0, #12]
ARM GAS  /tmp/cc47Teva.s 			page 237


 861:Drivers/display_ILI-93xx_sm/lcd.c **** #else
 9131              		.loc 1 861 2 is_stmt 1 view .LVU2854
 861:Drivers/display_ILI-93xx_sm/lcd.c **** #else
 9132              		.loc 1 861 21 is_stmt 0 view .LVU2855
 9133 0570 DFF870C0 		ldr	ip, .L465+4
 9134 0574 DCF80C20 		ldr	r2, [ip, #12]
 861:Drivers/display_ILI-93xx_sm/lcd.c **** #else
 9135              		.loc 1 861 27 view .LVU2856
 9136 0578 22F48762 		bic	r2, r2, #1080
 9137 057c 1204     		lsls	r2, r2, #16
 9138 057e 120C     		lsrs	r2, r2, #16
 861:Drivers/display_ILI-93xx_sm/lcd.c **** #else
 9139              		.loc 1 861 45 view .LVU2857
 9140 0580 03F00808 		and	r8, r3, #8
 861:Drivers/display_ILI-93xx_sm/lcd.c **** #else
 9141              		.loc 1 861 37 view .LVU2858
 9142 0584 42EA0802 		orr	r2, r2, r8
 861:Drivers/display_ILI-93xx_sm/lcd.c **** #else
 9143              		.loc 1 861 70 view .LVU2859
 9144 0588 0EF0200E 		and	lr, lr, #32
 861:Drivers/display_ILI-93xx_sm/lcd.c **** #else
 9145              		.loc 1 861 53 view .LVU2860
 9146 058c 42EA0E02 		orr	r2, r2, lr
 861:Drivers/display_ILI-93xx_sm/lcd.c **** #else
 9147              		.loc 1 861 93 view .LVU2861
 9148 0590 4FEA630E 		asr	lr, r3, #1
 9149 0594 0EF0100E 		and	lr, lr, #16
 861:Drivers/display_ILI-93xx_sm/lcd.c **** #else
 9150              		.loc 1 861 76 view .LVU2862
 9151 0598 42EA0E02 		orr	r2, r2, lr
 861:Drivers/display_ILI-93xx_sm/lcd.c **** #else
 9152              		.loc 1 861 116 view .LVU2863
 9153 059c 1B01     		lsls	r3, r3, #4
 9154              	.LVL590:
 861:Drivers/display_ILI-93xx_sm/lcd.c **** #else
 9155              		.loc 1 861 116 view .LVU2864
 9156 059e 03F48063 		and	r3, r3, #1024
 861:Drivers/display_ILI-93xx_sm/lcd.c **** #else
 9157              		.loc 1 861 99 view .LVU2865
 9158 05a2 1343     		orrs	r3, r3, r2
 861:Drivers/display_ILI-93xx_sm/lcd.c **** #else
 9159              		.loc 1 861 13 view .LVU2866
 9160 05a4 CCF80C30 		str	r3, [ip, #12]
 869:Drivers/display_ILI-93xx_sm/lcd.c **** }
 9161              		.loc 1 869 2 is_stmt 1 view .LVU2867
 869:Drivers/display_ILI-93xx_sm/lcd.c **** }
 9162              		.loc 1 869 2 view .LVU2868
 9163 05a8 4FF40033 		mov	r3, #131072
 9164 05ac 0361     		str	r3, [r0, #16]
 869:Drivers/display_ILI-93xx_sm/lcd.c **** }
 9165              		.loc 1 869 2 view .LVU2869
 9166              	.LVL591:
 9167              	.LBB852:
 9168              	.LBI852:
 668:Drivers/display_ILI-93xx_sm/lcd.c **** 	for (; t; t--) __asm("nop");
 9169              		.loc 1 668 13 view .LVU2870
 9170              	.LBB853:
ARM GAS  /tmp/cc47Teva.s 			page 238


 669:Drivers/display_ILI-93xx_sm/lcd.c **** }
 9171              		.loc 1 669 2 view .LVU2871
 9172              	.LBE853:
 9173              	.LBE852:
 869:Drivers/display_ILI-93xx_sm/lcd.c **** }
 9174              		.loc 1 869 2 is_stmt 0 view .LVU2872
 9175 05ae 0223     		movs	r3, #2
 9176              	.LVL592:
 9177              	.L433:
 9178              	.LBB855:
 9179              	.LBB854:
 669:Drivers/display_ILI-93xx_sm/lcd.c **** }
 9180              		.loc 1 669 2 view .LVU2873
 9181 05b0 002B     		cmp	r3, #0
 9182 05b2 3FF45BAF 		beq	.L462
 669:Drivers/display_ILI-93xx_sm/lcd.c **** }
 9183              		.loc 1 669 17 is_stmt 1 view .LVU2874
 9184              		.syntax unified
 9185              	@ 669 "Drivers/display_ILI-93xx_sm/lcd.c" 1
 9186 05b6 00BF     		nop
 9187              	@ 0 "" 2
 669:Drivers/display_ILI-93xx_sm/lcd.c **** }
 9188              		.loc 1 669 13 is_stmt 0 view .LVU2875
 9189              		.thumb
 9190              		.syntax unified
 9191 05b8 013B     		subs	r3, r3, #1
 9192              	.LVL593:
 669:Drivers/display_ILI-93xx_sm/lcd.c **** }
 9193              		.loc 1 669 13 view .LVU2876
 9194 05ba F9E7     		b	.L433
 9195              	.LVL594:
 9196              	.L461:
 669:Drivers/display_ILI-93xx_sm/lcd.c **** }
 9197              		.loc 1 669 13 view .LVU2877
 9198              	.LBE854:
 9199              	.LBE855:
 9200              	.LBE856:
 9201              	.LBE865:
1824:Drivers/display_ILI-93xx_sm/lcd.c **** 				rowstart = start + row * width * 3;
 9202              		.loc 1 1824 48 discriminator 2 view .LVU2878
 9203 05bc 013E     		subs	r6, r6, #1
 9204              	.LVL595:
1824:Drivers/display_ILI-93xx_sm/lcd.c **** 				rowstart = start + row * width * 3;
 9205              		.loc 1 1824 48 discriminator 2 view .LVU2879
 9206 05be B6B2     		uxth	r6, r6
 9207              	.LVL596:
 9208              	.L431:
1824:Drivers/display_ILI-93xx_sm/lcd.c **** 				rowstart = start + row * width * 3;
 9209              		.loc 1 1824 4 discriminator 1 view .LVU2880
 9210 05c0 002E     		cmp	r6, #0
 9211 05c2 3FF489AD 		beq	.L407
1825:Drivers/display_ILI-93xx_sm/lcd.c **** 				rowend = start + (row + 1) * width * 3 - 1;
 9212              		.loc 1 1825 5 is_stmt 1 view .LVU2881
1825:Drivers/display_ILI-93xx_sm/lcd.c **** 				rowend = start + (row + 1) * width * 3 - 1;
 9213              		.loc 1 1825 28 is_stmt 0 view .LVU2882
 9214 05c6 05FB06F1 		mul	r1, r5, r6
1825:Drivers/display_ILI-93xx_sm/lcd.c **** 				rowend = start + (row + 1) * width * 3 - 1;
ARM GAS  /tmp/cc47Teva.s 			page 239


 9215              		.loc 1 1825 36 view .LVU2883
 9216 05ca 01EB4101 		add	r1, r1, r1, lsl #1
1825:Drivers/display_ILI-93xx_sm/lcd.c **** 				rowend = start + (row + 1) * width * 3 - 1;
 9217              		.loc 1 1825 14 view .LVU2884
 9218 05ce 2144     		add	r1, r1, r4
 9219              	.LVL597:
1826:Drivers/display_ILI-93xx_sm/lcd.c **** 				ptr = rowstart;
 9220              		.loc 1 1826 5 is_stmt 1 view .LVU2885
1826:Drivers/display_ILI-93xx_sm/lcd.c **** 				ptr = rowstart;
 9221              		.loc 1 1826 32 is_stmt 0 view .LVU2886
 9222 05d0 06FB0557 		mla	r7, r6, r5, r5
1826:Drivers/display_ILI-93xx_sm/lcd.c **** 				ptr = rowstart;
 9223              		.loc 1 1826 40 view .LVU2887
 9224 05d4 07EB4707 		add	r7, r7, r7, lsl #1
1826:Drivers/display_ILI-93xx_sm/lcd.c **** 				ptr = rowstart;
 9225              		.loc 1 1826 44 view .LVU2888
 9226 05d8 013F     		subs	r7, r7, #1
1826:Drivers/display_ILI-93xx_sm/lcd.c **** 				ptr = rowstart;
 9227              		.loc 1 1826 12 view .LVU2889
 9228 05da 2744     		add	r7, r7, r4
 9229              	.LVL598:
1827:Drivers/display_ILI-93xx_sm/lcd.c **** 				while (ptr < rowend) {
 9230              		.loc 1 1827 5 is_stmt 1 view .LVU2890
1828:Drivers/display_ILI-93xx_sm/lcd.c **** #if defined(SSD1297)
 9231              		.loc 1 1828 5 view .LVU2891
1828:Drivers/display_ILI-93xx_sm/lcd.c **** #if defined(SSD1297)
 9232              		.loc 1 1828 11 is_stmt 0 view .LVU2892
 9233 05dc A0E7     		b	.L432
 9234              	.L466:
 9235 05de 00BF     		.align	2
 9236              	.L465:
 9237 05e0 00080140 		.word	1073809408
 9238 05e4 000C0140 		.word	1073810432
 9239              	.LBE847:
 9240              	.LBE902:
 9241              		.cfi_endproc
 9242              	.LFE86:
 9244              		.section	.text.LCD_DrawLine,"ax",%progbits
 9245              		.align	1
 9246              		.global	LCD_DrawLine
 9247              		.syntax unified
 9248              		.thumb
 9249              		.thumb_func
 9250              		.fpu softvfp
 9252              	LCD_DrawLine:
 9253              	.LVL599:
 9254              	.LFB87:
1845:Drivers/display_ILI-93xx_sm/lcd.c **** 
1846:Drivers/display_ILI-93xx_sm/lcd.c **** #if defined(USE_FATFS)
1847:Drivers/display_ILI-93xx_sm/lcd.c **** /**
1848:Drivers/display_ILI-93xx_sm/lcd.c ****  * \brief  Draws a bitmap picture from FatFs file.
1849:Drivers/display_ILI-93xx_sm/lcd.c ****  *
1850:Drivers/display_ILI-93xx_sm/lcd.c ****  * \param  xPos: Bmp X position in the LCD
1851:Drivers/display_ILI-93xx_sm/lcd.c ****  * \param  yPos: Bmp Y position in the LCD
1852:Drivers/display_ILI-93xx_sm/lcd.c ****  * \param  pFile: Pointer to FIL object with bmp picture
1853:Drivers/display_ILI-93xx_sm/lcd.c ****  * \retval None
1854:Drivers/display_ILI-93xx_sm/lcd.c ****  */
ARM GAS  /tmp/cc47Teva.s 			page 240


1855:Drivers/display_ILI-93xx_sm/lcd.c **** void LCD_DrawBMPFromFile(int16_t xPos, int16_t yPos, FIL * pFile) {
1856:Drivers/display_ILI-93xx_sm/lcd.c **** 	uint8_t buf[TFTWIDTH * 3]; // max 240 pixels at a time (720B)
1857:Drivers/display_ILI-93xx_sm/lcd.c **** 	uint32_t readBytes = 0, clusterSize = 0, clusterNum = 0, clusterTotal = 0;
1858:Drivers/display_ILI-93xx_sm/lcd.c **** 	uint8_t* pBmp;
1859:Drivers/display_ILI-93xx_sm/lcd.c **** 	uint8_t* start;
1860:Drivers/display_ILI-93xx_sm/lcd.c **** 	uint8_t* end;
1861:Drivers/display_ILI-93xx_sm/lcd.c **** 	uint32_t offset = 0, size = 0;
1862:Drivers/display_ILI-93xx_sm/lcd.c **** 	int32_t height = 0, width = 0;
1863:Drivers/display_ILI-93xx_sm/lcd.c **** 	uint16_t colordepth = 0;
1864:Drivers/display_ILI-93xx_sm/lcd.c **** 
1865:Drivers/display_ILI-93xx_sm/lcd.c **** 	/* Read BMP header: 54 bytes = 14 bytes header + 40 bytes DIB header (assuming BITMAPINFOHEADER) *
1866:Drivers/display_ILI-93xx_sm/lcd.c **** 	f_read(pFile, buf, 54, (UINT *) &readBytes);
1867:Drivers/display_ILI-93xx_sm/lcd.c **** 	if (readBytes != 54) {
1868:Drivers/display_ILI-93xx_sm/lcd.c **** 		return;
1869:Drivers/display_ILI-93xx_sm/lcd.c **** 	}
1870:Drivers/display_ILI-93xx_sm/lcd.c **** 	pBmp = buf;
1871:Drivers/display_ILI-93xx_sm/lcd.c **** 	/* Read bitmap size */
1872:Drivers/display_ILI-93xx_sm/lcd.c **** 	size = *(volatile uint16_t *) (pBmp + 2);
1873:Drivers/display_ILI-93xx_sm/lcd.c **** 	size |= (*(volatile uint16_t *) (pBmp + 4)) << 16;
1874:Drivers/display_ILI-93xx_sm/lcd.c **** 	/* Get bitmap data address offset */
1875:Drivers/display_ILI-93xx_sm/lcd.c **** 	offset = *(volatile uint16_t *) (pBmp + 10);
1876:Drivers/display_ILI-93xx_sm/lcd.c **** 	offset |= (*(volatile uint16_t *) (pBmp + 12)) << 16;
1877:Drivers/display_ILI-93xx_sm/lcd.c **** 	/* Read bitmap width */
1878:Drivers/display_ILI-93xx_sm/lcd.c **** 	width = *(uint16_t *) (pBmp + 18);
1879:Drivers/display_ILI-93xx_sm/lcd.c **** 	width |= (*(uint16_t *) (pBmp + 20)) << 16;
1880:Drivers/display_ILI-93xx_sm/lcd.c **** 	/* Read bitmap height */
1881:Drivers/display_ILI-93xx_sm/lcd.c **** 	height = *(uint16_t *) (pBmp + 22);
1882:Drivers/display_ILI-93xx_sm/lcd.c **** 	height |= (*(uint16_t *) (pBmp + 24)) << 16;
1883:Drivers/display_ILI-93xx_sm/lcd.c **** 	/* Read color depth */
1884:Drivers/display_ILI-93xx_sm/lcd.c **** 	colordepth = *(uint16_t *) (pBmp + 28);
1885:Drivers/display_ILI-93xx_sm/lcd.c **** 
1886:Drivers/display_ILI-93xx_sm/lcd.c **** 	/* Calculate total number of clusters to read */
1887:Drivers/display_ILI-93xx_sm/lcd.c **** 	clusterSize = width * colordepth / 8;
1888:Drivers/display_ILI-93xx_sm/lcd.c **** 	clusterTotal = abs(height);
1889:Drivers/display_ILI-93xx_sm/lcd.c **** 
1890:Drivers/display_ILI-93xx_sm/lcd.c **** 	/* Start drawing */
1891:Drivers/display_ILI-93xx_sm/lcd.c **** 	if ((xPos + width > m_width) || (yPos + abs(height) > m_height) || clusterSize > sizeof(buf)) retu
1892:Drivers/display_ILI-93xx_sm/lcd.c **** 	LCD_SetAddrWindow(xPos, yPos, xPos + width - 1, yPos + abs(height) - 1);
1893:Drivers/display_ILI-93xx_sm/lcd.c **** 	LCD_CS_ACTIVE();
1894:Drivers/display_ILI-93xx_sm/lcd.c **** 	LCD_CD_COMMAND();
1895:Drivers/display_ILI-93xx_sm/lcd.c **** #if	defined(ILI9325) || defined(ILI9328) || defined(R61505) || defined(R61505V) || defined(S6D0154)
1896:Drivers/display_ILI-93xx_sm/lcd.c **** 	LCD_Write8(0x00); // High byte of GRAM register...
1897:Drivers/display_ILI-93xx_sm/lcd.c **** 	LCD_Write8(ILI932X_GRAM_WR); // Write data to GRAM
1898:Drivers/display_ILI-93xx_sm/lcd.c **** #elif defined(ILI9340) || defined(ILI9341) || defined(ILI9341_00) || defined(R61520) || defined(UNK
1899:Drivers/display_ILI-93xx_sm/lcd.c **** 	LCD_Write8(ILI9341_MEMORYWRITE); // Write data to GRAM
1900:Drivers/display_ILI-93xx_sm/lcd.c **** #elif defined(HX8347D) || defined(HX8347G)
1901:Drivers/display_ILI-93xx_sm/lcd.c **** 	LCD_Write8(HX8347G_SRAM_WR); // Write data to GRAM
1902:Drivers/display_ILI-93xx_sm/lcd.c **** #elif defined(HX8357D)
1903:Drivers/display_ILI-93xx_sm/lcd.c **** 	LCD_Write8(HX8357_RAMWR); // Write data to GRAM
1904:Drivers/display_ILI-93xx_sm/lcd.c **** #elif defined(SSD1297)
1905:Drivers/display_ILI-93xx_sm/lcd.c **** 	LCD_Write8(SSD1297_RAMDATA_WRITE); // Write data to GRAM
1906:Drivers/display_ILI-93xx_sm/lcd.c **** #endif
1907:Drivers/display_ILI-93xx_sm/lcd.c **** 
1908:Drivers/display_ILI-93xx_sm/lcd.c **** 	LCD_CD_DATA();
1909:Drivers/display_ILI-93xx_sm/lcd.c **** 	if (height < 0) {
1910:Drivers/display_ILI-93xx_sm/lcd.c **** 		/* Top-bottom file */
1911:Drivers/display_ILI-93xx_sm/lcd.c **** 		/* Move read pointer to beginning of pixel data */
ARM GAS  /tmp/cc47Teva.s 			page 241


1912:Drivers/display_ILI-93xx_sm/lcd.c **** 		f_lseek(pFile, offset);
1913:Drivers/display_ILI-93xx_sm/lcd.c **** 		clusterNum = 0;
1914:Drivers/display_ILI-93xx_sm/lcd.c **** 		while (clusterNum <= clusterTotal) {
1915:Drivers/display_ILI-93xx_sm/lcd.c **** 			/* Read new cluster */
1916:Drivers/display_ILI-93xx_sm/lcd.c **** 			f_read(pFile, buf, clusterSize, (UINT *) &readBytes);
1917:Drivers/display_ILI-93xx_sm/lcd.c **** 			start = buf;
1918:Drivers/display_ILI-93xx_sm/lcd.c **** 			end = buf + readBytes;
1919:Drivers/display_ILI-93xx_sm/lcd.c **** 			pBmp = start;
1920:Drivers/display_ILI-93xx_sm/lcd.c **** 			/* Draw image */
1921:Drivers/display_ILI-93xx_sm/lcd.c **** 			if (colordepth == 16) {
1922:Drivers/display_ILI-93xx_sm/lcd.c **** 				while (pBmp < end) {
1923:Drivers/display_ILI-93xx_sm/lcd.c **** #if defined(SSD1297)
1924:Drivers/display_ILI-93xx_sm/lcd.c **** 					LCD_Write8(LCD_Color565_to_R(*((uint16_t *) pBmp)));
1925:Drivers/display_ILI-93xx_sm/lcd.c **** 					LCD_Write8(LCD_Color565_to_G(*((uint16_t *) pBmp)));
1926:Drivers/display_ILI-93xx_sm/lcd.c **** 					LCD_Write8(LCD_Color565_to_B(*((uint16_t *) pBmp)));
1927:Drivers/display_ILI-93xx_sm/lcd.c **** #else
1928:Drivers/display_ILI-93xx_sm/lcd.c **** 					LCD_Write8(*(pBmp + 1));
1929:Drivers/display_ILI-93xx_sm/lcd.c **** 					LCD_Write8(*(pBmp));
1930:Drivers/display_ILI-93xx_sm/lcd.c **** #endif
1931:Drivers/display_ILI-93xx_sm/lcd.c **** 					pBmp += 2;
1932:Drivers/display_ILI-93xx_sm/lcd.c **** 				}
1933:Drivers/display_ILI-93xx_sm/lcd.c **** 			} else if (colordepth == 24) {
1934:Drivers/display_ILI-93xx_sm/lcd.c **** 				while (pBmp < end) {
1935:Drivers/display_ILI-93xx_sm/lcd.c **** #if defined(SSD1297)
1936:Drivers/display_ILI-93xx_sm/lcd.c **** 					LCD_Write8(*(pBmp + 2));
1937:Drivers/display_ILI-93xx_sm/lcd.c **** 					LCD_Write8(*(pBmp + 1));
1938:Drivers/display_ILI-93xx_sm/lcd.c **** 					LCD_Write8(*(pBmp));
1939:Drivers/display_ILI-93xx_sm/lcd.c **** #else
1940:Drivers/display_ILI-93xx_sm/lcd.c **** 					LCD_Write8((*(pBmp) & 0xF8) | (*(pBmp + 1) >> 5));
1941:Drivers/display_ILI-93xx_sm/lcd.c **** 					LCD_Write8(((*(pBmp + 1) & 0x1C) << 3) | (*(pBmp + 2) >> 3));
1942:Drivers/display_ILI-93xx_sm/lcd.c **** #endif
1943:Drivers/display_ILI-93xx_sm/lcd.c **** 					pBmp += 3;
1944:Drivers/display_ILI-93xx_sm/lcd.c **** 				}
1945:Drivers/display_ILI-93xx_sm/lcd.c **** 			}
1946:Drivers/display_ILI-93xx_sm/lcd.c **** 			clusterNum++;
1947:Drivers/display_ILI-93xx_sm/lcd.c **** 		}
1948:Drivers/display_ILI-93xx_sm/lcd.c **** 	} else {
1949:Drivers/display_ILI-93xx_sm/lcd.c **** 		/* Bottom-top file */
1950:Drivers/display_ILI-93xx_sm/lcd.c **** 		clusterNum = clusterTotal;
1951:Drivers/display_ILI-93xx_sm/lcd.c **** 		while (clusterNum > 0) {
1952:Drivers/display_ILI-93xx_sm/lcd.c **** 			f_lseek(pFile, offset + (clusterNum - 1) * clusterSize);
1953:Drivers/display_ILI-93xx_sm/lcd.c **** 			f_read(pFile, buf, clusterSize, (UINT *) &readBytes);
1954:Drivers/display_ILI-93xx_sm/lcd.c **** 			start = buf;
1955:Drivers/display_ILI-93xx_sm/lcd.c **** 			end = buf + readBytes;
1956:Drivers/display_ILI-93xx_sm/lcd.c **** 			pBmp = start;
1957:Drivers/display_ILI-93xx_sm/lcd.c **** 			if (colordepth == 16) {
1958:Drivers/display_ILI-93xx_sm/lcd.c **** 				while (pBmp < end) {
1959:Drivers/display_ILI-93xx_sm/lcd.c **** #if defined(SSD1297)
1960:Drivers/display_ILI-93xx_sm/lcd.c **** 					LCD_Write8(LCD_Color565_to_R(*((uint16_t *) (pBmp))));
1961:Drivers/display_ILI-93xx_sm/lcd.c **** 					LCD_Write8(LCD_Color565_to_G(*((uint16_t *) (pBmp))));
1962:Drivers/display_ILI-93xx_sm/lcd.c **** 					LCD_Write8(LCD_Color565_to_B(*((uint16_t *) (pBmp))));
1963:Drivers/display_ILI-93xx_sm/lcd.c **** #else
1964:Drivers/display_ILI-93xx_sm/lcd.c **** 					LCD_Write8(*(pBmp + 1));
1965:Drivers/display_ILI-93xx_sm/lcd.c **** 					LCD_Write8(*(pBmp));
1966:Drivers/display_ILI-93xx_sm/lcd.c **** #endif
1967:Drivers/display_ILI-93xx_sm/lcd.c **** 					pBmp += 2;
1968:Drivers/display_ILI-93xx_sm/lcd.c **** 				}
ARM GAS  /tmp/cc47Teva.s 			page 242


1969:Drivers/display_ILI-93xx_sm/lcd.c **** 			} else if (colordepth == 24) {
1970:Drivers/display_ILI-93xx_sm/lcd.c **** 				while (pBmp < end) {
1971:Drivers/display_ILI-93xx_sm/lcd.c **** #if defined(SSD1297)
1972:Drivers/display_ILI-93xx_sm/lcd.c **** 					LCD_Write8(*(pBmp + 2));
1973:Drivers/display_ILI-93xx_sm/lcd.c **** 					LCD_Write8(*(pBmp + 1));
1974:Drivers/display_ILI-93xx_sm/lcd.c **** 					LCD_Write8(*(pBmp));
1975:Drivers/display_ILI-93xx_sm/lcd.c **** #else
1976:Drivers/display_ILI-93xx_sm/lcd.c **** 					LCD_Write8((*(pBmp) & 0xF8) | (*(pBmp + 1) >> 5));
1977:Drivers/display_ILI-93xx_sm/lcd.c **** 					LCD_Write8(((*(pBmp + 1) & 0x1C) << 3) | (*(pBmp + 2) >> 3));
1978:Drivers/display_ILI-93xx_sm/lcd.c **** #endif
1979:Drivers/display_ILI-93xx_sm/lcd.c **** 					pBmp += 3;
1980:Drivers/display_ILI-93xx_sm/lcd.c **** 				}
1981:Drivers/display_ILI-93xx_sm/lcd.c **** 			}
1982:Drivers/display_ILI-93xx_sm/lcd.c **** 			clusterNum--;
1983:Drivers/display_ILI-93xx_sm/lcd.c **** 		}
1984:Drivers/display_ILI-93xx_sm/lcd.c **** 	}
1985:Drivers/display_ILI-93xx_sm/lcd.c **** 	LCD_CS_IDLE();
1986:Drivers/display_ILI-93xx_sm/lcd.c **** 	LCD_SetAddrWindow(0, 0, m_width - 1, m_height - 1);
1987:Drivers/display_ILI-93xx_sm/lcd.c **** }
1988:Drivers/display_ILI-93xx_sm/lcd.c **** #endif
1989:Drivers/display_ILI-93xx_sm/lcd.c **** 
1990:Drivers/display_ILI-93xx_sm/lcd.c **** /**
1991:Drivers/display_ILI-93xx_sm/lcd.c ****  * \brief Draws a line connecting the two points specified by the coordinate pairs
1992:Drivers/display_ILI-93xx_sm/lcd.c ****  *
1993:Drivers/display_ILI-93xx_sm/lcd.c ****  * \param x0	The x-coordinate of the first point
1994:Drivers/display_ILI-93xx_sm/lcd.c ****  * \param y0	The y-coordinate of the first point
1995:Drivers/display_ILI-93xx_sm/lcd.c ****  * \param x1	The x-coordinate of the second point
1996:Drivers/display_ILI-93xx_sm/lcd.c ****  * \param y1	The y-coordinate of the second point.
1997:Drivers/display_ILI-93xx_sm/lcd.c ****  * \param color	Color
1998:Drivers/display_ILI-93xx_sm/lcd.c ****  *
1999:Drivers/display_ILI-93xx_sm/lcd.c ****  * \return void
2000:Drivers/display_ILI-93xx_sm/lcd.c ****  */
2001:Drivers/display_ILI-93xx_sm/lcd.c **** void LCD_DrawLine(int16_t x0, int16_t y0, int16_t x1, int16_t y1, uint16_t color) {
 9255              		.loc 1 2001 83 is_stmt 1 view -0
 9256              		.cfi_startproc
 9257              		@ args = 4, pretend = 0, frame = 8
 9258              		@ frame_needed = 0, uses_anonymous_args = 0
 9259              		.loc 1 2001 83 is_stmt 0 view .LVU2894
 9260 0000 2DE9F04F 		push	{r4, r5, r6, r7, r8, r9, r10, fp, lr}
 9261              	.LCFI27:
 9262              		.cfi_def_cfa_offset 36
 9263              		.cfi_offset 4, -36
 9264              		.cfi_offset 5, -32
 9265              		.cfi_offset 6, -28
 9266              		.cfi_offset 7, -24
 9267              		.cfi_offset 8, -20
 9268              		.cfi_offset 9, -16
 9269              		.cfi_offset 10, -12
 9270              		.cfi_offset 11, -8
 9271              		.cfi_offset 14, -4
 9272 0004 83B0     		sub	sp, sp, #12
 9273              	.LCFI28:
 9274              		.cfi_def_cfa_offset 48
 9275 0006 0F46     		mov	r7, r1
 9276 0008 1646     		mov	r6, r2
 9277 000a 1D46     		mov	r5, r3
 9278 000c BDF83030 		ldrh	r3, [sp, #48]
ARM GAS  /tmp/cc47Teva.s 			page 243


 9279              	.LVL600:
 9280              		.loc 1 2001 83 view .LVU2895
 9281 0010 0093     		str	r3, [sp]
2002:Drivers/display_ILI-93xx_sm/lcd.c **** 	// Bresenham's algorithm - thx wikpedia
2003:Drivers/display_ILI-93xx_sm/lcd.c **** 
2004:Drivers/display_ILI-93xx_sm/lcd.c **** 	int16_t steep = abs(y1 - y0) > abs(x1 - x0);
 9282              		.loc 1 2004 2 is_stmt 1 view .LVU2896
 9283              		.loc 1 2004 25 is_stmt 0 view .LVU2897
 9284 0012 A5EB0108 		sub	r8, r5, r1
 9285              		.loc 1 2004 18 view .LVU2898
 9286 0016 B8F1000F 		cmp	r8, #0
 9287 001a B8BF     		it	lt
 9288 001c C8F10008 		rsblt	r8, r8, #0
 9289              		.loc 1 2004 40 view .LVU2899
 9290 0020 A2EB0009 		sub	r9, r2, r0
 9291              		.loc 1 2004 33 view .LVU2900
 9292 0024 B9F1000F 		cmp	r9, #0
 9293 0028 B8BF     		it	lt
 9294 002a C9F10009 		rsblt	r9, r9, #0
 9295              	.LVL601:
2005:Drivers/display_ILI-93xx_sm/lcd.c **** 	if (steep) {
 9296              		.loc 1 2005 2 is_stmt 1 view .LVU2901
 9297              		.loc 1 2005 5 is_stmt 0 view .LVU2902
 9298 002e C845     		cmp	r8, r9
 9299 0030 04DC     		bgt	.L468
 9300 0032 2B46     		mov	r3, r5
 9301 0034 1546     		mov	r5, r2
 9302 0036 1E46     		mov	r6, r3
 9303 0038 0746     		mov	r7, r0
 9304 003a 0846     		mov	r0, r1
 9305              	.LVL602:
 9306              	.L468:
2006:Drivers/display_ILI-93xx_sm/lcd.c **** 		swap(x0, y0);
2007:Drivers/display_ILI-93xx_sm/lcd.c **** 		swap(x1, y1);
2008:Drivers/display_ILI-93xx_sm/lcd.c **** 	}
2009:Drivers/display_ILI-93xx_sm/lcd.c **** 
2010:Drivers/display_ILI-93xx_sm/lcd.c **** 	if (x0 > x1) {
 9307              		.loc 1 2010 2 is_stmt 1 view .LVU2903
 9308              		.loc 1 2010 5 is_stmt 0 view .LVU2904
 9309 003c AF42     		cmp	r7, r5
 9310 003e 05DC     		bgt	.L469
 9311 0040 3346     		mov	r3, r6
 9312 0042 0646     		mov	r6, r0
 9313              	.LVL603:
 9314              		.loc 1 2010 5 view .LVU2905
 9315 0044 1846     		mov	r0, r3
 9316              	.LVL604:
 9317              		.loc 1 2010 5 view .LVU2906
 9318 0046 2B46     		mov	r3, r5
 9319 0048 3D46     		mov	r5, r7
 9320              	.LVL605:
 9321              		.loc 1 2010 5 view .LVU2907
 9322 004a 1F46     		mov	r7, r3
 9323              	.LVL606:
 9324              	.L469:
2011:Drivers/display_ILI-93xx_sm/lcd.c **** 		swap(x0, x1);
2012:Drivers/display_ILI-93xx_sm/lcd.c **** 		swap(y0, y1);
ARM GAS  /tmp/cc47Teva.s 			page 244


2013:Drivers/display_ILI-93xx_sm/lcd.c **** 	}
2014:Drivers/display_ILI-93xx_sm/lcd.c **** 
2015:Drivers/display_ILI-93xx_sm/lcd.c **** 	int16_t dx, dy;
 9325              		.loc 1 2015 2 is_stmt 1 view .LVU2908
2016:Drivers/display_ILI-93xx_sm/lcd.c **** 	dx = x1 - x0;
 9326              		.loc 1 2016 2 view .LVU2909
 9327              		.loc 1 2016 10 is_stmt 0 view .LVU2910
 9328 004c A7EB050B 		sub	fp, r7, r5
 9329 0050 1FFA8BFB 		uxth	fp, fp
 9330              		.loc 1 2016 5 view .LVU2911
 9331 0054 0FFA8BF4 		sxth	r4, fp
 9332              	.LVL607:
2017:Drivers/display_ILI-93xx_sm/lcd.c **** 	dy = abs(y1 - y0);
 9333              		.loc 1 2017 2 is_stmt 1 view .LVU2912
 9334              		.loc 1 2017 14 is_stmt 0 view .LVU2913
 9335 0058 A0EB060A 		sub	r10, r0, r6
 9336              		.loc 1 2017 7 view .LVU2914
 9337 005c BAF1000F 		cmp	r10, #0
 9338 0060 B8BF     		it	lt
 9339 0062 CAF1000A 		rsblt	r10, r10, #0
 9340              	.LVL608:
2018:Drivers/display_ILI-93xx_sm/lcd.c **** 
2019:Drivers/display_ILI-93xx_sm/lcd.c **** 	int16_t err = dx / 2;
 9341              		.loc 1 2019 2 is_stmt 1 view .LVU2915
 9342              		.loc 1 2019 10 is_stmt 0 view .LVU2916
 9343 0066 04EBD474 		add	r4, r4, r4, lsr #31
 9344              	.LVL609:
 9345              		.loc 1 2019 10 view .LVU2917
 9346 006a 6410     		asrs	r4, r4, #1
 9347              	.LVL610:
2020:Drivers/display_ILI-93xx_sm/lcd.c **** 	int16_t ystep;
 9348              		.loc 1 2020 2 is_stmt 1 view .LVU2918
2021:Drivers/display_ILI-93xx_sm/lcd.c **** 
2022:Drivers/display_ILI-93xx_sm/lcd.c **** 	if (y0 < y1) {
 9349              		.loc 1 2022 2 view .LVU2919
 9350              		.loc 1 2022 5 is_stmt 0 view .LVU2920
 9351 006c 8642     		cmp	r6, r0
 9352 006e 21DB     		blt	.L470
2023:Drivers/display_ILI-93xx_sm/lcd.c **** 		ystep = 1;
2024:Drivers/display_ILI-93xx_sm/lcd.c **** 	} else {
2025:Drivers/display_ILI-93xx_sm/lcd.c **** 		ystep = -1;
 9353              		.loc 1 2025 9 view .LVU2921
 9354 0070 4FF0FF33 		mov	r3, #-1
 9355 0074 0193     		str	r3, [sp, #4]
 9356 0076 0CE0     		b	.L475
 9357              	.LVL611:
 9358              	.L472:
2026:Drivers/display_ILI-93xx_sm/lcd.c **** 	}
2027:Drivers/display_ILI-93xx_sm/lcd.c **** 
2028:Drivers/display_ILI-93xx_sm/lcd.c **** 	for (; x0 <= x1; x0++) {
2029:Drivers/display_ILI-93xx_sm/lcd.c **** 		if (steep) {
2030:Drivers/display_ILI-93xx_sm/lcd.c **** 			LCD_DrawPixel(y0, x0, color);
2031:Drivers/display_ILI-93xx_sm/lcd.c **** 		} else {
2032:Drivers/display_ILI-93xx_sm/lcd.c **** 			LCD_DrawPixel(x0, y0, color);
 9359              		.loc 1 2032 4 is_stmt 1 view .LVU2922
 9360 0078 009A     		ldr	r2, [sp]
 9361 007a 3146     		mov	r1, r6
ARM GAS  /tmp/cc47Teva.s 			page 245


 9362 007c 2846     		mov	r0, r5
 9363 007e FFF7FEFF 		bl	LCD_DrawPixel
 9364              	.LVL612:
 9365              	.L473:
2033:Drivers/display_ILI-93xx_sm/lcd.c **** 		}
2034:Drivers/display_ILI-93xx_sm/lcd.c **** 		err -= dy;
 9366              		.loc 1 2034 3 view .LVU2923
 9367              		.loc 1 2034 7 is_stmt 0 view .LVU2924
 9368 0082 A4EB0A04 		sub	r4, r4, r10
 9369              	.LVL613:
 9370              		.loc 1 2034 7 view .LVU2925
 9371 0086 A3B2     		uxth	r3, r4
 9372 0088 1CB2     		sxth	r4, r3
 9373              	.LVL614:
2035:Drivers/display_ILI-93xx_sm/lcd.c **** 		if (err < 0) {
 9374              		.loc 1 2035 3 is_stmt 1 view .LVU2926
 9375              		.loc 1 2035 6 is_stmt 0 view .LVU2927
 9376 008a 002C     		cmp	r4, #0
 9377 008c 0BDB     		blt	.L478
 9378              	.L474:
2028:Drivers/display_ILI-93xx_sm/lcd.c **** 		if (steep) {
 9379              		.loc 1 2028 21 view .LVU2928
 9380 008e 0135     		adds	r5, r5, #1
 9381              	.LVL615:
2028:Drivers/display_ILI-93xx_sm/lcd.c **** 		if (steep) {
 9382              		.loc 1 2028 21 view .LVU2929
 9383 0090 2DB2     		sxth	r5, r5
 9384              	.LVL616:
 9385              	.L475:
2028:Drivers/display_ILI-93xx_sm/lcd.c **** 		if (steep) {
 9386              		.loc 1 2028 2 discriminator 1 view .LVU2930
 9387 0092 BD42     		cmp	r5, r7
 9388 0094 11DC     		bgt	.L479
2029:Drivers/display_ILI-93xx_sm/lcd.c **** 			LCD_DrawPixel(y0, x0, color);
 9389              		.loc 1 2029 3 is_stmt 1 view .LVU2931
2029:Drivers/display_ILI-93xx_sm/lcd.c **** 			LCD_DrawPixel(y0, x0, color);
 9390              		.loc 1 2029 6 is_stmt 0 view .LVU2932
 9391 0096 C845     		cmp	r8, r9
 9392 0098 EEDD     		ble	.L472
2030:Drivers/display_ILI-93xx_sm/lcd.c **** 		} else {
 9393              		.loc 1 2030 4 is_stmt 1 view .LVU2933
 9394 009a 009A     		ldr	r2, [sp]
 9395 009c 2946     		mov	r1, r5
 9396 009e 3046     		mov	r0, r6
 9397 00a0 FFF7FEFF 		bl	LCD_DrawPixel
 9398              	.LVL617:
 9399 00a4 EDE7     		b	.L473
 9400              	.L478:
2036:Drivers/display_ILI-93xx_sm/lcd.c **** 			y0 += ystep;
 9401              		.loc 1 2036 4 view .LVU2934
 9402              		.loc 1 2036 7 is_stmt 0 view .LVU2935
 9403 00a6 019A     		ldr	r2, [sp, #4]
 9404 00a8 1644     		add	r6, r6, r2
 9405              	.LVL618:
 9406              		.loc 1 2036 7 view .LVU2936
 9407 00aa 36B2     		sxth	r6, r6
 9408              	.LVL619:
ARM GAS  /tmp/cc47Teva.s 			page 246


2037:Drivers/display_ILI-93xx_sm/lcd.c **** 			err += dx;
 9409              		.loc 1 2037 4 is_stmt 1 view .LVU2937
 9410              		.loc 1 2037 8 is_stmt 0 view .LVU2938
 9411 00ac 0BEB0304 		add	r4, fp, r3
 9412              	.LVL620:
 9413              		.loc 1 2037 8 view .LVU2939
 9414 00b0 24B2     		sxth	r4, r4
 9415              	.LVL621:
 9416              		.loc 1 2037 8 view .LVU2940
 9417 00b2 ECE7     		b	.L474
 9418              	.LVL622:
 9419              	.L470:
2023:Drivers/display_ILI-93xx_sm/lcd.c **** 	} else {
 9420              		.loc 1 2023 9 view .LVU2941
 9421 00b4 0123     		movs	r3, #1
 9422 00b6 0193     		str	r3, [sp, #4]
 9423 00b8 EBE7     		b	.L475
 9424              	.LVL623:
 9425              	.L479:
2038:Drivers/display_ILI-93xx_sm/lcd.c **** 		}
2039:Drivers/display_ILI-93xx_sm/lcd.c **** 	}
2040:Drivers/display_ILI-93xx_sm/lcd.c **** }
 9426              		.loc 1 2040 1 view .LVU2942
 9427 00ba 03B0     		add	sp, sp, #12
 9428              	.LCFI29:
 9429              		.cfi_def_cfa_offset 36
 9430              		@ sp needed
 9431 00bc BDE8F08F 		pop	{r4, r5, r6, r7, r8, r9, r10, fp, pc}
 9432              		.loc 1 2040 1 view .LVU2943
 9433              		.cfi_endproc
 9434              	.LFE87:
 9436              		.section	.text.LCD_DrawFastHLine,"ax",%progbits
 9437              		.align	1
 9438              		.global	LCD_DrawFastHLine
 9439              		.syntax unified
 9440              		.thumb
 9441              		.thumb_func
 9442              		.fpu softvfp
 9444              	LCD_DrawFastHLine:
 9445              	.LVL624:
 9446              	.LFB88:
2041:Drivers/display_ILI-93xx_sm/lcd.c **** 
2042:Drivers/display_ILI-93xx_sm/lcd.c **** /**
2043:Drivers/display_ILI-93xx_sm/lcd.c ****  * \brief Draws a horizontal line
2044:Drivers/display_ILI-93xx_sm/lcd.c ****  *
2045:Drivers/display_ILI-93xx_sm/lcd.c ****  * \param x			The x-coordinate of the first point
2046:Drivers/display_ILI-93xx_sm/lcd.c ****  * \param y			The y-coordinate of the first point
2047:Drivers/display_ILI-93xx_sm/lcd.c ****  * \param length	Length of the line
2048:Drivers/display_ILI-93xx_sm/lcd.c ****  * \param color	Color
2049:Drivers/display_ILI-93xx_sm/lcd.c ****  *
2050:Drivers/display_ILI-93xx_sm/lcd.c ****  * \return void
2051:Drivers/display_ILI-93xx_sm/lcd.c ****  */
2052:Drivers/display_ILI-93xx_sm/lcd.c **** void LCD_DrawFastHLine(int16_t x, int16_t y, int16_t length, uint16_t color) {
 9447              		.loc 1 2052 78 is_stmt 1 view -0
 9448              		.cfi_startproc
 9449              		@ args = 0, pretend = 0, frame = 0
 9450              		@ frame_needed = 0, uses_anonymous_args = 0
ARM GAS  /tmp/cc47Teva.s 			page 247


 9451              		.loc 1 2052 78 is_stmt 0 view .LVU2945
 9452 0000 70B5     		push	{r4, r5, r6, lr}
 9453              	.LCFI30:
 9454              		.cfi_def_cfa_offset 16
 9455              		.cfi_offset 4, -16
 9456              		.cfi_offset 5, -12
 9457              		.cfi_offset 6, -8
 9458              		.cfi_offset 14, -4
2053:Drivers/display_ILI-93xx_sm/lcd.c **** 	int16_t x2;
 9459              		.loc 1 2053 2 is_stmt 1 view .LVU2946
2054:Drivers/display_ILI-93xx_sm/lcd.c **** 	
2055:Drivers/display_ILI-93xx_sm/lcd.c **** 	// Initial off-screen clipping
2056:Drivers/display_ILI-93xx_sm/lcd.c **** 	if ((length <= 0) || (y < 0) || (y >= m_height) || (x >= m_width) || 
 9460              		.loc 1 2056 2 view .LVU2947
 9461              		.loc 1 2056 5 is_stmt 0 view .LVU2948
 9462 0002 151E     		subs	r5, r2, #0
 9463 0004 33DD     		ble	.L480
 9464 0006 1C46     		mov	r4, r3
 9465              		.loc 1 2056 20 discriminator 1 view .LVU2949
 9466 0008 0029     		cmp	r1, #0
 9467 000a 30DB     		blt	.L480
 9468              		.loc 1 2056 37 discriminator 2 view .LVU2950
 9469 000c 1A4B     		ldr	r3, .L486
 9470              	.LVL625:
 9471              		.loc 1 2056 37 discriminator 2 view .LVU2951
 9472 000e B3F90030 		ldrsh	r3, [r3]
 9473              		.loc 1 2056 31 discriminator 2 view .LVU2952
 9474 0012 8B42     		cmp	r3, r1
 9475 0014 2BDD     		ble	.L480
 9476              		.loc 1 2056 56 discriminator 3 view .LVU2953
 9477 0016 194B     		ldr	r3, .L486+4
 9478 0018 B3F90030 		ldrsh	r3, [r3]
 9479              		.loc 1 2056 50 discriminator 3 view .LVU2954
 9480 001c 8342     		cmp	r3, r0
 9481 001e 26DD     		ble	.L480
2057:Drivers/display_ILI-93xx_sm/lcd.c **** 		((x2 = (x + length - 1)) < 0)) return;
 9482              		.loc 1 2057 13 discriminator 4 view .LVU2955
 9483 0020 4619     		adds	r6, r0, r5
 9484 0022 B6B2     		uxth	r6, r6
 9485              		.loc 1 2057 22 discriminator 4 view .LVU2956
 9486 0024 721E     		subs	r2, r6, #1
 9487              	.LVL626:
 9488              		.loc 1 2057 8 discriminator 4 view .LVU2957
 9489 0026 12B2     		sxth	r2, r2
 9490              	.LVL627:
2056:Drivers/display_ILI-93xx_sm/lcd.c **** 		((x2 = (x + length - 1)) < 0)) return;
 9491              		.loc 1 2056 68 discriminator 4 view .LVU2958
 9492 0028 002A     		cmp	r2, #0
 9493 002a 20DB     		blt	.L480
2058:Drivers/display_ILI-93xx_sm/lcd.c **** 
2059:Drivers/display_ILI-93xx_sm/lcd.c **** 	if (x < 0) { // Clip left
 9494              		.loc 1 2059 2 is_stmt 1 view .LVU2959
 9495              		.loc 1 2059 5 is_stmt 0 view .LVU2960
 9496 002c 0028     		cmp	r0, #0
 9497 002e 1FDB     		blt	.L485
 9498              	.LVL628:
 9499              	.L482:
ARM GAS  /tmp/cc47Teva.s 			page 248


2060:Drivers/display_ILI-93xx_sm/lcd.c **** 		length += x;
2061:Drivers/display_ILI-93xx_sm/lcd.c **** 		x = 0;
2062:Drivers/display_ILI-93xx_sm/lcd.c **** 	}
2063:Drivers/display_ILI-93xx_sm/lcd.c **** 
2064:Drivers/display_ILI-93xx_sm/lcd.c **** 	if (x2 >= m_width) { // Clip right
 9500              		.loc 1 2064 2 is_stmt 1 view .LVU2961
 9501              		.loc 1 2064 5 is_stmt 0 view .LVU2962
 9502 0030 9342     		cmp	r3, r2
 9503 0032 06DC     		bgt	.L483
2065:Drivers/display_ILI-93xx_sm/lcd.c **** 		x2 = m_width - 1;
 9504              		.loc 1 2065 3 is_stmt 1 view .LVU2963
 9505              		.loc 1 2065 16 is_stmt 0 view .LVU2964
 9506 0034 013B     		subs	r3, r3, #1
 9507 0036 9BB2     		uxth	r3, r3
 9508              		.loc 1 2065 6 view .LVU2965
 9509 0038 1AB2     		sxth	r2, r3
 9510              	.LVL629:
2066:Drivers/display_ILI-93xx_sm/lcd.c **** 		length = x2 - x + 1;
 9511              		.loc 1 2066 3 is_stmt 1 view .LVU2966
 9512              		.loc 1 2066 15 is_stmt 0 view .LVU2967
 9513 003a 1B1A     		subs	r3, r3, r0
 9514 003c 9BB2     		uxth	r3, r3
 9515              		.loc 1 2066 19 view .LVU2968
 9516 003e 0133     		adds	r3, r3, #1
 9517              		.loc 1 2066 10 view .LVU2969
 9518 0040 1DB2     		sxth	r5, r3
 9519              	.LVL630:
 9520              	.L483:
2067:Drivers/display_ILI-93xx_sm/lcd.c **** 	}
2068:Drivers/display_ILI-93xx_sm/lcd.c **** 
2069:Drivers/display_ILI-93xx_sm/lcd.c **** 	LCD_SetAddrWindow(x, y, x2, y);
 9521              		.loc 1 2069 2 is_stmt 1 view .LVU2970
 9522 0042 89B2     		uxth	r1, r1
 9523              		.loc 1 2069 2 is_stmt 0 view .LVU2971
 9524 0044 0B46     		mov	r3, r1
 9525 0046 92B2     		uxth	r2, r2
 9526              		.loc 1 2069 2 view .LVU2972
 9527 0048 80B2     		uxth	r0, r0
 9528              		.loc 1 2069 2 view .LVU2973
 9529 004a FFF7FEFF 		bl	LCD_SetAddrWindow
 9530              	.LVL631:
2070:Drivers/display_ILI-93xx_sm/lcd.c **** 	LCD_Flood(color, length);
 9531              		.loc 1 2070 2 is_stmt 1 view .LVU2974
 9532 004e 2946     		mov	r1, r5
 9533 0050 2046     		mov	r0, r4
 9534 0052 FFF7FEFF 		bl	LCD_Flood
 9535              	.LVL632:
2071:Drivers/display_ILI-93xx_sm/lcd.c **** 	LCD_SetAddrWindow(0, 0, m_width - 1, m_height - 1);
 9536              		.loc 1 2071 2 view .LVU2975
 9537 0056 084B     		ldr	r3, .L486
 9538 0058 1B88     		ldrh	r3, [r3]
 9539 005a 013B     		subs	r3, r3, #1
 9540 005c 074A     		ldr	r2, .L486+4
 9541 005e 1288     		ldrh	r2, [r2]
 9542 0060 013A     		subs	r2, r2, #1
 9543 0062 9BB2     		uxth	r3, r3
 9544 0064 92B2     		uxth	r2, r2
ARM GAS  /tmp/cc47Teva.s 			page 249


 9545 0066 0021     		movs	r1, #0
 9546 0068 0846     		mov	r0, r1
 9547 006a FFF7FEFF 		bl	LCD_SetAddrWindow
 9548              	.LVL633:
 9549              	.L480:
2072:Drivers/display_ILI-93xx_sm/lcd.c **** 
2073:Drivers/display_ILI-93xx_sm/lcd.c **** }
 9550              		.loc 1 2073 1 is_stmt 0 view .LVU2976
 9551 006e 70BD     		pop	{r4, r5, r6, pc}
 9552              	.LVL634:
 9553              	.L485:
2060:Drivers/display_ILI-93xx_sm/lcd.c **** 		x = 0;
 9554              		.loc 1 2060 3 is_stmt 1 view .LVU2977
2060:Drivers/display_ILI-93xx_sm/lcd.c **** 		x = 0;
 9555              		.loc 1 2060 10 is_stmt 0 view .LVU2978
 9556 0070 35B2     		sxth	r5, r6
 9557              	.LVL635:
2061:Drivers/display_ILI-93xx_sm/lcd.c **** 	}
 9558              		.loc 1 2061 3 is_stmt 1 view .LVU2979
2061:Drivers/display_ILI-93xx_sm/lcd.c **** 	}
 9559              		.loc 1 2061 5 is_stmt 0 view .LVU2980
 9560 0072 0020     		movs	r0, #0
 9561 0074 DCE7     		b	.L482
 9562              	.L487:
 9563 0076 00BF     		.align	2
 9564              	.L486:
 9565 0078 00000000 		.word	.LANCHOR1
 9566 007c 00000000 		.word	.LANCHOR0
 9567              		.cfi_endproc
 9568              	.LFE88:
 9570              		.section	.text.LCD_DrawFastVLine,"ax",%progbits
 9571              		.align	1
 9572              		.global	LCD_DrawFastVLine
 9573              		.syntax unified
 9574              		.thumb
 9575              		.thumb_func
 9576              		.fpu softvfp
 9578              	LCD_DrawFastVLine:
 9579              	.LVL636:
 9580              	.LFB89:
2074:Drivers/display_ILI-93xx_sm/lcd.c **** 
2075:Drivers/display_ILI-93xx_sm/lcd.c **** /**
2076:Drivers/display_ILI-93xx_sm/lcd.c ****  * \brief Draws a vertical line
2077:Drivers/display_ILI-93xx_sm/lcd.c ****  *
2078:Drivers/display_ILI-93xx_sm/lcd.c ****  * \param x		The x-coordinate of the first point
2079:Drivers/display_ILI-93xx_sm/lcd.c ****  * \param y		The y-coordinate of the first point
2080:Drivers/display_ILI-93xx_sm/lcd.c ****  * \param h		High of the line
2081:Drivers/display_ILI-93xx_sm/lcd.c ****  * \param color	Color
2082:Drivers/display_ILI-93xx_sm/lcd.c ****  *
2083:Drivers/display_ILI-93xx_sm/lcd.c ****  * \return void
2084:Drivers/display_ILI-93xx_sm/lcd.c ****  */
2085:Drivers/display_ILI-93xx_sm/lcd.c **** void LCD_DrawFastVLine(int16_t x, int16_t y, int16_t length, uint16_t color) {
 9581              		.loc 1 2085 78 is_stmt 1 view -0
 9582              		.cfi_startproc
 9583              		@ args = 0, pretend = 0, frame = 0
 9584              		@ frame_needed = 0, uses_anonymous_args = 0
 9585              		.loc 1 2085 78 is_stmt 0 view .LVU2982
ARM GAS  /tmp/cc47Teva.s 			page 250


 9586 0000 70B5     		push	{r4, r5, r6, lr}
 9587              	.LCFI31:
 9588              		.cfi_def_cfa_offset 16
 9589              		.cfi_offset 4, -16
 9590              		.cfi_offset 5, -12
 9591              		.cfi_offset 6, -8
 9592              		.cfi_offset 14, -4
2086:Drivers/display_ILI-93xx_sm/lcd.c **** 	int16_t y2;
 9593              		.loc 1 2086 2 is_stmt 1 view .LVU2983
2087:Drivers/display_ILI-93xx_sm/lcd.c **** 
2088:Drivers/display_ILI-93xx_sm/lcd.c **** 	// Initial off-screen clipping
2089:Drivers/display_ILI-93xx_sm/lcd.c **** 	if ((length <= 0) || (x < 0) || (x >= m_width) || (y >= m_height) || 
 9594              		.loc 1 2089 2 view .LVU2984
 9595              		.loc 1 2089 5 is_stmt 0 view .LVU2985
 9596 0002 151E     		subs	r5, r2, #0
 9597 0004 33DD     		ble	.L488
 9598 0006 1C46     		mov	r4, r3
 9599              		.loc 1 2089 20 discriminator 1 view .LVU2986
 9600 0008 0028     		cmp	r0, #0
 9601 000a 30DB     		blt	.L488
 9602              		.loc 1 2089 37 discriminator 2 view .LVU2987
 9603 000c 1A4B     		ldr	r3, .L494
 9604              	.LVL637:
 9605              		.loc 1 2089 37 discriminator 2 view .LVU2988
 9606 000e B3F90030 		ldrsh	r3, [r3]
 9607              		.loc 1 2089 31 discriminator 2 view .LVU2989
 9608 0012 8342     		cmp	r3, r0
 9609 0014 2BDD     		ble	.L488
 9610              		.loc 1 2089 55 discriminator 3 view .LVU2990
 9611 0016 194B     		ldr	r3, .L494+4
 9612 0018 B3F90020 		ldrsh	r2, [r3]
 9613              	.LVL638:
 9614              		.loc 1 2089 49 discriminator 3 view .LVU2991
 9615 001c 8A42     		cmp	r2, r1
 9616 001e 26DD     		ble	.L488
2090:Drivers/display_ILI-93xx_sm/lcd.c **** 		((y2 = (y+length-1)) <  0)) return;
 9617              		.loc 1 2090 12 discriminator 4 view .LVU2992
 9618 0020 4E19     		adds	r6, r1, r5
 9619 0022 B6B2     		uxth	r6, r6
 9620              		.loc 1 2090 19 discriminator 4 view .LVU2993
 9621 0024 731E     		subs	r3, r6, #1
 9622              		.loc 1 2090 8 discriminator 4 view .LVU2994
 9623 0026 1BB2     		sxth	r3, r3
 9624              	.LVL639:
2089:Drivers/display_ILI-93xx_sm/lcd.c **** 		((y2 = (y+length-1)) <  0)) return;
 9625              		.loc 1 2089 68 discriminator 4 view .LVU2995
 9626 0028 002B     		cmp	r3, #0
 9627 002a 20DB     		blt	.L488
2091:Drivers/display_ILI-93xx_sm/lcd.c **** 		
2092:Drivers/display_ILI-93xx_sm/lcd.c **** 	if (y < 0) { // Clip top
 9628              		.loc 1 2092 2 is_stmt 1 view .LVU2996
 9629              		.loc 1 2092 5 is_stmt 0 view .LVU2997
 9630 002c 0029     		cmp	r1, #0
 9631 002e 1FDB     		blt	.L493
 9632              	.LVL640:
 9633              	.L490:
2093:Drivers/display_ILI-93xx_sm/lcd.c **** 		length += y;
ARM GAS  /tmp/cc47Teva.s 			page 251


2094:Drivers/display_ILI-93xx_sm/lcd.c **** 		y = 0;
2095:Drivers/display_ILI-93xx_sm/lcd.c **** 	}
2096:Drivers/display_ILI-93xx_sm/lcd.c **** 	if (y2 >= m_height) { // Clip bottom
 9634              		.loc 1 2096 2 is_stmt 1 view .LVU2998
 9635              		.loc 1 2096 5 is_stmt 0 view .LVU2999
 9636 0030 9A42     		cmp	r2, r3
 9637 0032 06DC     		bgt	.L491
2097:Drivers/display_ILI-93xx_sm/lcd.c **** 		y2 = m_height - 1;
 9638              		.loc 1 2097 3 is_stmt 1 view .LVU3000
 9639              		.loc 1 2097 17 is_stmt 0 view .LVU3001
 9640 0034 013A     		subs	r2, r2, #1
 9641 0036 92B2     		uxth	r2, r2
 9642              		.loc 1 2097 6 view .LVU3002
 9643 0038 13B2     		sxth	r3, r2
 9644              	.LVL641:
2098:Drivers/display_ILI-93xx_sm/lcd.c **** 		length = y2 - y + 1;
 9645              		.loc 1 2098 3 is_stmt 1 view .LVU3003
 9646              		.loc 1 2098 15 is_stmt 0 view .LVU3004
 9647 003a 521A     		subs	r2, r2, r1
 9648 003c 92B2     		uxth	r2, r2
 9649              		.loc 1 2098 19 view .LVU3005
 9650 003e 0132     		adds	r2, r2, #1
 9651              		.loc 1 2098 10 view .LVU3006
 9652 0040 15B2     		sxth	r5, r2
 9653              	.LVL642:
 9654              	.L491:
2099:Drivers/display_ILI-93xx_sm/lcd.c **** 	}
2100:Drivers/display_ILI-93xx_sm/lcd.c **** 	LCD_SetAddrWindow(x, y, x, y2);
 9655              		.loc 1 2100 2 is_stmt 1 view .LVU3007
 9656 0042 80B2     		uxth	r0, r0
 9657              		.loc 1 2100 2 is_stmt 0 view .LVU3008
 9658 0044 9BB2     		uxth	r3, r3
 9659              		.loc 1 2100 2 view .LVU3009
 9660 0046 0246     		mov	r2, r0
 9661 0048 89B2     		uxth	r1, r1
 9662              		.loc 1 2100 2 view .LVU3010
 9663 004a FFF7FEFF 		bl	LCD_SetAddrWindow
 9664              	.LVL643:
2101:Drivers/display_ILI-93xx_sm/lcd.c **** 	LCD_Flood(color, length);
 9665              		.loc 1 2101 2 is_stmt 1 view .LVU3011
 9666 004e 2946     		mov	r1, r5
 9667 0050 2046     		mov	r0, r4
 9668 0052 FFF7FEFF 		bl	LCD_Flood
 9669              	.LVL644:
2102:Drivers/display_ILI-93xx_sm/lcd.c **** 	LCD_SetAddrWindow(0, 0, m_width - 1, m_height - 1);
 9670              		.loc 1 2102 2 view .LVU3012
 9671 0056 094B     		ldr	r3, .L494+4
 9672 0058 1B88     		ldrh	r3, [r3]
 9673 005a 013B     		subs	r3, r3, #1
 9674 005c 064A     		ldr	r2, .L494
 9675 005e 1288     		ldrh	r2, [r2]
 9676 0060 013A     		subs	r2, r2, #1
 9677 0062 9BB2     		uxth	r3, r3
 9678 0064 92B2     		uxth	r2, r2
 9679 0066 0021     		movs	r1, #0
 9680 0068 0846     		mov	r0, r1
 9681 006a FFF7FEFF 		bl	LCD_SetAddrWindow
ARM GAS  /tmp/cc47Teva.s 			page 252


 9682              	.LVL645:
 9683              	.L488:
2103:Drivers/display_ILI-93xx_sm/lcd.c **** }
 9684              		.loc 1 2103 1 is_stmt 0 view .LVU3013
 9685 006e 70BD     		pop	{r4, r5, r6, pc}
 9686              	.LVL646:
 9687              	.L493:
2093:Drivers/display_ILI-93xx_sm/lcd.c **** 		y = 0;
 9688              		.loc 1 2093 3 is_stmt 1 view .LVU3014
2093:Drivers/display_ILI-93xx_sm/lcd.c **** 		y = 0;
 9689              		.loc 1 2093 10 is_stmt 0 view .LVU3015
 9690 0070 35B2     		sxth	r5, r6
 9691              	.LVL647:
2094:Drivers/display_ILI-93xx_sm/lcd.c **** 	}
 9692              		.loc 1 2094 3 is_stmt 1 view .LVU3016
2094:Drivers/display_ILI-93xx_sm/lcd.c **** 	}
 9693              		.loc 1 2094 5 is_stmt 0 view .LVU3017
 9694 0072 0021     		movs	r1, #0
 9695 0074 DCE7     		b	.L490
 9696              	.L495:
 9697 0076 00BF     		.align	2
 9698              	.L494:
 9699 0078 00000000 		.word	.LANCHOR0
 9700 007c 00000000 		.word	.LANCHOR1
 9701              		.cfi_endproc
 9702              	.LFE89:
 9704              		.section	.text.LCD_DrawRect,"ax",%progbits
 9705              		.align	1
 9706              		.global	LCD_DrawRect
 9707              		.syntax unified
 9708              		.thumb
 9709              		.thumb_func
 9710              		.fpu softvfp
 9712              	LCD_DrawRect:
 9713              	.LVL648:
 9714              	.LFB90:
2104:Drivers/display_ILI-93xx_sm/lcd.c **** 
2105:Drivers/display_ILI-93xx_sm/lcd.c **** /**
2106:Drivers/display_ILI-93xx_sm/lcd.c ****  * \brief Draws a rectangle specified by a coordinate pair, a width, and a height.
2107:Drivers/display_ILI-93xx_sm/lcd.c ****  *
2108:Drivers/display_ILI-93xx_sm/lcd.c ****  * \param x			The x-coordinate of the upper-left corner of the rectangle to draw
2109:Drivers/display_ILI-93xx_sm/lcd.c ****  * \param y			The y-coordinate of the upper-left corner of the rectangle to draw
2110:Drivers/display_ILI-93xx_sm/lcd.c ****  * \param w			Width of the rectangle to draw
2111:Drivers/display_ILI-93xx_sm/lcd.c ****  * \param h			Height of the rectangle to draw
2112:Drivers/display_ILI-93xx_sm/lcd.c ****  * \param color		Color
2113:Drivers/display_ILI-93xx_sm/lcd.c ****  *
2114:Drivers/display_ILI-93xx_sm/lcd.c ****  * \return void
2115:Drivers/display_ILI-93xx_sm/lcd.c ****  */
2116:Drivers/display_ILI-93xx_sm/lcd.c **** void LCD_DrawRect(int16_t x, int16_t y, int16_t w, int16_t h, uint16_t color) {
 9715              		.loc 1 2116 79 is_stmt 1 view -0
 9716              		.cfi_startproc
 9717              		@ args = 4, pretend = 0, frame = 0
 9718              		@ frame_needed = 0, uses_anonymous_args = 0
 9719              		.loc 1 2116 79 is_stmt 0 view .LVU3019
 9720 0000 2DE9F041 		push	{r4, r5, r6, r7, r8, lr}
 9721              	.LCFI32:
 9722              		.cfi_def_cfa_offset 24
ARM GAS  /tmp/cc47Teva.s 			page 253


 9723              		.cfi_offset 4, -24
 9724              		.cfi_offset 5, -20
 9725              		.cfi_offset 6, -16
 9726              		.cfi_offset 7, -12
 9727              		.cfi_offset 8, -8
 9728              		.cfi_offset 14, -4
 9729 0004 0446     		mov	r4, r0
 9730 0006 0E46     		mov	r6, r1
 9731 0008 9046     		mov	r8, r2
 9732 000a 1F46     		mov	r7, r3
 9733 000c BDF81850 		ldrh	r5, [sp, #24]
2117:Drivers/display_ILI-93xx_sm/lcd.c **** 	LCD_DrawFastHLine(x, y, w, color);
 9734              		.loc 1 2117 2 is_stmt 1 view .LVU3020
 9735 0010 2B46     		mov	r3, r5
 9736              	.LVL649:
 9737              		.loc 1 2117 2 is_stmt 0 view .LVU3021
 9738 0012 FFF7FEFF 		bl	LCD_DrawFastHLine
 9739              	.LVL650:
2118:Drivers/display_ILI-93xx_sm/lcd.c **** 	LCD_DrawFastHLine(x, y + h - 1, w, color);
 9740              		.loc 1 2118 2 is_stmt 1 view .LVU3022
 9741              		.loc 1 2118 25 is_stmt 0 view .LVU3023
 9742 0016 F119     		adds	r1, r6, r7
 9743 0018 89B2     		uxth	r1, r1
 9744              		.loc 1 2118 29 view .LVU3024
 9745 001a 0139     		subs	r1, r1, #1
 9746              		.loc 1 2118 2 view .LVU3025
 9747 001c 2B46     		mov	r3, r5
 9748 001e 4246     		mov	r2, r8
 9749 0020 09B2     		sxth	r1, r1
 9750 0022 2046     		mov	r0, r4
 9751 0024 FFF7FEFF 		bl	LCD_DrawFastHLine
 9752              	.LVL651:
2119:Drivers/display_ILI-93xx_sm/lcd.c **** 	LCD_DrawFastVLine(x, y, h, color);
 9753              		.loc 1 2119 2 is_stmt 1 view .LVU3026
 9754 0028 2B46     		mov	r3, r5
 9755 002a 3A46     		mov	r2, r7
 9756 002c 3146     		mov	r1, r6
 9757 002e 2046     		mov	r0, r4
 9758 0030 FFF7FEFF 		bl	LCD_DrawFastVLine
 9759              	.LVL652:
2120:Drivers/display_ILI-93xx_sm/lcd.c **** 	LCD_DrawFastVLine(x + w - 1, y, h, color);
 9760              		.loc 1 2120 2 view .LVU3027
 9761              		.loc 1 2120 22 is_stmt 0 view .LVU3028
 9762 0034 04EB0800 		add	r0, r4, r8
 9763 0038 80B2     		uxth	r0, r0
 9764              		.loc 1 2120 26 view .LVU3029
 9765 003a 0138     		subs	r0, r0, #1
 9766              		.loc 1 2120 2 view .LVU3030
 9767 003c 2B46     		mov	r3, r5
 9768 003e 3A46     		mov	r2, r7
 9769 0040 3146     		mov	r1, r6
 9770 0042 00B2     		sxth	r0, r0
 9771 0044 FFF7FEFF 		bl	LCD_DrawFastVLine
 9772              	.LVL653:
2121:Drivers/display_ILI-93xx_sm/lcd.c **** }
 9773              		.loc 1 2121 1 view .LVU3031
 9774 0048 BDE8F081 		pop	{r4, r5, r6, r7, r8, pc}
ARM GAS  /tmp/cc47Teva.s 			page 254


 9775              		.loc 1 2121 1 view .LVU3032
 9776              		.cfi_endproc
 9777              	.LFE90:
 9779              		.section	.text.LCD_FillRect,"ax",%progbits
 9780              		.align	1
 9781              		.global	LCD_FillRect
 9782              		.syntax unified
 9783              		.thumb
 9784              		.thumb_func
 9785              		.fpu softvfp
 9787              	LCD_FillRect:
 9788              	.LVL654:
 9789              	.LFB91:
2122:Drivers/display_ILI-93xx_sm/lcd.c **** 
2123:Drivers/display_ILI-93xx_sm/lcd.c **** /**
2124:Drivers/display_ILI-93xx_sm/lcd.c ****  * \brief Draws a filled rectangle specified by a coordinate pair, a width, and a height.
2125:Drivers/display_ILI-93xx_sm/lcd.c ****  *
2126:Drivers/display_ILI-93xx_sm/lcd.c ****  * \param x				The x-coordinate of the upper-left corner of the rectangle to draw
2127:Drivers/display_ILI-93xx_sm/lcd.c ****  * \param y				The y-coordinate of the upper-left corner of the rectangle to draw
2128:Drivers/display_ILI-93xx_sm/lcd.c ****  * \param w				Width of the rectangle to draw
2129:Drivers/display_ILI-93xx_sm/lcd.c ****  * \param h				Height of the rectangle to draw
2130:Drivers/display_ILI-93xx_sm/lcd.c ****  * \param color			Color
2131:Drivers/display_ILI-93xx_sm/lcd.c ****  *
2132:Drivers/display_ILI-93xx_sm/lcd.c ****  * \return void
2133:Drivers/display_ILI-93xx_sm/lcd.c ****  */
2134:Drivers/display_ILI-93xx_sm/lcd.c **** void LCD_FillRect(int16_t x, int16_t y1, int16_t w, int16_t h, uint16_t color) {
 9790              		.loc 1 2134 80 is_stmt 1 view -0
 9791              		.cfi_startproc
 9792              		@ args = 4, pretend = 0, frame = 0
 9793              		@ frame_needed = 0, uses_anonymous_args = 0
 9794              		.loc 1 2134 80 is_stmt 0 view .LVU3034
 9795 0000 F8B5     		push	{r3, r4, r5, r6, r7, lr}
 9796              	.LCFI33:
 9797              		.cfi_def_cfa_offset 24
 9798              		.cfi_offset 3, -24
 9799              		.cfi_offset 4, -20
 9800              		.cfi_offset 5, -16
 9801              		.cfi_offset 6, -12
 9802              		.cfi_offset 7, -8
 9803              		.cfi_offset 14, -4
2135:Drivers/display_ILI-93xx_sm/lcd.c **** 	int16_t x2, y2;
 9804              		.loc 1 2135 2 is_stmt 1 view .LVU3035
2136:Drivers/display_ILI-93xx_sm/lcd.c **** 
2137:Drivers/display_ILI-93xx_sm/lcd.c **** 	// Initial off-screen clipping
2138:Drivers/display_ILI-93xx_sm/lcd.c **** 	if ((w <= 0) || (h <= 0) || (x >= m_width) || (y1 >= m_height)
 9805              		.loc 1 2138 2 view .LVU3036
 9806              		.loc 1 2138 5 is_stmt 0 view .LVU3037
 9807 0002 171E     		subs	r7, r2, #0
 9808 0004 4CDD     		ble	.L498
 9809 0006 1C46     		mov	r4, r3
 9810              		.loc 1 2138 15 discriminator 1 view .LVU3038
 9811 0008 002B     		cmp	r3, #0
 9812 000a 49DD     		ble	.L498
 9813              		.loc 1 2138 33 discriminator 2 view .LVU3039
 9814 000c 294B     		ldr	r3, .L507
 9815              	.LVL655:
 9816              		.loc 1 2138 33 discriminator 2 view .LVU3040
ARM GAS  /tmp/cc47Teva.s 			page 255


 9817 000e B3F90050 		ldrsh	r5, [r3]
 9818              		.loc 1 2138 27 discriminator 2 view .LVU3041
 9819 0012 8542     		cmp	r5, r0
 9820 0014 44DD     		ble	.L498
 9821              		.loc 1 2138 52 discriminator 3 view .LVU3042
 9822 0016 284B     		ldr	r3, .L507+4
 9823 0018 B3F90060 		ldrsh	r6, [r3]
 9824              		.loc 1 2138 45 discriminator 3 view .LVU3043
 9825 001c 8E42     		cmp	r6, r1
 9826 001e 3FDD     		ble	.L498
2139:Drivers/display_ILI-93xx_sm/lcd.c **** 			|| ((x2 = x + w - 1) < 0) || ((y2 = y1 + h - 1) < 0))
 9827              		.loc 1 2139 16 view .LVU3044
 9828 0020 00EB070C 		add	ip, r0, r7
 9829 0024 1FFA8CFC 		uxth	ip, ip
 9830              		.loc 1 2139 20 view .LVU3045
 9831 0028 0CF1FF32 		add	r2, ip, #-1
 9832              	.LVL656:
 9833              		.loc 1 2139 12 view .LVU3046
 9834 002c 12B2     		sxth	r2, r2
 9835              	.LVL657:
 9836              		.loc 1 2139 4 view .LVU3047
 9837 002e 002A     		cmp	r2, #0
 9838 0030 36DB     		blt	.L498
 9839              		.loc 1 2139 43 discriminator 1 view .LVU3048
 9840 0032 01EB040E 		add	lr, r1, r4
 9841 0036 1FFA8EFE 		uxth	lr, lr
 9842              		.loc 1 2139 47 discriminator 1 view .LVU3049
 9843 003a 0EF1FF33 		add	r3, lr, #-1
 9844              		.loc 1 2139 38 discriminator 1 view .LVU3050
 9845 003e 1BB2     		sxth	r3, r3
 9846              	.LVL658:
 9847              		.loc 1 2139 30 discriminator 1 view .LVU3051
 9848 0040 002B     		cmp	r3, #0
 9849 0042 2DDB     		blt	.L498
2140:Drivers/display_ILI-93xx_sm/lcd.c **** 		return;
2141:Drivers/display_ILI-93xx_sm/lcd.c **** 	if (x < 0) { // Clip left
 9850              		.loc 1 2141 2 is_stmt 1 view .LVU3052
 9851              		.loc 1 2141 5 is_stmt 0 view .LVU3053
 9852 0044 0028     		cmp	r0, #0
 9853 0046 2CDB     		blt	.L505
 9854              	.LVL659:
 9855              	.L500:
2142:Drivers/display_ILI-93xx_sm/lcd.c **** 		w += x;
2143:Drivers/display_ILI-93xx_sm/lcd.c **** 		x = 0;
2144:Drivers/display_ILI-93xx_sm/lcd.c **** 	}
2145:Drivers/display_ILI-93xx_sm/lcd.c **** 	if (y1 < 0) { // Clip top
 9856              		.loc 1 2145 2 is_stmt 1 view .LVU3054
 9857              		.loc 1 2145 5 is_stmt 0 view .LVU3055
 9858 0048 0029     		cmp	r1, #0
 9859 004a 2EDB     		blt	.L506
 9860              	.LVL660:
 9861              	.L501:
2146:Drivers/display_ILI-93xx_sm/lcd.c **** 		h += y1;
2147:Drivers/display_ILI-93xx_sm/lcd.c **** 		y1 = 0;
2148:Drivers/display_ILI-93xx_sm/lcd.c **** 	}
2149:Drivers/display_ILI-93xx_sm/lcd.c **** 	if (x2 >= m_width) { // Clip right
 9862              		.loc 1 2149 2 is_stmt 1 view .LVU3056
ARM GAS  /tmp/cc47Teva.s 			page 256


 9863              		.loc 1 2149 5 is_stmt 0 view .LVU3057
 9864 004c 9542     		cmp	r5, r2
 9865 004e 06DC     		bgt	.L502
2150:Drivers/display_ILI-93xx_sm/lcd.c **** 		x2 = m_width - 1;
 9866              		.loc 1 2150 3 is_stmt 1 view .LVU3058
 9867              		.loc 1 2150 16 is_stmt 0 view .LVU3059
 9868 0050 013D     		subs	r5, r5, #1
 9869 0052 ADB2     		uxth	r5, r5
 9870              		.loc 1 2150 6 view .LVU3060
 9871 0054 2AB2     		sxth	r2, r5
 9872              	.LVL661:
2151:Drivers/display_ILI-93xx_sm/lcd.c **** 		w = x2 - x + 1;
 9873              		.loc 1 2151 3 is_stmt 1 view .LVU3061
 9874              		.loc 1 2151 10 is_stmt 0 view .LVU3062
 9875 0056 2D1A     		subs	r5, r5, r0
 9876 0058 ADB2     		uxth	r5, r5
 9877              		.loc 1 2151 14 view .LVU3063
 9878 005a 0135     		adds	r5, r5, #1
 9879              		.loc 1 2151 5 view .LVU3064
 9880 005c 2FB2     		sxth	r7, r5
 9881              	.LVL662:
 9882              	.L502:
2152:Drivers/display_ILI-93xx_sm/lcd.c **** 	}
2153:Drivers/display_ILI-93xx_sm/lcd.c **** 	if (y2 >= m_height) { // Clip bottom
 9883              		.loc 1 2153 2 is_stmt 1 view .LVU3065
 9884              		.loc 1 2153 5 is_stmt 0 view .LVU3066
 9885 005e 9E42     		cmp	r6, r3
 9886 0060 06DC     		bgt	.L503
2154:Drivers/display_ILI-93xx_sm/lcd.c **** 		y2 = m_height - 1;
 9887              		.loc 1 2154 3 is_stmt 1 view .LVU3067
 9888              		.loc 1 2154 17 is_stmt 0 view .LVU3068
 9889 0062 013E     		subs	r6, r6, #1
 9890 0064 B6B2     		uxth	r6, r6
 9891              		.loc 1 2154 6 view .LVU3069
 9892 0066 33B2     		sxth	r3, r6
 9893              	.LVL663:
2155:Drivers/display_ILI-93xx_sm/lcd.c **** 		h = y2 - y1 + 1;
 9894              		.loc 1 2155 3 is_stmt 1 view .LVU3070
 9895              		.loc 1 2155 10 is_stmt 0 view .LVU3071
 9896 0068 741A     		subs	r4, r6, r1
 9897              	.LVL664:
 9898              		.loc 1 2155 10 view .LVU3072
 9899 006a A4B2     		uxth	r4, r4
 9900              		.loc 1 2155 15 view .LVU3073
 9901 006c 0134     		adds	r4, r4, #1
 9902              		.loc 1 2155 5 view .LVU3074
 9903 006e 24B2     		sxth	r4, r4
 9904              	.LVL665:
 9905              	.L503:
2156:Drivers/display_ILI-93xx_sm/lcd.c **** 	}
2157:Drivers/display_ILI-93xx_sm/lcd.c **** 
2158:Drivers/display_ILI-93xx_sm/lcd.c **** 	LCD_SetAddrWindow(x, y1, x2, y2);
 9906              		.loc 1 2158 2 is_stmt 1 view .LVU3075
 9907 0070 9BB2     		uxth	r3, r3
 9908              		.loc 1 2158 2 is_stmt 0 view .LVU3076
 9909 0072 92B2     		uxth	r2, r2
 9910              		.loc 1 2158 2 view .LVU3077
ARM GAS  /tmp/cc47Teva.s 			page 257


 9911 0074 89B2     		uxth	r1, r1
 9912              		.loc 1 2158 2 view .LVU3078
 9913 0076 80B2     		uxth	r0, r0
 9914              		.loc 1 2158 2 view .LVU3079
 9915 0078 FFF7FEFF 		bl	LCD_SetAddrWindow
 9916              	.LVL666:
2159:Drivers/display_ILI-93xx_sm/lcd.c **** 	LCD_Flood(color, (uint32_t) w * (uint32_t) h);
 9917              		.loc 1 2159 2 is_stmt 1 view .LVU3080
 9918 007c 04FB07F1 		mul	r1, r4, r7
 9919 0080 BDF81800 		ldrh	r0, [sp, #24]
 9920 0084 FFF7FEFF 		bl	LCD_Flood
 9921              	.LVL667:
2160:Drivers/display_ILI-93xx_sm/lcd.c **** 	LCD_SetAddrWindow(0, 0, m_width - 1, m_height - 1);
 9922              		.loc 1 2160 2 view .LVU3081
 9923 0088 0B4B     		ldr	r3, .L507+4
 9924 008a 1B88     		ldrh	r3, [r3]
 9925 008c 013B     		subs	r3, r3, #1
 9926 008e 094A     		ldr	r2, .L507
 9927 0090 1288     		ldrh	r2, [r2]
 9928 0092 013A     		subs	r2, r2, #1
 9929 0094 9BB2     		uxth	r3, r3
 9930 0096 92B2     		uxth	r2, r2
 9931 0098 0021     		movs	r1, #0
 9932 009a 0846     		mov	r0, r1
 9933 009c FFF7FEFF 		bl	LCD_SetAddrWindow
 9934              	.LVL668:
 9935              	.L498:
2161:Drivers/display_ILI-93xx_sm/lcd.c **** }
 9936              		.loc 1 2161 1 is_stmt 0 view .LVU3082
 9937 00a0 F8BD     		pop	{r3, r4, r5, r6, r7, pc}
 9938              	.LVL669:
 9939              	.L505:
2142:Drivers/display_ILI-93xx_sm/lcd.c **** 		x = 0;
 9940              		.loc 1 2142 3 is_stmt 1 view .LVU3083
2142:Drivers/display_ILI-93xx_sm/lcd.c **** 		x = 0;
 9941              		.loc 1 2142 5 is_stmt 0 view .LVU3084
 9942 00a2 0FFA8CF7 		sxth	r7, ip
 9943              	.LVL670:
2143:Drivers/display_ILI-93xx_sm/lcd.c **** 	}
 9944              		.loc 1 2143 3 is_stmt 1 view .LVU3085
2143:Drivers/display_ILI-93xx_sm/lcd.c **** 	}
 9945              		.loc 1 2143 5 is_stmt 0 view .LVU3086
 9946 00a6 0020     		movs	r0, #0
 9947 00a8 CEE7     		b	.L500
 9948              	.LVL671:
 9949              	.L506:
2146:Drivers/display_ILI-93xx_sm/lcd.c **** 		y1 = 0;
 9950              		.loc 1 2146 3 is_stmt 1 view .LVU3087
2146:Drivers/display_ILI-93xx_sm/lcd.c **** 		y1 = 0;
 9951              		.loc 1 2146 5 is_stmt 0 view .LVU3088
 9952 00aa 0FFA8EF4 		sxth	r4, lr
 9953              	.LVL672:
2147:Drivers/display_ILI-93xx_sm/lcd.c **** 	}
 9954              		.loc 1 2147 3 is_stmt 1 view .LVU3089
2147:Drivers/display_ILI-93xx_sm/lcd.c **** 	}
 9955              		.loc 1 2147 6 is_stmt 0 view .LVU3090
 9956 00ae 0021     		movs	r1, #0
ARM GAS  /tmp/cc47Teva.s 			page 258


 9957 00b0 CCE7     		b	.L501
 9958              	.L508:
 9959 00b2 00BF     		.align	2
 9960              	.L507:
 9961 00b4 00000000 		.word	.LANCHOR0
 9962 00b8 00000000 		.word	.LANCHOR1
 9963              		.cfi_endproc
 9964              	.LFE91:
 9966              		.section	.text.LCD_DrawCircle,"ax",%progbits
 9967              		.align	1
 9968              		.global	LCD_DrawCircle
 9969              		.syntax unified
 9970              		.thumb
 9971              		.thumb_func
 9972              		.fpu softvfp
 9974              	LCD_DrawCircle:
 9975              	.LVL673:
 9976              	.LFB92:
2162:Drivers/display_ILI-93xx_sm/lcd.c **** 
2163:Drivers/display_ILI-93xx_sm/lcd.c **** /**
2164:Drivers/display_ILI-93xx_sm/lcd.c ****  * \brief Draws an circle defined by a pair of coordinates and radius
2165:Drivers/display_ILI-93xx_sm/lcd.c ****  *
2166:Drivers/display_ILI-93xx_sm/lcd.c ****  * \param x0		The x-coordinate
2167:Drivers/display_ILI-93xx_sm/lcd.c ****  * \param y0		The y-coordinate
2168:Drivers/display_ILI-93xx_sm/lcd.c ****  * \param r			Radius
2169:Drivers/display_ILI-93xx_sm/lcd.c ****  * \param color		Color
2170:Drivers/display_ILI-93xx_sm/lcd.c ****  *
2171:Drivers/display_ILI-93xx_sm/lcd.c ****  * \return void
2172:Drivers/display_ILI-93xx_sm/lcd.c ****  */
2173:Drivers/display_ILI-93xx_sm/lcd.c **** void LCD_DrawCircle(int16_t x0, int16_t y0, int16_t r, uint16_t color) {
 9977              		.loc 1 2173 72 is_stmt 1 view -0
 9978              		.cfi_startproc
 9979              		@ args = 0, pretend = 0, frame = 24
 9980              		@ frame_needed = 0, uses_anonymous_args = 0
 9981              		.loc 1 2173 72 is_stmt 0 view .LVU3092
 9982 0000 2DE9F04F 		push	{r4, r5, r6, r7, r8, r9, r10, fp, lr}
 9983              	.LCFI34:
 9984              		.cfi_def_cfa_offset 36
 9985              		.cfi_offset 4, -36
 9986              		.cfi_offset 5, -32
 9987              		.cfi_offset 6, -28
 9988              		.cfi_offset 7, -24
 9989              		.cfi_offset 8, -20
 9990              		.cfi_offset 9, -16
 9991              		.cfi_offset 10, -12
 9992              		.cfi_offset 11, -8
 9993              		.cfi_offset 14, -4
 9994 0004 87B0     		sub	sp, sp, #28
 9995              	.LCFI35:
 9996              		.cfi_def_cfa_offset 64
 9997 0006 8246     		mov	r10, r0
 9998 0008 0E46     		mov	r6, r1
 9999 000a 0292     		str	r2, [sp, #8]
 10000 000c 1F46     		mov	r7, r3
 10001 000e 0193     		str	r3, [sp, #4]
2174:Drivers/display_ILI-93xx_sm/lcd.c **** 	int16_t f = 1 - r;
 10002              		.loc 1 2174 2 is_stmt 1 view .LVU3093
ARM GAS  /tmp/cc47Teva.s 			page 259


 10003              		.loc 1 2174 16 is_stmt 0 view .LVU3094
 10004 0010 95B2     		uxth	r5, r2
 10005 0012 C5F10104 		rsb	r4, r5, #1
 10006              		.loc 1 2174 10 view .LVU3095
 10007 0016 24B2     		sxth	r4, r4
 10008              	.LVL674:
2175:Drivers/display_ILI-93xx_sm/lcd.c **** 	int16_t ddF_x = 1;
 10009              		.loc 1 2175 2 is_stmt 1 view .LVU3096
2176:Drivers/display_ILI-93xx_sm/lcd.c **** 	int16_t ddF_y = -2 * r;
 10010              		.loc 1 2176 2 view .LVU3097
 10011              		.loc 1 2176 21 is_stmt 0 view .LVU3098
 10012 0018 C5EBC532 		rsb	r2, r5, r5, lsl #15
 10013              	.LVL675:
 10014              		.loc 1 2176 21 view .LVU3099
 10015 001c 5300     		lsls	r3, r2, #1
 10016              	.LVL676:
 10017              		.loc 1 2176 10 view .LVU3100
 10018 001e 1AB2     		sxth	r2, r3
 10019 0020 0592     		str	r2, [sp, #20]
 10020              	.LVL677:
2177:Drivers/display_ILI-93xx_sm/lcd.c **** 	int16_t x = 0;
 10021              		.loc 1 2177 2 is_stmt 1 view .LVU3101
2178:Drivers/display_ILI-93xx_sm/lcd.c **** 	int16_t y = r;
 10022              		.loc 1 2178 2 view .LVU3102
2179:Drivers/display_ILI-93xx_sm/lcd.c **** 
2180:Drivers/display_ILI-93xx_sm/lcd.c **** 	LCD_DrawPixel(x0, y0 + r, color);
 10023              		.loc 1 2180 2 view .LVU3103
 10024              		.loc 1 2180 23 is_stmt 0 view .LVU3104
 10025 0022 1FFA81FB 		uxth	fp, r1
 10026 0026 05EB0B01 		add	r1, r5, fp
 10027              	.LVL678:
 10028              		.loc 1 2180 2 view .LVU3105
 10029 002a 3A46     		mov	r2, r7
 10030 002c 09B2     		sxth	r1, r1
 10031 002e FFF7FEFF 		bl	LCD_DrawPixel
 10032              	.LVL679:
2181:Drivers/display_ILI-93xx_sm/lcd.c **** 	LCD_DrawPixel(x0, y0 - r, color);
 10033              		.loc 1 2181 2 is_stmt 1 view .LVU3106
 10034              		.loc 1 2181 23 is_stmt 0 view .LVU3107
 10035 0032 ABEB0501 		sub	r1, fp, r5
 10036              		.loc 1 2181 2 view .LVU3108
 10037 0036 3A46     		mov	r2, r7
 10038 0038 09B2     		sxth	r1, r1
 10039 003a 5046     		mov	r0, r10
 10040 003c FFF7FEFF 		bl	LCD_DrawPixel
 10041              	.LVL680:
2182:Drivers/display_ILI-93xx_sm/lcd.c **** 	LCD_DrawPixel(x0 + r, y0, color);
 10042              		.loc 1 2182 2 is_stmt 1 view .LVU3109
 10043              		.loc 1 2182 19 is_stmt 0 view .LVU3110
 10044 0040 1FFA8AFA 		uxth	r10, r10
 10045 0044 05EB0A00 		add	r0, r5, r10
 10046              		.loc 1 2182 2 view .LVU3111
 10047 0048 3A46     		mov	r2, r7
 10048 004a 3146     		mov	r1, r6
 10049 004c 00B2     		sxth	r0, r0
 10050 004e FFF7FEFF 		bl	LCD_DrawPixel
 10051              	.LVL681:
ARM GAS  /tmp/cc47Teva.s 			page 260


2183:Drivers/display_ILI-93xx_sm/lcd.c **** 	LCD_DrawPixel(x0 - r, y0, color);
 10052              		.loc 1 2183 2 is_stmt 1 view .LVU3112
 10053              		.loc 1 2183 19 is_stmt 0 view .LVU3113
 10054 0052 AAEB0500 		sub	r0, r10, r5
 10055              		.loc 1 2183 2 view .LVU3114
 10056 0056 3A46     		mov	r2, r7
 10057 0058 3146     		mov	r1, r6
 10058 005a 00B2     		sxth	r0, r0
 10059 005c FFF7FEFF 		bl	LCD_DrawPixel
 10060              	.LVL682:
2184:Drivers/display_ILI-93xx_sm/lcd.c **** 
2185:Drivers/display_ILI-93xx_sm/lcd.c **** 	while (x < y) {
 10061              		.loc 1 2185 2 is_stmt 1 view .LVU3115
2177:Drivers/display_ILI-93xx_sm/lcd.c **** 	int16_t y = r;
 10062              		.loc 1 2177 10 is_stmt 0 view .LVU3116
 10063 0060 4FF00009 		mov	r9, #0
2175:Drivers/display_ILI-93xx_sm/lcd.c **** 	int16_t ddF_y = -2 * r;
 10064              		.loc 1 2175 10 view .LVU3117
 10065 0064 0123     		movs	r3, #1
 10066 0066 0393     		str	r3, [sp, #12]
 10067              		.loc 1 2185 8 view .LVU3118
 10068 0068 53E0     		b	.L510
 10069              	.LVL683:
 10070              	.L511:
2186:Drivers/display_ILI-93xx_sm/lcd.c **** 		if (f >= 0) {
2187:Drivers/display_ILI-93xx_sm/lcd.c **** 			y--;
2188:Drivers/display_ILI-93xx_sm/lcd.c **** 			ddF_y += 2;
2189:Drivers/display_ILI-93xx_sm/lcd.c **** 			f += ddF_y;
2190:Drivers/display_ILI-93xx_sm/lcd.c **** 		}
2191:Drivers/display_ILI-93xx_sm/lcd.c **** 		x++;
 10071              		.loc 1 2191 3 is_stmt 1 view .LVU3119
 10072              		.loc 1 2191 4 is_stmt 0 view .LVU3120
 10073 006a 09F10105 		add	r5, r9, #1
 10074 006e ADB2     		uxth	r5, r5
 10075 0070 0FFA85F9 		sxth	r9, r5
 10076              	.LVL684:
2192:Drivers/display_ILI-93xx_sm/lcd.c **** 		ddF_x += 2;
 10077              		.loc 1 2192 3 is_stmt 1 view .LVU3121
 10078              		.loc 1 2192 9 is_stmt 0 view .LVU3122
 10079 0074 039B     		ldr	r3, [sp, #12]
 10080 0076 0233     		adds	r3, r3, #2
 10081 0078 9BB2     		uxth	r3, r3
 10082 007a 1AB2     		sxth	r2, r3
 10083 007c 0392     		str	r2, [sp, #12]
 10084              	.LVL685:
2193:Drivers/display_ILI-93xx_sm/lcd.c **** 		f += ddF_x;
 10085              		.loc 1 2193 3 is_stmt 1 view .LVU3123
 10086              		.loc 1 2193 5 is_stmt 0 view .LVU3124
 10087 007e 1C44     		add	r4, r4, r3
 10088              	.LVL686:
 10089              		.loc 1 2193 5 view .LVU3125
 10090 0080 24B2     		sxth	r4, r4
 10091              	.LVL687:
2194:Drivers/display_ILI-93xx_sm/lcd.c **** 
2195:Drivers/display_ILI-93xx_sm/lcd.c **** 		LCD_DrawPixel(x0 + x, y0 + y, color);
 10092              		.loc 1 2195 3 is_stmt 1 view .LVU3126
 10093              		.loc 1 2195 20 is_stmt 0 view .LVU3127
ARM GAS  /tmp/cc47Teva.s 			page 261


 10094 0082 0AEB0503 		add	r3, r10, r5
 10095              		.loc 1 2195 3 view .LVU3128
 10096 0086 1BB2     		sxth	r3, r3
 10097              		.loc 1 2195 28 view .LVU3129
 10098 0088 BDF80860 		ldrh	r6, [sp, #8]
 10099 008c 0BEB0608 		add	r8, fp, r6
 10100              		.loc 1 2195 3 view .LVU3130
 10101 0090 0FFA88F8 		sxth	r8, r8
 10102 0094 019A     		ldr	r2, [sp, #4]
 10103 0096 4146     		mov	r1, r8
 10104 0098 0493     		str	r3, [sp, #16]
 10105 009a 1846     		mov	r0, r3
 10106 009c FFF7FEFF 		bl	LCD_DrawPixel
 10107              	.LVL688:
2196:Drivers/display_ILI-93xx_sm/lcd.c **** 		LCD_DrawPixel(x0 - x, y0 + y, color);
 10108              		.loc 1 2196 3 is_stmt 1 view .LVU3131
 10109              		.loc 1 2196 20 is_stmt 0 view .LVU3132
 10110 00a0 AAEB0507 		sub	r7, r10, r5
 10111              		.loc 1 2196 3 view .LVU3133
 10112 00a4 3FB2     		sxth	r7, r7
 10113 00a6 019A     		ldr	r2, [sp, #4]
 10114 00a8 4146     		mov	r1, r8
 10115 00aa 3846     		mov	r0, r7
 10116 00ac FFF7FEFF 		bl	LCD_DrawPixel
 10117              	.LVL689:
2197:Drivers/display_ILI-93xx_sm/lcd.c **** 		LCD_DrawPixel(x0 + x, y0 - y, color);
 10118              		.loc 1 2197 3 is_stmt 1 view .LVU3134
 10119              		.loc 1 2197 28 is_stmt 0 view .LVU3135
 10120 00b0 ABEB0608 		sub	r8, fp, r6
 10121              		.loc 1 2197 3 view .LVU3136
 10122 00b4 0FFA88F8 		sxth	r8, r8
 10123 00b8 019A     		ldr	r2, [sp, #4]
 10124 00ba 4146     		mov	r1, r8
 10125 00bc 0498     		ldr	r0, [sp, #16]
 10126 00be FFF7FEFF 		bl	LCD_DrawPixel
 10127              	.LVL690:
2198:Drivers/display_ILI-93xx_sm/lcd.c **** 		LCD_DrawPixel(x0 - x, y0 - y, color);
 10128              		.loc 1 2198 3 is_stmt 1 view .LVU3137
 10129 00c2 019A     		ldr	r2, [sp, #4]
 10130 00c4 4146     		mov	r1, r8
 10131 00c6 3846     		mov	r0, r7
 10132 00c8 FFF7FEFF 		bl	LCD_DrawPixel
 10133              	.LVL691:
2199:Drivers/display_ILI-93xx_sm/lcd.c **** 		LCD_DrawPixel(x0 + y, y0 + x, color);
 10134              		.loc 1 2199 3 view .LVU3138
 10135              		.loc 1 2199 20 is_stmt 0 view .LVU3139
 10136 00cc 0AEB0607 		add	r7, r10, r6
 10137              		.loc 1 2199 3 view .LVU3140
 10138 00d0 3FB2     		sxth	r7, r7
 10139              		.loc 1 2199 28 view .LVU3141
 10140 00d2 0BEB0508 		add	r8, fp, r5
 10141              		.loc 1 2199 3 view .LVU3142
 10142 00d6 0FFA88F8 		sxth	r8, r8
 10143 00da 019A     		ldr	r2, [sp, #4]
 10144 00dc 4146     		mov	r1, r8
 10145 00de 3846     		mov	r0, r7
 10146 00e0 FFF7FEFF 		bl	LCD_DrawPixel
ARM GAS  /tmp/cc47Teva.s 			page 262


 10147              	.LVL692:
2200:Drivers/display_ILI-93xx_sm/lcd.c **** 		LCD_DrawPixel(x0 - y, y0 + x, color);
 10148              		.loc 1 2200 3 is_stmt 1 view .LVU3143
 10149              		.loc 1 2200 20 is_stmt 0 view .LVU3144
 10150 00e4 AAEB0606 		sub	r6, r10, r6
 10151              		.loc 1 2200 3 view .LVU3145
 10152 00e8 36B2     		sxth	r6, r6
 10153 00ea 019A     		ldr	r2, [sp, #4]
 10154 00ec 4146     		mov	r1, r8
 10155 00ee 3046     		mov	r0, r6
 10156 00f0 FFF7FEFF 		bl	LCD_DrawPixel
 10157              	.LVL693:
2201:Drivers/display_ILI-93xx_sm/lcd.c **** 		LCD_DrawPixel(x0 + y, y0 - x, color);
 10158              		.loc 1 2201 3 is_stmt 1 view .LVU3146
 10159              		.loc 1 2201 28 is_stmt 0 view .LVU3147
 10160 00f4 ABEB0505 		sub	r5, fp, r5
 10161              		.loc 1 2201 3 view .LVU3148
 10162 00f8 2DB2     		sxth	r5, r5
 10163 00fa DDF80480 		ldr	r8, [sp, #4]
 10164 00fe 4246     		mov	r2, r8
 10165 0100 2946     		mov	r1, r5
 10166 0102 3846     		mov	r0, r7
 10167 0104 FFF7FEFF 		bl	LCD_DrawPixel
 10168              	.LVL694:
2202:Drivers/display_ILI-93xx_sm/lcd.c **** 		LCD_DrawPixel(x0 - y, y0 - x, color);
 10169              		.loc 1 2202 3 is_stmt 1 view .LVU3149
 10170 0108 4246     		mov	r2, r8
 10171 010a 2946     		mov	r1, r5
 10172 010c 3046     		mov	r0, r6
 10173 010e FFF7FEFF 		bl	LCD_DrawPixel
 10174              	.LVL695:
 10175              	.L510:
2185:Drivers/display_ILI-93xx_sm/lcd.c **** 		if (f >= 0) {
 10176              		.loc 1 2185 8 is_stmt 0 view .LVU3150
 10177 0112 029B     		ldr	r3, [sp, #8]
 10178 0114 9945     		cmp	r9, r3
 10179 0116 0DDA     		bge	.L514
2186:Drivers/display_ILI-93xx_sm/lcd.c **** 			y--;
 10180              		.loc 1 2186 3 is_stmt 1 view .LVU3151
2186:Drivers/display_ILI-93xx_sm/lcd.c **** 			y--;
 10181              		.loc 1 2186 6 is_stmt 0 view .LVU3152
 10182 0118 002C     		cmp	r4, #0
 10183 011a A6DB     		blt	.L511
2187:Drivers/display_ILI-93xx_sm/lcd.c **** 			ddF_y += 2;
 10184              		.loc 1 2187 4 is_stmt 1 view .LVU3153
2187:Drivers/display_ILI-93xx_sm/lcd.c **** 			ddF_y += 2;
 10185              		.loc 1 2187 5 is_stmt 0 view .LVU3154
 10186 011c 029B     		ldr	r3, [sp, #8]
 10187 011e 013B     		subs	r3, r3, #1
 10188 0120 1BB2     		sxth	r3, r3
 10189 0122 0293     		str	r3, [sp, #8]
 10190              	.LVL696:
2188:Drivers/display_ILI-93xx_sm/lcd.c **** 			f += ddF_y;
 10191              		.loc 1 2188 4 is_stmt 1 view .LVU3155
2188:Drivers/display_ILI-93xx_sm/lcd.c **** 			f += ddF_y;
 10192              		.loc 1 2188 10 is_stmt 0 view .LVU3156
 10193 0124 059B     		ldr	r3, [sp, #20]
ARM GAS  /tmp/cc47Teva.s 			page 263


 10194 0126 0233     		adds	r3, r3, #2
 10195 0128 9BB2     		uxth	r3, r3
 10196 012a 1AB2     		sxth	r2, r3
 10197 012c 0592     		str	r2, [sp, #20]
 10198              	.LVL697:
2189:Drivers/display_ILI-93xx_sm/lcd.c **** 		}
 10199              		.loc 1 2189 4 is_stmt 1 view .LVU3157
2189:Drivers/display_ILI-93xx_sm/lcd.c **** 		}
 10200              		.loc 1 2189 6 is_stmt 0 view .LVU3158
 10201 012e 1C44     		add	r4, r4, r3
 10202              	.LVL698:
2189:Drivers/display_ILI-93xx_sm/lcd.c **** 		}
 10203              		.loc 1 2189 6 view .LVU3159
 10204 0130 24B2     		sxth	r4, r4
 10205              	.LVL699:
2189:Drivers/display_ILI-93xx_sm/lcd.c **** 		}
 10206              		.loc 1 2189 6 view .LVU3160
 10207 0132 9AE7     		b	.L511
 10208              	.L514:
2203:Drivers/display_ILI-93xx_sm/lcd.c **** 	}
2204:Drivers/display_ILI-93xx_sm/lcd.c **** }
 10209              		.loc 1 2204 1 view .LVU3161
 10210 0134 07B0     		add	sp, sp, #28
 10211              	.LCFI36:
 10212              		.cfi_def_cfa_offset 36
 10213              		@ sp needed
 10214 0136 BDE8F08F 		pop	{r4, r5, r6, r7, r8, r9, r10, fp, pc}
 10215              		.loc 1 2204 1 view .LVU3162
 10216              		.cfi_endproc
 10217              	.LFE92:
 10219              		.section	.text.LCD_DrawCircleHelper,"ax",%progbits
 10220              		.align	1
 10221              		.global	LCD_DrawCircleHelper
 10222              		.syntax unified
 10223              		.thumb
 10224              		.thumb_func
 10225              		.fpu softvfp
 10227              	LCD_DrawCircleHelper:
 10228              	.LVL700:
 10229              	.LFB93:
2205:Drivers/display_ILI-93xx_sm/lcd.c **** 
2206:Drivers/display_ILI-93xx_sm/lcd.c **** /**
2207:Drivers/display_ILI-93xx_sm/lcd.c ****  * \brief Helper function drawing rounded corners
2208:Drivers/display_ILI-93xx_sm/lcd.c ****  *
2209:Drivers/display_ILI-93xx_sm/lcd.c ****  * \param x0			The x-coordinate
2210:Drivers/display_ILI-93xx_sm/lcd.c ****  * \param y0			The y-coordinate
2211:Drivers/display_ILI-93xx_sm/lcd.c ****  * \param r				Radius
2212:Drivers/display_ILI-93xx_sm/lcd.c ****  * \param cornername	Corner (1, 2, 3, 4)
2213:Drivers/display_ILI-93xx_sm/lcd.c ****  * \param color			Color
2214:Drivers/display_ILI-93xx_sm/lcd.c ****  *
2215:Drivers/display_ILI-93xx_sm/lcd.c ****  * \return void
2216:Drivers/display_ILI-93xx_sm/lcd.c ****  */
2217:Drivers/display_ILI-93xx_sm/lcd.c **** void LCD_DrawCircleHelper(int16_t x0, int16_t y0, int16_t r, uint8_t cornername, uint16_t color) {
 10230              		.loc 1 2217 98 is_stmt 1 view -0
 10231              		.cfi_startproc
 10232              		@ args = 4, pretend = 0, frame = 24
 10233              		@ frame_needed = 0, uses_anonymous_args = 0
ARM GAS  /tmp/cc47Teva.s 			page 264


 10234              		.loc 1 2217 98 is_stmt 0 view .LVU3164
 10235 0000 2DE9F04F 		push	{r4, r5, r6, r7, r8, r9, r10, fp, lr}
 10236              	.LCFI37:
 10237              		.cfi_def_cfa_offset 36
 10238              		.cfi_offset 4, -36
 10239              		.cfi_offset 5, -32
 10240              		.cfi_offset 6, -28
 10241              		.cfi_offset 7, -24
 10242              		.cfi_offset 8, -20
 10243              		.cfi_offset 9, -16
 10244              		.cfi_offset 10, -12
 10245              		.cfi_offset 11, -8
 10246              		.cfi_offset 14, -4
 10247 0004 87B0     		sub	sp, sp, #28
 10248              	.LCFI38:
 10249              		.cfi_def_cfa_offset 64
 10250 0006 0390     		str	r0, [sp, #12]
 10251 0008 0491     		str	r1, [sp, #16]
 10252 000a 1746     		mov	r7, r2
 10253 000c 9846     		mov	r8, r3
 10254 000e BDF84030 		ldrh	r3, [sp, #64]
 10255              	.LVL701:
 10256              		.loc 1 2217 98 view .LVU3165
 10257 0012 0193     		str	r3, [sp, #4]
2218:Drivers/display_ILI-93xx_sm/lcd.c **** 	int16_t f = 1 - r;
 10258              		.loc 1 2218 2 is_stmt 1 view .LVU3166
 10259              		.loc 1 2218 16 is_stmt 0 view .LVU3167
 10260 0014 93B2     		uxth	r3, r2
 10261 0016 C3F10104 		rsb	r4, r3, #1
 10262              		.loc 1 2218 10 view .LVU3168
 10263 001a 24B2     		sxth	r4, r4
 10264              	.LVL702:
2219:Drivers/display_ILI-93xx_sm/lcd.c **** 	int16_t ddF_x = 1;
 10265              		.loc 1 2219 2 is_stmt 1 view .LVU3169
2220:Drivers/display_ILI-93xx_sm/lcd.c **** 	int16_t ddF_y = -2 * r;
 10266              		.loc 1 2220 2 view .LVU3170
 10267              		.loc 1 2220 21 is_stmt 0 view .LVU3171
 10268 001c C3EBC333 		rsb	r3, r3, r3, lsl #15
 10269 0020 5A00     		lsls	r2, r3, #1
 10270              	.LVL703:
 10271              		.loc 1 2220 10 view .LVU3172
 10272 0022 13B2     		sxth	r3, r2
 10273 0024 0593     		str	r3, [sp, #20]
 10274              	.LVL704:
2221:Drivers/display_ILI-93xx_sm/lcd.c **** 	int16_t x = 0;
 10275              		.loc 1 2221 2 is_stmt 1 view .LVU3173
2222:Drivers/display_ILI-93xx_sm/lcd.c **** 	int16_t y = r;
 10276              		.loc 1 2222 2 view .LVU3174
2223:Drivers/display_ILI-93xx_sm/lcd.c **** 
2224:Drivers/display_ILI-93xx_sm/lcd.c **** 	while (x < y) {
 10277              		.loc 1 2224 2 view .LVU3175
2221:Drivers/display_ILI-93xx_sm/lcd.c **** 	int16_t y = r;
 10278              		.loc 1 2221 10 is_stmt 0 view .LVU3176
 10279 0026 0026     		movs	r6, #0
2219:Drivers/display_ILI-93xx_sm/lcd.c **** 	int16_t ddF_y = -2 * r;
 10280              		.loc 1 2219 10 view .LVU3177
 10281 0028 0123     		movs	r3, #1
ARM GAS  /tmp/cc47Teva.s 			page 265


 10282 002a 0293     		str	r3, [sp, #8]
 10283              		.loc 1 2224 8 view .LVU3178
 10284 002c 15E0     		b	.L516
 10285              	.LVL705:
 10286              	.L517:
2225:Drivers/display_ILI-93xx_sm/lcd.c **** 		if (f >= 0) {
2226:Drivers/display_ILI-93xx_sm/lcd.c **** 			y--;
2227:Drivers/display_ILI-93xx_sm/lcd.c **** 			ddF_y += 2;
2228:Drivers/display_ILI-93xx_sm/lcd.c **** 			f += ddF_y;
2229:Drivers/display_ILI-93xx_sm/lcd.c **** 		}
2230:Drivers/display_ILI-93xx_sm/lcd.c **** 		x++;
 10287              		.loc 1 2230 3 is_stmt 1 view .LVU3179
 10288              		.loc 1 2230 4 is_stmt 0 view .LVU3180
 10289 002e 0136     		adds	r6, r6, #1
 10290              	.LVL706:
 10291              		.loc 1 2230 4 view .LVU3181
 10292 0030 B5B2     		uxth	r5, r6
 10293 0032 2EB2     		sxth	r6, r5
 10294              	.LVL707:
2231:Drivers/display_ILI-93xx_sm/lcd.c **** 		ddF_x += 2;
 10295              		.loc 1 2231 3 is_stmt 1 view .LVU3182
 10296              		.loc 1 2231 9 is_stmt 0 view .LVU3183
 10297 0034 029B     		ldr	r3, [sp, #8]
 10298 0036 0233     		adds	r3, r3, #2
 10299 0038 9BB2     		uxth	r3, r3
 10300 003a 1AB2     		sxth	r2, r3
 10301 003c 0292     		str	r2, [sp, #8]
 10302              	.LVL708:
2232:Drivers/display_ILI-93xx_sm/lcd.c **** 		f += ddF_x;
 10303              		.loc 1 2232 3 is_stmt 1 view .LVU3184
 10304              		.loc 1 2232 5 is_stmt 0 view .LVU3185
 10305 003e 1C44     		add	r4, r4, r3
 10306              	.LVL709:
 10307              		.loc 1 2232 5 view .LVU3186
 10308 0040 24B2     		sxth	r4, r4
 10309              	.LVL710:
2233:Drivers/display_ILI-93xx_sm/lcd.c **** 		if (cornername & 0x4) {
 10310              		.loc 1 2233 3 is_stmt 1 view .LVU3187
 10311              		.loc 1 2233 6 is_stmt 0 view .LVU3188
 10312 0042 18F0040F 		tst	r8, #4
 10313 0046 16D1     		bne	.L524
 10314              	.L518:
2234:Drivers/display_ILI-93xx_sm/lcd.c **** 			LCD_DrawPixel(x0 + x, y0 + y, color);
2235:Drivers/display_ILI-93xx_sm/lcd.c **** 			LCD_DrawPixel(x0 + y, y0 + x, color);
2236:Drivers/display_ILI-93xx_sm/lcd.c **** 		}
2237:Drivers/display_ILI-93xx_sm/lcd.c **** 		if (cornername & 0x2) {
 10315              		.loc 1 2237 3 is_stmt 1 view .LVU3189
 10316              		.loc 1 2237 6 is_stmt 0 view .LVU3190
 10317 0048 18F0020F 		tst	r8, #2
 10318 004c 2CD1     		bne	.L525
 10319              	.L519:
2238:Drivers/display_ILI-93xx_sm/lcd.c **** 			LCD_DrawPixel(x0 + x, y0 - y, color);
2239:Drivers/display_ILI-93xx_sm/lcd.c **** 			LCD_DrawPixel(x0 + y, y0 - x, color);
2240:Drivers/display_ILI-93xx_sm/lcd.c **** 		}
2241:Drivers/display_ILI-93xx_sm/lcd.c **** 		if (cornername & 0x8) {
 10320              		.loc 1 2241 3 is_stmt 1 view .LVU3191
 10321              		.loc 1 2241 6 is_stmt 0 view .LVU3192
ARM GAS  /tmp/cc47Teva.s 			page 266


 10322 004e 18F0080F 		tst	r8, #8
 10323 0052 42D1     		bne	.L526
 10324              	.L520:
2242:Drivers/display_ILI-93xx_sm/lcd.c **** 			LCD_DrawPixel(x0 - y, y0 + x, color);
2243:Drivers/display_ILI-93xx_sm/lcd.c **** 			LCD_DrawPixel(x0 - x, y0 + y, color);
2244:Drivers/display_ILI-93xx_sm/lcd.c **** 		}
2245:Drivers/display_ILI-93xx_sm/lcd.c **** 		if (cornername & 0x1) {
 10325              		.loc 1 2245 3 is_stmt 1 view .LVU3193
 10326              		.loc 1 2245 6 is_stmt 0 view .LVU3194
 10327 0054 18F0010F 		tst	r8, #1
 10328 0058 58D1     		bne	.L527
 10329              	.LVL711:
 10330              	.L516:
2224:Drivers/display_ILI-93xx_sm/lcd.c **** 		if (f >= 0) {
 10331              		.loc 1 2224 8 view .LVU3195
 10332 005a BE42     		cmp	r6, r7
 10333 005c 6FDA     		bge	.L528
2225:Drivers/display_ILI-93xx_sm/lcd.c **** 			y--;
 10334              		.loc 1 2225 3 is_stmt 1 view .LVU3196
2225:Drivers/display_ILI-93xx_sm/lcd.c **** 			y--;
 10335              		.loc 1 2225 6 is_stmt 0 view .LVU3197
 10336 005e 002C     		cmp	r4, #0
 10337 0060 E5DB     		blt	.L517
2226:Drivers/display_ILI-93xx_sm/lcd.c **** 			ddF_y += 2;
 10338              		.loc 1 2226 4 is_stmt 1 view .LVU3198
2226:Drivers/display_ILI-93xx_sm/lcd.c **** 			ddF_y += 2;
 10339              		.loc 1 2226 5 is_stmt 0 view .LVU3199
 10340 0062 013F     		subs	r7, r7, #1
 10341              	.LVL712:
2226:Drivers/display_ILI-93xx_sm/lcd.c **** 			ddF_y += 2;
 10342              		.loc 1 2226 5 view .LVU3200
 10343 0064 3FB2     		sxth	r7, r7
 10344              	.LVL713:
2227:Drivers/display_ILI-93xx_sm/lcd.c **** 			f += ddF_y;
 10345              		.loc 1 2227 4 is_stmt 1 view .LVU3201
2227:Drivers/display_ILI-93xx_sm/lcd.c **** 			f += ddF_y;
 10346              		.loc 1 2227 10 is_stmt 0 view .LVU3202
 10347 0066 059B     		ldr	r3, [sp, #20]
 10348 0068 0233     		adds	r3, r3, #2
 10349 006a 9BB2     		uxth	r3, r3
 10350 006c 1AB2     		sxth	r2, r3
 10351 006e 0592     		str	r2, [sp, #20]
 10352              	.LVL714:
2228:Drivers/display_ILI-93xx_sm/lcd.c **** 		}
 10353              		.loc 1 2228 4 is_stmt 1 view .LVU3203
2228:Drivers/display_ILI-93xx_sm/lcd.c **** 		}
 10354              		.loc 1 2228 6 is_stmt 0 view .LVU3204
 10355 0070 1C44     		add	r4, r4, r3
 10356              	.LVL715:
2228:Drivers/display_ILI-93xx_sm/lcd.c **** 		}
 10357              		.loc 1 2228 6 view .LVU3205
 10358 0072 24B2     		sxth	r4, r4
 10359              	.LVL716:
2228:Drivers/display_ILI-93xx_sm/lcd.c **** 		}
 10360              		.loc 1 2228 6 view .LVU3206
 10361 0074 DBE7     		b	.L517
 10362              	.L524:
ARM GAS  /tmp/cc47Teva.s 			page 267


2234:Drivers/display_ILI-93xx_sm/lcd.c **** 			LCD_DrawPixel(x0 + y, y0 + x, color);
 10363              		.loc 1 2234 4 is_stmt 1 view .LVU3207
2234:Drivers/display_ILI-93xx_sm/lcd.c **** 			LCD_DrawPixel(x0 + y, y0 + x, color);
 10364              		.loc 1 2234 21 is_stmt 0 view .LVU3208
 10365 0076 BDF80CA0 		ldrh	r10, [sp, #12]
 10366 007a 05EB0A00 		add	r0, r5, r10
2234:Drivers/display_ILI-93xx_sm/lcd.c **** 			LCD_DrawPixel(x0 + y, y0 + x, color);
 10367              		.loc 1 2234 29 view .LVU3209
 10368 007e BDF81090 		ldrh	r9, [sp, #16]
 10369 0082 1FFA87FB 		uxth	fp, r7
 10370 0086 09EB0B01 		add	r1, r9, fp
2234:Drivers/display_ILI-93xx_sm/lcd.c **** 			LCD_DrawPixel(x0 + y, y0 + x, color);
 10371              		.loc 1 2234 4 view .LVU3210
 10372 008a 019A     		ldr	r2, [sp, #4]
 10373 008c 09B2     		sxth	r1, r1
 10374 008e 00B2     		sxth	r0, r0
 10375 0090 FFF7FEFF 		bl	LCD_DrawPixel
 10376              	.LVL717:
2235:Drivers/display_ILI-93xx_sm/lcd.c **** 		}
 10377              		.loc 1 2235 4 is_stmt 1 view .LVU3211
2235:Drivers/display_ILI-93xx_sm/lcd.c **** 		}
 10378              		.loc 1 2235 21 is_stmt 0 view .LVU3212
 10379 0094 0AEB0B00 		add	r0, r10, fp
2235:Drivers/display_ILI-93xx_sm/lcd.c **** 		}
 10380              		.loc 1 2235 29 view .LVU3213
 10381 0098 05EB0901 		add	r1, r5, r9
2235:Drivers/display_ILI-93xx_sm/lcd.c **** 		}
 10382              		.loc 1 2235 4 view .LVU3214
 10383 009c 019A     		ldr	r2, [sp, #4]
 10384 009e 09B2     		sxth	r1, r1
 10385 00a0 00B2     		sxth	r0, r0
 10386 00a2 FFF7FEFF 		bl	LCD_DrawPixel
 10387              	.LVL718:
 10388 00a6 CFE7     		b	.L518
 10389              	.L525:
2238:Drivers/display_ILI-93xx_sm/lcd.c **** 			LCD_DrawPixel(x0 + y, y0 - x, color);
 10390              		.loc 1 2238 4 is_stmt 1 view .LVU3215
2238:Drivers/display_ILI-93xx_sm/lcd.c **** 			LCD_DrawPixel(x0 + y, y0 - x, color);
 10391              		.loc 1 2238 21 is_stmt 0 view .LVU3216
 10392 00a8 BDF80CA0 		ldrh	r10, [sp, #12]
 10393 00ac 05EB0A00 		add	r0, r5, r10
2238:Drivers/display_ILI-93xx_sm/lcd.c **** 			LCD_DrawPixel(x0 + y, y0 - x, color);
 10394              		.loc 1 2238 29 view .LVU3217
 10395 00b0 BDF81090 		ldrh	r9, [sp, #16]
 10396 00b4 1FFA87FB 		uxth	fp, r7
 10397 00b8 A9EB0B01 		sub	r1, r9, fp
2238:Drivers/display_ILI-93xx_sm/lcd.c **** 			LCD_DrawPixel(x0 + y, y0 - x, color);
 10398              		.loc 1 2238 4 view .LVU3218
 10399 00bc 019A     		ldr	r2, [sp, #4]
 10400 00be 09B2     		sxth	r1, r1
 10401 00c0 00B2     		sxth	r0, r0
 10402 00c2 FFF7FEFF 		bl	LCD_DrawPixel
 10403              	.LVL719:
2239:Drivers/display_ILI-93xx_sm/lcd.c **** 		}
 10404              		.loc 1 2239 4 is_stmt 1 view .LVU3219
2239:Drivers/display_ILI-93xx_sm/lcd.c **** 		}
 10405              		.loc 1 2239 21 is_stmt 0 view .LVU3220
ARM GAS  /tmp/cc47Teva.s 			page 268


 10406 00c6 0AEB0B00 		add	r0, r10, fp
2239:Drivers/display_ILI-93xx_sm/lcd.c **** 		}
 10407              		.loc 1 2239 29 view .LVU3221
 10408 00ca A9EB0501 		sub	r1, r9, r5
2239:Drivers/display_ILI-93xx_sm/lcd.c **** 		}
 10409              		.loc 1 2239 4 view .LVU3222
 10410 00ce 019A     		ldr	r2, [sp, #4]
 10411 00d0 09B2     		sxth	r1, r1
 10412 00d2 00B2     		sxth	r0, r0
 10413 00d4 FFF7FEFF 		bl	LCD_DrawPixel
 10414              	.LVL720:
 10415 00d8 B9E7     		b	.L519
 10416              	.L526:
2242:Drivers/display_ILI-93xx_sm/lcd.c **** 			LCD_DrawPixel(x0 - x, y0 + y, color);
 10417              		.loc 1 2242 4 is_stmt 1 view .LVU3223
2242:Drivers/display_ILI-93xx_sm/lcd.c **** 			LCD_DrawPixel(x0 - x, y0 + y, color);
 10418              		.loc 1 2242 21 is_stmt 0 view .LVU3224
 10419 00da BDF80C90 		ldrh	r9, [sp, #12]
 10420 00de 1FFA87FA 		uxth	r10, r7
 10421 00e2 A9EB0A00 		sub	r0, r9, r10
2242:Drivers/display_ILI-93xx_sm/lcd.c **** 			LCD_DrawPixel(x0 - x, y0 + y, color);
 10422              		.loc 1 2242 29 view .LVU3225
 10423 00e6 BDF810B0 		ldrh	fp, [sp, #16]
 10424 00ea 05EB0B01 		add	r1, r5, fp
2242:Drivers/display_ILI-93xx_sm/lcd.c **** 			LCD_DrawPixel(x0 - x, y0 + y, color);
 10425              		.loc 1 2242 4 view .LVU3226
 10426 00ee 019A     		ldr	r2, [sp, #4]
 10427 00f0 09B2     		sxth	r1, r1
 10428 00f2 00B2     		sxth	r0, r0
 10429 00f4 FFF7FEFF 		bl	LCD_DrawPixel
 10430              	.LVL721:
2243:Drivers/display_ILI-93xx_sm/lcd.c **** 		}
 10431              		.loc 1 2243 4 is_stmt 1 view .LVU3227
2243:Drivers/display_ILI-93xx_sm/lcd.c **** 		}
 10432              		.loc 1 2243 21 is_stmt 0 view .LVU3228
 10433 00f8 A9EB0500 		sub	r0, r9, r5
2243:Drivers/display_ILI-93xx_sm/lcd.c **** 		}
 10434              		.loc 1 2243 29 view .LVU3229
 10435 00fc 0AEB0B01 		add	r1, r10, fp
2243:Drivers/display_ILI-93xx_sm/lcd.c **** 		}
 10436              		.loc 1 2243 4 view .LVU3230
 10437 0100 019A     		ldr	r2, [sp, #4]
 10438 0102 09B2     		sxth	r1, r1
 10439 0104 00B2     		sxth	r0, r0
 10440 0106 FFF7FEFF 		bl	LCD_DrawPixel
 10441              	.LVL722:
 10442 010a A3E7     		b	.L520
 10443              	.L527:
2246:Drivers/display_ILI-93xx_sm/lcd.c **** 			LCD_DrawPixel(x0 - y, y0 - x, color);
 10444              		.loc 1 2246 4 is_stmt 1 view .LVU3231
 10445              		.loc 1 2246 21 is_stmt 0 view .LVU3232
 10446 010c BDF80C90 		ldrh	r9, [sp, #12]
 10447 0110 1FFA87FB 		uxth	fp, r7
 10448 0114 A9EB0B00 		sub	r0, r9, fp
 10449              		.loc 1 2246 29 view .LVU3233
 10450 0118 BDF810A0 		ldrh	r10, [sp, #16]
 10451 011c AAEB0501 		sub	r1, r10, r5
ARM GAS  /tmp/cc47Teva.s 			page 269


 10452              		.loc 1 2246 4 view .LVU3234
 10453 0120 019A     		ldr	r2, [sp, #4]
 10454 0122 09B2     		sxth	r1, r1
 10455 0124 00B2     		sxth	r0, r0
 10456 0126 FFF7FEFF 		bl	LCD_DrawPixel
 10457              	.LVL723:
2247:Drivers/display_ILI-93xx_sm/lcd.c **** 			LCD_DrawPixel(x0 - x, y0 - y, color);
 10458              		.loc 1 2247 4 is_stmt 1 view .LVU3235
 10459              		.loc 1 2247 21 is_stmt 0 view .LVU3236
 10460 012a A9EB0500 		sub	r0, r9, r5
 10461              		.loc 1 2247 29 view .LVU3237
 10462 012e AAEB0B01 		sub	r1, r10, fp
 10463              		.loc 1 2247 4 view .LVU3238
 10464 0132 019A     		ldr	r2, [sp, #4]
 10465 0134 09B2     		sxth	r1, r1
 10466 0136 00B2     		sxth	r0, r0
 10467 0138 FFF7FEFF 		bl	LCD_DrawPixel
 10468              	.LVL724:
 10469 013c 8DE7     		b	.L516
 10470              	.L528:
2248:Drivers/display_ILI-93xx_sm/lcd.c **** 		}
2249:Drivers/display_ILI-93xx_sm/lcd.c **** 	}
2250:Drivers/display_ILI-93xx_sm/lcd.c **** }
 10471              		.loc 1 2250 1 view .LVU3239
 10472 013e 07B0     		add	sp, sp, #28
 10473              	.LCFI39:
 10474              		.cfi_def_cfa_offset 36
 10475              		@ sp needed
 10476 0140 BDE8F08F 		pop	{r4, r5, r6, r7, r8, r9, r10, fp, pc}
 10477              		.loc 1 2250 1 view .LVU3240
 10478              		.cfi_endproc
 10479              	.LFE93:
 10481              		.section	.text.LCD_FillCircleHelper,"ax",%progbits
 10482              		.align	1
 10483              		.global	LCD_FillCircleHelper
 10484              		.syntax unified
 10485              		.thumb
 10486              		.thumb_func
 10487              		.fpu softvfp
 10489              	LCD_FillCircleHelper:
 10490              	.LVL725:
 10491              	.LFB95:
2251:Drivers/display_ILI-93xx_sm/lcd.c **** 
2252:Drivers/display_ILI-93xx_sm/lcd.c **** /**
2253:Drivers/display_ILI-93xx_sm/lcd.c ****  * \brief Draws a filled circle defined by a pair of coordinates and radius
2254:Drivers/display_ILI-93xx_sm/lcd.c ****  *
2255:Drivers/display_ILI-93xx_sm/lcd.c ****  * \param x0		The x-coordinate
2256:Drivers/display_ILI-93xx_sm/lcd.c ****  * \param y0		The y-coordinate
2257:Drivers/display_ILI-93xx_sm/lcd.c ****  * \param r			Radius
2258:Drivers/display_ILI-93xx_sm/lcd.c ****  * \param color		Color
2259:Drivers/display_ILI-93xx_sm/lcd.c ****  *
2260:Drivers/display_ILI-93xx_sm/lcd.c ****  * \return void
2261:Drivers/display_ILI-93xx_sm/lcd.c ****  */
2262:Drivers/display_ILI-93xx_sm/lcd.c **** void LCD_FillCircle(int16_t x0, int16_t y0, int16_t r, uint16_t color) {
2263:Drivers/display_ILI-93xx_sm/lcd.c **** 	LCD_DrawFastVLine(x0, y0 - r, 2 * r + 1, color);
2264:Drivers/display_ILI-93xx_sm/lcd.c **** 	LCD_FillCircleHelper(x0, y0, r, 3, 0, color);
2265:Drivers/display_ILI-93xx_sm/lcd.c **** }
ARM GAS  /tmp/cc47Teva.s 			page 270


2266:Drivers/display_ILI-93xx_sm/lcd.c **** 
2267:Drivers/display_ILI-93xx_sm/lcd.c **** /**
2268:Drivers/display_ILI-93xx_sm/lcd.c ****  * \brief Helper function to draw a filled circle
2269:Drivers/display_ILI-93xx_sm/lcd.c ****  *
2270:Drivers/display_ILI-93xx_sm/lcd.c ****  * \param x0			The x-coordinate
2271:Drivers/display_ILI-93xx_sm/lcd.c ****  * \param y0			The y-coordinate
2272:Drivers/display_ILI-93xx_sm/lcd.c ****  * \param r				Radius
2273:Drivers/display_ILI-93xx_sm/lcd.c ****  * \param cornername	Corner (1, 2, 3, 4)
2274:Drivers/display_ILI-93xx_sm/lcd.c ****  * \param delta			Delta
2275:Drivers/display_ILI-93xx_sm/lcd.c ****  * \param color			Color
2276:Drivers/display_ILI-93xx_sm/lcd.c ****  *
2277:Drivers/display_ILI-93xx_sm/lcd.c ****  * \return void
2278:Drivers/display_ILI-93xx_sm/lcd.c ****  */
2279:Drivers/display_ILI-93xx_sm/lcd.c **** void LCD_FillCircleHelper(int16_t x0, int16_t y0, int16_t r, uint8_t cornername, int16_t delta, uin
 10492              		.loc 1 2279 113 is_stmt 1 view -0
 10493              		.cfi_startproc
 10494              		@ args = 8, pretend = 0, frame = 32
 10495              		@ frame_needed = 0, uses_anonymous_args = 0
 10496              		.loc 1 2279 113 is_stmt 0 view .LVU3242
 10497 0000 2DE9F04F 		push	{r4, r5, r6, r7, r8, r9, r10, fp, lr}
 10498              	.LCFI40:
 10499              		.cfi_def_cfa_offset 36
 10500              		.cfi_offset 4, -36
 10501              		.cfi_offset 5, -32
 10502              		.cfi_offset 6, -28
 10503              		.cfi_offset 7, -24
 10504              		.cfi_offset 8, -20
 10505              		.cfi_offset 9, -16
 10506              		.cfi_offset 10, -12
 10507              		.cfi_offset 11, -8
 10508              		.cfi_offset 14, -4
 10509 0004 89B0     		sub	sp, sp, #36
 10510              	.LCFI41:
 10511              		.cfi_def_cfa_offset 72
 10512 0006 0390     		str	r0, [sp, #12]
 10513 0008 0491     		str	r1, [sp, #16]
 10514 000a 1746     		mov	r7, r2
 10515 000c 9B46     		mov	fp, r3
 10516 000e BDF94830 		ldrsh	r3, [sp, #72]
 10517              	.LVL726:
 10518              		.loc 1 2279 113 view .LVU3243
 10519 0012 0593     		str	r3, [sp, #20]
 10520 0014 BDF84C30 		ldrh	r3, [sp, #76]
 10521 0018 0193     		str	r3, [sp, #4]
2280:Drivers/display_ILI-93xx_sm/lcd.c **** 	int16_t f = 1 - r;
 10522              		.loc 1 2280 2 is_stmt 1 view .LVU3244
 10523              		.loc 1 2280 16 is_stmt 0 view .LVU3245
 10524 001a 93B2     		uxth	r3, r2
 10525 001c C3F10104 		rsb	r4, r3, #1
 10526              		.loc 1 2280 10 view .LVU3246
 10527 0020 24B2     		sxth	r4, r4
 10528              	.LVL727:
2281:Drivers/display_ILI-93xx_sm/lcd.c **** 	int16_t ddF_x = 1;
 10529              		.loc 1 2281 2 is_stmt 1 view .LVU3247
2282:Drivers/display_ILI-93xx_sm/lcd.c **** 	int16_t ddF_y = -2 * r;
 10530              		.loc 1 2282 2 view .LVU3248
 10531              		.loc 1 2282 21 is_stmt 0 view .LVU3249
ARM GAS  /tmp/cc47Teva.s 			page 271


 10532 0022 C3EBC333 		rsb	r3, r3, r3, lsl #15
 10533 0026 5A00     		lsls	r2, r3, #1
 10534              	.LVL728:
 10535              		.loc 1 2282 10 view .LVU3250
 10536 0028 13B2     		sxth	r3, r2
 10537 002a 0293     		str	r3, [sp, #8]
 10538              	.LVL729:
2283:Drivers/display_ILI-93xx_sm/lcd.c **** 	int16_t x = 0;
 10539              		.loc 1 2283 2 is_stmt 1 view .LVU3251
2284:Drivers/display_ILI-93xx_sm/lcd.c **** 	int16_t y = r;
 10540              		.loc 1 2284 2 view .LVU3252
2285:Drivers/display_ILI-93xx_sm/lcd.c **** 
2286:Drivers/display_ILI-93xx_sm/lcd.c **** 	while (x < y) {
 10541              		.loc 1 2286 2 view .LVU3253
2283:Drivers/display_ILI-93xx_sm/lcd.c **** 	int16_t y = r;
 10542              		.loc 1 2283 10 is_stmt 0 view .LVU3254
 10543 002c 0026     		movs	r6, #0
2281:Drivers/display_ILI-93xx_sm/lcd.c **** 	int16_t ddF_y = -2 * r;
 10544              		.loc 1 2281 10 view .LVU3255
 10545 002e 4FF00109 		mov	r9, #1
 10546              		.loc 1 2286 8 view .LVU3256
 10547 0032 10E0     		b	.L530
 10548              	.LVL730:
 10549              	.L531:
2287:Drivers/display_ILI-93xx_sm/lcd.c **** 		if (f >= 0) {
2288:Drivers/display_ILI-93xx_sm/lcd.c **** 			y--;
2289:Drivers/display_ILI-93xx_sm/lcd.c **** 			ddF_y += 2;
2290:Drivers/display_ILI-93xx_sm/lcd.c **** 			f += ddF_y;
2291:Drivers/display_ILI-93xx_sm/lcd.c **** 		}
2292:Drivers/display_ILI-93xx_sm/lcd.c **** 		x++;
 10550              		.loc 1 2292 3 is_stmt 1 view .LVU3257
 10551              		.loc 1 2292 4 is_stmt 0 view .LVU3258
 10552 0034 751C     		adds	r5, r6, #1
 10553 0036 ADB2     		uxth	r5, r5
 10554 0038 2EB2     		sxth	r6, r5
 10555              	.LVL731:
2293:Drivers/display_ILI-93xx_sm/lcd.c **** 		ddF_x += 2;
 10556              		.loc 1 2293 3 is_stmt 1 view .LVU3259
 10557              		.loc 1 2293 9 is_stmt 0 view .LVU3260
 10558 003a 09F10209 		add	r9, r9, #2
 10559              	.LVL732:
 10560              		.loc 1 2293 9 view .LVU3261
 10561 003e 1FFA89F3 		uxth	r3, r9
 10562 0042 0FFA83F9 		sxth	r9, r3
 10563              	.LVL733:
2294:Drivers/display_ILI-93xx_sm/lcd.c **** 		f += ddF_x;
 10564              		.loc 1 2294 3 is_stmt 1 view .LVU3262
 10565              		.loc 1 2294 5 is_stmt 0 view .LVU3263
 10566 0046 1C44     		add	r4, r4, r3
 10567              	.LVL734:
 10568              		.loc 1 2294 5 view .LVU3264
 10569 0048 24B2     		sxth	r4, r4
 10570              	.LVL735:
2295:Drivers/display_ILI-93xx_sm/lcd.c **** 
2296:Drivers/display_ILI-93xx_sm/lcd.c **** 		if (cornername & 0x1) {
 10571              		.loc 1 2296 3 is_stmt 1 view .LVU3265
 10572              		.loc 1 2296 6 is_stmt 0 view .LVU3266
ARM GAS  /tmp/cc47Teva.s 			page 272


 10573 004a 1BF0010F 		tst	fp, #1
 10574 004e 10D1     		bne	.L536
 10575              	.L532:
2297:Drivers/display_ILI-93xx_sm/lcd.c **** 			LCD_DrawFastVLine(x0 + x, y0 - y, 2 * y + 1 + delta, color);
2298:Drivers/display_ILI-93xx_sm/lcd.c **** 			LCD_DrawFastVLine(x0 + y, y0 - x, 2 * x + 1 + delta, color);
2299:Drivers/display_ILI-93xx_sm/lcd.c **** 		}
2300:Drivers/display_ILI-93xx_sm/lcd.c **** 		if (cornername & 0x2) {
 10576              		.loc 1 2300 3 is_stmt 1 view .LVU3267
 10577              		.loc 1 2300 6 is_stmt 0 view .LVU3268
 10578 0050 1BF0020F 		tst	fp, #2
 10579 0054 35D1     		bne	.L537
 10580              	.LVL736:
 10581              	.L530:
2286:Drivers/display_ILI-93xx_sm/lcd.c **** 		if (f >= 0) {
 10582              		.loc 1 2286 8 view .LVU3269
 10583 0056 BE42     		cmp	r6, r7
 10584 0058 5BDA     		bge	.L538
2287:Drivers/display_ILI-93xx_sm/lcd.c **** 			y--;
 10585              		.loc 1 2287 3 is_stmt 1 view .LVU3270
2287:Drivers/display_ILI-93xx_sm/lcd.c **** 			y--;
 10586              		.loc 1 2287 6 is_stmt 0 view .LVU3271
 10587 005a 002C     		cmp	r4, #0
 10588 005c EADB     		blt	.L531
2288:Drivers/display_ILI-93xx_sm/lcd.c **** 			ddF_y += 2;
 10589              		.loc 1 2288 4 is_stmt 1 view .LVU3272
2288:Drivers/display_ILI-93xx_sm/lcd.c **** 			ddF_y += 2;
 10590              		.loc 1 2288 5 is_stmt 0 view .LVU3273
 10591 005e 013F     		subs	r7, r7, #1
 10592              	.LVL737:
2288:Drivers/display_ILI-93xx_sm/lcd.c **** 			ddF_y += 2;
 10593              		.loc 1 2288 5 view .LVU3274
 10594 0060 3FB2     		sxth	r7, r7
 10595              	.LVL738:
2289:Drivers/display_ILI-93xx_sm/lcd.c **** 			f += ddF_y;
 10596              		.loc 1 2289 4 is_stmt 1 view .LVU3275
2289:Drivers/display_ILI-93xx_sm/lcd.c **** 			f += ddF_y;
 10597              		.loc 1 2289 10 is_stmt 0 view .LVU3276
 10598 0062 029B     		ldr	r3, [sp, #8]
 10599 0064 0233     		adds	r3, r3, #2
 10600 0066 9BB2     		uxth	r3, r3
 10601 0068 1AB2     		sxth	r2, r3
 10602 006a 0292     		str	r2, [sp, #8]
 10603              	.LVL739:
2290:Drivers/display_ILI-93xx_sm/lcd.c **** 		}
 10604              		.loc 1 2290 4 is_stmt 1 view .LVU3277
2290:Drivers/display_ILI-93xx_sm/lcd.c **** 		}
 10605              		.loc 1 2290 6 is_stmt 0 view .LVU3278
 10606 006c 1C44     		add	r4, r4, r3
 10607              	.LVL740:
2290:Drivers/display_ILI-93xx_sm/lcd.c **** 		}
 10608              		.loc 1 2290 6 view .LVU3279
 10609 006e 24B2     		sxth	r4, r4
 10610              	.LVL741:
2290:Drivers/display_ILI-93xx_sm/lcd.c **** 		}
 10611              		.loc 1 2290 6 view .LVU3280
 10612 0070 E0E7     		b	.L531
 10613              	.L536:
ARM GAS  /tmp/cc47Teva.s 			page 273


2297:Drivers/display_ILI-93xx_sm/lcd.c **** 			LCD_DrawFastVLine(x0 + y, y0 - x, 2 * x + 1 + delta, color);
 10614              		.loc 1 2297 4 is_stmt 1 view .LVU3281
2297:Drivers/display_ILI-93xx_sm/lcd.c **** 			LCD_DrawFastVLine(x0 + y, y0 - x, 2 * x + 1 + delta, color);
 10615              		.loc 1 2297 25 is_stmt 0 view .LVU3282
 10616 0072 BDF80C30 		ldrh	r3, [sp, #12]
 10617 0076 0693     		str	r3, [sp, #24]
 10618 0078 E818     		adds	r0, r5, r3
2297:Drivers/display_ILI-93xx_sm/lcd.c **** 			LCD_DrawFastVLine(x0 + y, y0 - x, 2 * x + 1 + delta, color);
 10619              		.loc 1 2297 33 view .LVU3283
 10620 007a BDF81010 		ldrh	r1, [sp, #16]
 10621 007e 1FFA87FA 		uxth	r10, r7
 10622 0082 0791     		str	r1, [sp, #28]
 10623 0084 A1EB0A01 		sub	r1, r1, r10
2297:Drivers/display_ILI-93xx_sm/lcd.c **** 			LCD_DrawFastVLine(x0 + y, y0 - x, 2 * x + 1 + delta, color);
 10624              		.loc 1 2297 40 view .LVU3284
 10625 0088 4FEA4A02 		lsl	r2, r10, #1
 10626 008c 92B2     		uxth	r2, r2
2297:Drivers/display_ILI-93xx_sm/lcd.c **** 			LCD_DrawFastVLine(x0 + y, y0 - x, 2 * x + 1 + delta, color);
 10627              		.loc 1 2297 48 view .LVU3285
 10628 008e BDF81480 		ldrh	r8, [sp, #20]
 10629 0092 4244     		add	r2, r2, r8
 10630 0094 0132     		adds	r2, r2, #1
2297:Drivers/display_ILI-93xx_sm/lcd.c **** 			LCD_DrawFastVLine(x0 + y, y0 - x, 2 * x + 1 + delta, color);
 10631              		.loc 1 2297 4 view .LVU3286
 10632 0096 019B     		ldr	r3, [sp, #4]
 10633 0098 12B2     		sxth	r2, r2
 10634 009a 09B2     		sxth	r1, r1
 10635 009c 00B2     		sxth	r0, r0
 10636 009e FFF7FEFF 		bl	LCD_DrawFastVLine
 10637              	.LVL742:
2298:Drivers/display_ILI-93xx_sm/lcd.c **** 		}
 10638              		.loc 1 2298 4 is_stmt 1 view .LVU3287
2298:Drivers/display_ILI-93xx_sm/lcd.c **** 		}
 10639              		.loc 1 2298 25 is_stmt 0 view .LVU3288
 10640 00a2 069A     		ldr	r2, [sp, #24]
 10641 00a4 02EB0A00 		add	r0, r2, r10
2298:Drivers/display_ILI-93xx_sm/lcd.c **** 		}
 10642              		.loc 1 2298 33 view .LVU3289
 10643 00a8 0799     		ldr	r1, [sp, #28]
 10644 00aa 491B     		subs	r1, r1, r5
2298:Drivers/display_ILI-93xx_sm/lcd.c **** 		}
 10645              		.loc 1 2298 40 view .LVU3290
 10646 00ac 6A00     		lsls	r2, r5, #1
 10647 00ae 92B2     		uxth	r2, r2
2298:Drivers/display_ILI-93xx_sm/lcd.c **** 		}
 10648              		.loc 1 2298 48 view .LVU3291
 10649 00b0 4244     		add	r2, r2, r8
 10650 00b2 0132     		adds	r2, r2, #1
2298:Drivers/display_ILI-93xx_sm/lcd.c **** 		}
 10651              		.loc 1 2298 4 view .LVU3292
 10652 00b4 019B     		ldr	r3, [sp, #4]
 10653 00b6 12B2     		sxth	r2, r2
 10654 00b8 09B2     		sxth	r1, r1
 10655 00ba 00B2     		sxth	r0, r0
 10656 00bc FFF7FEFF 		bl	LCD_DrawFastVLine
 10657              	.LVL743:
 10658 00c0 C6E7     		b	.L532
ARM GAS  /tmp/cc47Teva.s 			page 274


 10659              	.L537:
2301:Drivers/display_ILI-93xx_sm/lcd.c **** 			LCD_DrawFastVLine(x0 - x, y0 - y, 2 * y + 1 + delta, color);
 10660              		.loc 1 2301 4 is_stmt 1 view .LVU3293
 10661              		.loc 1 2301 25 is_stmt 0 view .LVU3294
 10662 00c2 BDF80C30 		ldrh	r3, [sp, #12]
 10663 00c6 0693     		str	r3, [sp, #24]
 10664 00c8 581B     		subs	r0, r3, r5
 10665              		.loc 1 2301 33 view .LVU3295
 10666 00ca BDF81010 		ldrh	r1, [sp, #16]
 10667 00ce 1FFA87FA 		uxth	r10, r7
 10668 00d2 0791     		str	r1, [sp, #28]
 10669 00d4 A1EB0A01 		sub	r1, r1, r10
 10670              		.loc 1 2301 40 view .LVU3296
 10671 00d8 4FEA4A02 		lsl	r2, r10, #1
 10672 00dc 92B2     		uxth	r2, r2
 10673              		.loc 1 2301 48 view .LVU3297
 10674 00de BDF81480 		ldrh	r8, [sp, #20]
 10675 00e2 4244     		add	r2, r2, r8
 10676 00e4 0132     		adds	r2, r2, #1
 10677              		.loc 1 2301 4 view .LVU3298
 10678 00e6 019B     		ldr	r3, [sp, #4]
 10679 00e8 12B2     		sxth	r2, r2
 10680 00ea 09B2     		sxth	r1, r1
 10681 00ec 00B2     		sxth	r0, r0
 10682 00ee FFF7FEFF 		bl	LCD_DrawFastVLine
 10683              	.LVL744:
2302:Drivers/display_ILI-93xx_sm/lcd.c **** 			LCD_DrawFastVLine(x0 - y, y0 - x, 2 * x + 1 + delta, color);
 10684              		.loc 1 2302 4 is_stmt 1 view .LVU3299
 10685              		.loc 1 2302 25 is_stmt 0 view .LVU3300
 10686 00f2 069A     		ldr	r2, [sp, #24]
 10687 00f4 A2EB0A00 		sub	r0, r2, r10
 10688              		.loc 1 2302 33 view .LVU3301
 10689 00f8 0799     		ldr	r1, [sp, #28]
 10690 00fa 491B     		subs	r1, r1, r5
 10691              		.loc 1 2302 40 view .LVU3302
 10692 00fc 6D00     		lsls	r5, r5, #1
 10693 00fe ADB2     		uxth	r5, r5
 10694              		.loc 1 2302 48 view .LVU3303
 10695 0100 4544     		add	r5, r5, r8
 10696 0102 6A1C     		adds	r2, r5, #1
 10697              		.loc 1 2302 4 view .LVU3304
 10698 0104 019B     		ldr	r3, [sp, #4]
 10699 0106 12B2     		sxth	r2, r2
 10700 0108 09B2     		sxth	r1, r1
 10701 010a 00B2     		sxth	r0, r0
 10702 010c FFF7FEFF 		bl	LCD_DrawFastVLine
 10703              	.LVL745:
 10704 0110 A1E7     		b	.L530
 10705              	.L538:
2303:Drivers/display_ILI-93xx_sm/lcd.c **** 		}
2304:Drivers/display_ILI-93xx_sm/lcd.c **** 	}
2305:Drivers/display_ILI-93xx_sm/lcd.c **** }
 10706              		.loc 1 2305 1 view .LVU3305
 10707 0112 09B0     		add	sp, sp, #36
 10708              	.LCFI42:
 10709              		.cfi_def_cfa_offset 36
 10710              		@ sp needed
ARM GAS  /tmp/cc47Teva.s 			page 275


 10711 0114 BDE8F08F 		pop	{r4, r5, r6, r7, r8, r9, r10, fp, pc}
 10712              		.loc 1 2305 1 view .LVU3306
 10713              		.cfi_endproc
 10714              	.LFE95:
 10716              		.section	.text.LCD_FillCircle,"ax",%progbits
 10717              		.align	1
 10718              		.global	LCD_FillCircle
 10719              		.syntax unified
 10720              		.thumb
 10721              		.thumb_func
 10722              		.fpu softvfp
 10724              	LCD_FillCircle:
 10725              	.LVL746:
 10726              	.LFB94:
2262:Drivers/display_ILI-93xx_sm/lcd.c **** 	LCD_DrawFastVLine(x0, y0 - r, 2 * r + 1, color);
 10727              		.loc 1 2262 72 is_stmt 1 view -0
 10728              		.cfi_startproc
 10729              		@ args = 0, pretend = 0, frame = 0
 10730              		@ frame_needed = 0, uses_anonymous_args = 0
2262:Drivers/display_ILI-93xx_sm/lcd.c **** 	LCD_DrawFastVLine(x0, y0 - r, 2 * r + 1, color);
 10731              		.loc 1 2262 72 is_stmt 0 view .LVU3308
 10732 0000 F0B5     		push	{r4, r5, r6, r7, lr}
 10733              	.LCFI43:
 10734              		.cfi_def_cfa_offset 20
 10735              		.cfi_offset 4, -20
 10736              		.cfi_offset 5, -16
 10737              		.cfi_offset 6, -12
 10738              		.cfi_offset 7, -8
 10739              		.cfi_offset 14, -4
 10740 0002 83B0     		sub	sp, sp, #12
 10741              	.LCFI44:
 10742              		.cfi_def_cfa_offset 32
 10743 0004 0646     		mov	r6, r0
 10744 0006 0C46     		mov	r4, r1
 10745 0008 1546     		mov	r5, r2
 10746 000a 1F46     		mov	r7, r3
2263:Drivers/display_ILI-93xx_sm/lcd.c **** 	LCD_FillCircleHelper(x0, y0, r, 3, 0, color);
 10747              		.loc 1 2263 2 is_stmt 1 view .LVU3309
2263:Drivers/display_ILI-93xx_sm/lcd.c **** 	LCD_FillCircleHelper(x0, y0, r, 3, 0, color);
 10748              		.loc 1 2263 27 is_stmt 0 view .LVU3310
 10749 000c 92B2     		uxth	r2, r2
2263:Drivers/display_ILI-93xx_sm/lcd.c **** 	LCD_FillCircleHelper(x0, y0, r, 3, 0, color);
 10750              		.loc 1 2263 27 view .LVU3311
 10751 000e 891A     		subs	r1, r1, r2
 10752              	.LVL747:
2263:Drivers/display_ILI-93xx_sm/lcd.c **** 	LCD_FillCircleHelper(x0, y0, r, 3, 0, color);
 10753              		.loc 1 2263 34 view .LVU3312
 10754 0010 5200     		lsls	r2, r2, #1
 10755              	.LVL748:
2263:Drivers/display_ILI-93xx_sm/lcd.c **** 	LCD_FillCircleHelper(x0, y0, r, 3, 0, color);
 10756              		.loc 1 2263 34 view .LVU3313
 10757 0012 92B2     		uxth	r2, r2
2263:Drivers/display_ILI-93xx_sm/lcd.c **** 	LCD_FillCircleHelper(x0, y0, r, 3, 0, color);
 10758              		.loc 1 2263 38 view .LVU3314
 10759 0014 0132     		adds	r2, r2, #1
2263:Drivers/display_ILI-93xx_sm/lcd.c **** 	LCD_FillCircleHelper(x0, y0, r, 3, 0, color);
 10760              		.loc 1 2263 2 view .LVU3315
ARM GAS  /tmp/cc47Teva.s 			page 276


 10761 0016 12B2     		sxth	r2, r2
 10762 0018 09B2     		sxth	r1, r1
 10763 001a FFF7FEFF 		bl	LCD_DrawFastVLine
 10764              	.LVL749:
2264:Drivers/display_ILI-93xx_sm/lcd.c **** }
 10765              		.loc 1 2264 2 is_stmt 1 view .LVU3316
 10766 001e 0197     		str	r7, [sp, #4]
 10767 0020 0023     		movs	r3, #0
 10768 0022 0093     		str	r3, [sp]
 10769 0024 0323     		movs	r3, #3
 10770 0026 2A46     		mov	r2, r5
 10771 0028 2146     		mov	r1, r4
 10772 002a 3046     		mov	r0, r6
 10773 002c FFF7FEFF 		bl	LCD_FillCircleHelper
 10774              	.LVL750:
2265:Drivers/display_ILI-93xx_sm/lcd.c **** 
 10775              		.loc 1 2265 1 is_stmt 0 view .LVU3317
 10776 0030 03B0     		add	sp, sp, #12
 10777              	.LCFI45:
 10778              		.cfi_def_cfa_offset 20
 10779              		@ sp needed
 10780 0032 F0BD     		pop	{r4, r5, r6, r7, pc}
 10781              		.cfi_endproc
 10782              	.LFE94:
 10784              		.section	.text.LCD_DrawTriangle,"ax",%progbits
 10785              		.align	1
 10786              		.global	LCD_DrawTriangle
 10787              		.syntax unified
 10788              		.thumb
 10789              		.thumb_func
 10790              		.fpu softvfp
 10792              	LCD_DrawTriangle:
 10793              	.LVL751:
 10794              	.LFB96:
2306:Drivers/display_ILI-93xx_sm/lcd.c **** 
2307:Drivers/display_ILI-93xx_sm/lcd.c **** /**
2308:Drivers/display_ILI-93xx_sm/lcd.c ****  * \brief Draws a triangle specified by the coordinate pairs.
2309:Drivers/display_ILI-93xx_sm/lcd.c ****  *
2310:Drivers/display_ILI-93xx_sm/lcd.c ****  * \param x0		The x-coordinate of the first point
2311:Drivers/display_ILI-93xx_sm/lcd.c ****  * \param y0		The y-coordinate of the first point
2312:Drivers/display_ILI-93xx_sm/lcd.c ****  * \param x1		The x-coordinate of the second point
2313:Drivers/display_ILI-93xx_sm/lcd.c ****  * \param y1		The y-coordinate of the second point
2314:Drivers/display_ILI-93xx_sm/lcd.c ****  * \param x2		The x-coordinate of the third point
2315:Drivers/display_ILI-93xx_sm/lcd.c ****  * \param y2		The y-coordinate of the third point
2316:Drivers/display_ILI-93xx_sm/lcd.c ****  * \param color		Color
2317:Drivers/display_ILI-93xx_sm/lcd.c ****  *
2318:Drivers/display_ILI-93xx_sm/lcd.c ****  * \return void
2319:Drivers/display_ILI-93xx_sm/lcd.c ****  */
2320:Drivers/display_ILI-93xx_sm/lcd.c **** void LCD_DrawTriangle(int16_t x0, int16_t y0, int16_t x1, int16_t y1, int16_t x2, int16_t y2, uint1
 10795              		.loc 1 2320 111 is_stmt 1 view -0
 10796              		.cfi_startproc
 10797              		@ args = 12, pretend = 0, frame = 0
 10798              		@ frame_needed = 0, uses_anonymous_args = 0
 10799              		.loc 1 2320 111 is_stmt 0 view .LVU3319
 10800 0000 2DE9F047 		push	{r4, r5, r6, r7, r8, r9, r10, lr}
 10801              	.LCFI46:
 10802              		.cfi_def_cfa_offset 32
ARM GAS  /tmp/cc47Teva.s 			page 277


 10803              		.cfi_offset 4, -32
 10804              		.cfi_offset 5, -28
 10805              		.cfi_offset 6, -24
 10806              		.cfi_offset 7, -20
 10807              		.cfi_offset 8, -16
 10808              		.cfi_offset 9, -12
 10809              		.cfi_offset 10, -8
 10810              		.cfi_offset 14, -4
 10811 0004 82B0     		sub	sp, sp, #8
 10812              	.LCFI47:
 10813              		.cfi_def_cfa_offset 40
 10814 0006 0746     		mov	r7, r0
 10815 0008 8846     		mov	r8, r1
 10816 000a 9146     		mov	r9, r2
 10817 000c 9A46     		mov	r10, r3
 10818 000e BDF92850 		ldrsh	r5, [sp, #40]
 10819 0012 BDF92C60 		ldrsh	r6, [sp, #44]
 10820 0016 BDF83040 		ldrh	r4, [sp, #48]
2321:Drivers/display_ILI-93xx_sm/lcd.c **** 	LCD_DrawLine(x0, y0, x1, y1, color);
 10821              		.loc 1 2321 2 is_stmt 1 view .LVU3320
 10822 001a 0094     		str	r4, [sp]
 10823 001c FFF7FEFF 		bl	LCD_DrawLine
 10824              	.LVL752:
2322:Drivers/display_ILI-93xx_sm/lcd.c **** 	LCD_DrawLine(x1, y1, x2, y2, color);
 10825              		.loc 1 2322 2 view .LVU3321
 10826 0020 0094     		str	r4, [sp]
 10827 0022 3346     		mov	r3, r6
 10828 0024 2A46     		mov	r2, r5
 10829 0026 5146     		mov	r1, r10
 10830 0028 4846     		mov	r0, r9
 10831 002a FFF7FEFF 		bl	LCD_DrawLine
 10832              	.LVL753:
2323:Drivers/display_ILI-93xx_sm/lcd.c **** 	LCD_DrawLine(x2, y2, x0, y0, color);
 10833              		.loc 1 2323 2 view .LVU3322
 10834 002e 0094     		str	r4, [sp]
 10835 0030 4346     		mov	r3, r8
 10836 0032 3A46     		mov	r2, r7
 10837 0034 3146     		mov	r1, r6
 10838 0036 2846     		mov	r0, r5
 10839 0038 FFF7FEFF 		bl	LCD_DrawLine
 10840              	.LVL754:
2324:Drivers/display_ILI-93xx_sm/lcd.c **** }
 10841              		.loc 1 2324 1 is_stmt 0 view .LVU3323
 10842 003c 02B0     		add	sp, sp, #8
 10843              	.LCFI48:
 10844              		.cfi_def_cfa_offset 32
 10845              		@ sp needed
 10846 003e BDE8F087 		pop	{r4, r5, r6, r7, r8, r9, r10, pc}
 10847              		.loc 1 2324 1 view .LVU3324
 10848              		.cfi_endproc
 10849              	.LFE96:
 10851              		.section	.text.LCD_FillTriangle,"ax",%progbits
 10852              		.align	1
 10853              		.global	LCD_FillTriangle
 10854              		.syntax unified
 10855              		.thumb
 10856              		.thumb_func
ARM GAS  /tmp/cc47Teva.s 			page 278


 10857              		.fpu softvfp
 10859              	LCD_FillTriangle:
 10860              	.LVL755:
 10861              	.LFB97:
2325:Drivers/display_ILI-93xx_sm/lcd.c **** 
2326:Drivers/display_ILI-93xx_sm/lcd.c **** /**
2327:Drivers/display_ILI-93xx_sm/lcd.c ****  * \brief Draws a filled triangle specified by the coordinate pairs.
2328:Drivers/display_ILI-93xx_sm/lcd.c ****  *
2329:Drivers/display_ILI-93xx_sm/lcd.c ****  * \param x0		The x-coordinate of the first point
2330:Drivers/display_ILI-93xx_sm/lcd.c ****  * \param y0		The y-coordinate of the first point
2331:Drivers/display_ILI-93xx_sm/lcd.c ****  * \param x1		The x-coordinate of the second point
2332:Drivers/display_ILI-93xx_sm/lcd.c ****  * \param y1		The y-coordinate of the second point
2333:Drivers/display_ILI-93xx_sm/lcd.c ****  * \param x2		The x-coordinate of the third point
2334:Drivers/display_ILI-93xx_sm/lcd.c ****  * \param y2		The y-coordinate of the third point
2335:Drivers/display_ILI-93xx_sm/lcd.c ****  * \param color		Color
2336:Drivers/display_ILI-93xx_sm/lcd.c ****  *
2337:Drivers/display_ILI-93xx_sm/lcd.c ****  * \return void
2338:Drivers/display_ILI-93xx_sm/lcd.c ****  */
2339:Drivers/display_ILI-93xx_sm/lcd.c **** void LCD_FillTriangle(int16_t x0, int16_t y0, int16_t x1, int16_t y1, int16_t x2, int16_t y2, uint1
 10862              		.loc 1 2339 111 is_stmt 1 view -0
 10863              		.cfi_startproc
 10864              		@ args = 12, pretend = 0, frame = 32
 10865              		@ frame_needed = 0, uses_anonymous_args = 0
 10866              		.loc 1 2339 111 is_stmt 0 view .LVU3326
 10867 0000 2DE9F04F 		push	{r4, r5, r6, r7, r8, r9, r10, fp, lr}
 10868              	.LCFI49:
 10869              		.cfi_def_cfa_offset 36
 10870              		.cfi_offset 4, -36
 10871              		.cfi_offset 5, -32
 10872              		.cfi_offset 6, -28
 10873              		.cfi_offset 7, -24
 10874              		.cfi_offset 8, -20
 10875              		.cfi_offset 9, -16
 10876              		.cfi_offset 10, -12
 10877              		.cfi_offset 11, -8
 10878              		.cfi_offset 14, -4
 10879 0004 89B0     		sub	sp, sp, #36
 10880              	.LCFI50:
 10881              		.cfi_def_cfa_offset 72
 10882 0006 8946     		mov	r9, r1
 10883 0008 0593     		str	r3, [sp, #20]
 10884 000a BDF94870 		ldrsh	r7, [sp, #72]
 10885 000e BDF94C10 		ldrsh	r1, [sp, #76]
 10886              	.LVL756:
 10887              		.loc 1 2339 111 view .LVU3327
 10888 0012 0191     		str	r1, [sp, #4]
 10889 0014 BDF85010 		ldrh	r1, [sp, #80]
 10890 0018 0091     		str	r1, [sp]
2340:Drivers/display_ILI-93xx_sm/lcd.c **** 	int16_t a, b, y, last;
 10891              		.loc 1 2340 2 is_stmt 1 view .LVU3328
2341:Drivers/display_ILI-93xx_sm/lcd.c **** 
2342:Drivers/display_ILI-93xx_sm/lcd.c **** 	// Sort coordinates by Y order (y2 >= y1 >= y0)
2343:Drivers/display_ILI-93xx_sm/lcd.c **** 	if (y0 > y1) {
 10892              		.loc 1 2343 2 view .LVU3329
 10893              		.loc 1 2343 5 is_stmt 0 view .LVU3330
 10894 001a 9945     		cmp	r9, r3
 10895 001c 05DC     		bgt	.L544
ARM GAS  /tmp/cc47Teva.s 			page 279


 10896 001e CDF81490 		str	r9, [sp, #20]
 10897 0022 9946     		mov	r9, r3
 10898 0024 1346     		mov	r3, r2
 10899              	.LVL757:
 10900              		.loc 1 2343 5 view .LVU3331
 10901 0026 0246     		mov	r2, r0
 10902              	.LVL758:
 10903              		.loc 1 2343 5 view .LVU3332
 10904 0028 1846     		mov	r0, r3
 10905              	.LVL759:
 10906              	.L544:
2344:Drivers/display_ILI-93xx_sm/lcd.c **** 		swap(y0, y1);
2345:Drivers/display_ILI-93xx_sm/lcd.c **** 		swap(x0, x1);
2346:Drivers/display_ILI-93xx_sm/lcd.c **** 	}
2347:Drivers/display_ILI-93xx_sm/lcd.c **** 	if (y1 > y2) {
 10907              		.loc 1 2347 2 is_stmt 1 view .LVU3333
 10908              		.loc 1 2347 5 is_stmt 0 view .LVU3334
 10909 002a 019B     		ldr	r3, [sp, #4]
 10910 002c 9945     		cmp	r9, r3
 10911 002e 05DC     		bgt	.L545
 10912 0030 CDF80490 		str	r9, [sp, #4]
 10913 0034 9946     		mov	r9, r3
 10914              	.LVL760:
 10915              		.loc 1 2347 5 view .LVU3335
 10916 0036 3B46     		mov	r3, r7
 10917 0038 0746     		mov	r7, r0
 10918 003a 1846     		mov	r0, r3
 10919              	.LVL761:
 10920              	.L545:
2348:Drivers/display_ILI-93xx_sm/lcd.c **** 		swap(y2, y1); 
2349:Drivers/display_ILI-93xx_sm/lcd.c **** 		swap(x2, x1);
2350:Drivers/display_ILI-93xx_sm/lcd.c **** 	}
2351:Drivers/display_ILI-93xx_sm/lcd.c **** 	if (y0 > y1) {
 10921              		.loc 1 2351 2 is_stmt 1 view .LVU3336
 10922              		.loc 1 2351 5 is_stmt 0 view .LVU3337
 10923 003c 0599     		ldr	r1, [sp, #20]
 10924 003e 019C     		ldr	r4, [sp, #4]
 10925 0040 A142     		cmp	r1, r4
 10926 0042 04DC     		bgt	.L546
 10927 0044 0191     		str	r1, [sp, #4]
 10928              	.LVL762:
 10929              		.loc 1 2351 5 view .LVU3338
 10930 0046 0594     		str	r4, [sp, #20]
 10931              	.LVL763:
 10932              		.loc 1 2351 5 view .LVU3339
 10933 0048 3B46     		mov	r3, r7
 10934 004a 1746     		mov	r7, r2
 10935              	.LVL764:
 10936              		.loc 1 2351 5 view .LVU3340
 10937 004c 1A46     		mov	r2, r3
 10938              	.LVL765:
 10939              	.L546:
2352:Drivers/display_ILI-93xx_sm/lcd.c **** 		swap(y0, y1); 
2353:Drivers/display_ILI-93xx_sm/lcd.c **** 		swap(x0, x1);
2354:Drivers/display_ILI-93xx_sm/lcd.c **** 	}
2355:Drivers/display_ILI-93xx_sm/lcd.c **** 
2356:Drivers/display_ILI-93xx_sm/lcd.c **** 	if(y0 == y2) { // Handle awkward all-on-same-line case as its own thing
ARM GAS  /tmp/cc47Teva.s 			page 280


 10940              		.loc 1 2356 2 is_stmt 1 view .LVU3341
 10941              		.loc 1 2356 4 is_stmt 0 view .LVU3342
 10942 004e 019B     		ldr	r3, [sp, #4]
 10943 0050 4B45     		cmp	r3, r9
 10944 0052 2BD0     		beq	.L562
2357:Drivers/display_ILI-93xx_sm/lcd.c **** 		a = b = x0;
2358:Drivers/display_ILI-93xx_sm/lcd.c **** 		if(x1 < a)      a = x1;
2359:Drivers/display_ILI-93xx_sm/lcd.c **** 		else if(x1 > b) b = x1;
2360:Drivers/display_ILI-93xx_sm/lcd.c **** 		if(x2 < a)      a = x2;
2361:Drivers/display_ILI-93xx_sm/lcd.c **** 		else if(x2 > b) b = x2;
2362:Drivers/display_ILI-93xx_sm/lcd.c **** 		LCD_DrawFastHLine(a, y0, b - a + 1, color);
2363:Drivers/display_ILI-93xx_sm/lcd.c **** 		return;
2364:Drivers/display_ILI-93xx_sm/lcd.c **** 	}
2365:Drivers/display_ILI-93xx_sm/lcd.c **** 
2366:Drivers/display_ILI-93xx_sm/lcd.c **** 	int16_t	dx01 = x1 - x0,
 10945              		.loc 1 2366 2 is_stmt 1 view .LVU3343
 10946              		.loc 1 2366 20 is_stmt 0 view .LVU3344
 10947 0054 92B2     		uxth	r2, r2
 10948              		.loc 1 2366 20 view .LVU3345
 10949 0056 0292     		str	r2, [sp, #8]
 10950 0058 BFB2     		uxth	r7, r7
 10951              		.loc 1 2366 20 view .LVU3346
 10952 005a D31B     		subs	r3, r2, r7
 10953              		.loc 1 2366 10 view .LVU3347
 10954 005c 1BB2     		sxth	r3, r3
 10955 005e 0393     		str	r3, [sp, #12]
 10956              	.LVL766:
2367:Drivers/display_ILI-93xx_sm/lcd.c **** 			dy01 = y1 - y0,
 10957              		.loc 1 2367 14 view .LVU3348
 10958 0060 0599     		ldr	r1, [sp, #20]
 10959 0062 1FFA81FB 		uxth	fp, r1
 10960 0066 BDF80480 		ldrh	r8, [sp, #4]
 10961 006a ABEB0803 		sub	r3, fp, r8
 10962              		.loc 1 2367 4 view .LVU3349
 10963 006e 1BB2     		sxth	r3, r3
 10964 0070 9C46     		mov	ip, r3
 10965              	.LVL767:
2368:Drivers/display_ILI-93xx_sm/lcd.c **** 			dx02 = x2 - x0,
 10966              		.loc 1 2368 14 view .LVU3350
 10967 0072 80B2     		uxth	r0, r0
 10968              		.loc 1 2368 14 view .LVU3351
 10969 0074 C51B     		subs	r5, r0, r7
 10970              		.loc 1 2368 4 view .LVU3352
 10971 0076 2DB2     		sxth	r5, r5
 10972              	.LVL768:
2369:Drivers/display_ILI-93xx_sm/lcd.c **** 			dy02 = y2 - y0,
 10973              		.loc 1 2369 14 view .LVU3353
 10974 0078 1FFA89F3 		uxth	r3, r9
 10975 007c A3EB0808 		sub	r8, r3, r8
 10976              		.loc 1 2369 4 view .LVU3354
 10977 0080 0FFA88F8 		sxth	r8, r8
 10978              	.LVL769:
2370:Drivers/display_ILI-93xx_sm/lcd.c **** 			dx12 = x2 - x1,
 10979              		.loc 1 2370 14 view .LVU3355
 10980 0084 801A     		subs	r0, r0, r2
 10981              	.LVL770:
 10982              		.loc 1 2370 4 view .LVU3356
ARM GAS  /tmp/cc47Teva.s 			page 281


 10983 0086 02B2     		sxth	r2, r0
 10984              	.LVL771:
 10985              		.loc 1 2370 4 view .LVU3357
 10986 0088 0692     		str	r2, [sp, #24]
 10987              	.LVL772:
2371:Drivers/display_ILI-93xx_sm/lcd.c **** 			dy12 = y2 - y1;
 10988              		.loc 1 2371 14 view .LVU3358
 10989 008a A3EB0B03 		sub	r3, r3, fp
 10990              		.loc 1 2371 4 view .LVU3359
 10991 008e 1BB2     		sxth	r3, r3
 10992 0090 0493     		str	r3, [sp, #16]
 10993              	.LVL773:
2372:Drivers/display_ILI-93xx_sm/lcd.c **** 	int32_t	sa   = 0,
 10994              		.loc 1 2372 2 is_stmt 1 view .LVU3360
2373:Drivers/display_ILI-93xx_sm/lcd.c **** 			sb   = 0;
2374:Drivers/display_ILI-93xx_sm/lcd.c **** 
2375:Drivers/display_ILI-93xx_sm/lcd.c **** 	// For upper part of triangle, find scanline crossings for segments
2376:Drivers/display_ILI-93xx_sm/lcd.c **** 	// 0-1 and 0-2.  If y1=y2 (flat-bottomed triangle), the scanline y1
2377:Drivers/display_ILI-93xx_sm/lcd.c **** 	// is included here (and second loop will be skipped, avoiding a /0
2378:Drivers/display_ILI-93xx_sm/lcd.c **** 	// error there), otherwise scanline y1 is skipped here and handled
2379:Drivers/display_ILI-93xx_sm/lcd.c **** 	// in the second loop...which also avoids a /0 error here if y0=y1
2380:Drivers/display_ILI-93xx_sm/lcd.c **** 	// (flat-topped triangle).
2381:Drivers/display_ILI-93xx_sm/lcd.c **** 	if (y1 == y2) last = y1;   // Include y1 scanline
 10995              		.loc 1 2381 2 view .LVU3361
 10996              		.loc 1 2381 5 is_stmt 0 view .LVU3362
 10997 0092 4945     		cmp	r1, r9
 10998 0094 25D0     		beq	.L560
2382:Drivers/display_ILI-93xx_sm/lcd.c **** 	else last = y1 - 1; // Skip it
 10999              		.loc 1 2382 7 is_stmt 1 view .LVU3363
 11000              		.loc 1 2382 17 is_stmt 0 view .LVU3364
 11001 0096 0BF1FF3B 		add	fp, fp, #-1
 11002              		.loc 1 2382 12 view .LVU3365
 11003 009a 0FFA8BFB 		sxth	fp, fp
 11004              	.LVL774:
 11005              	.L551:
2383:Drivers/display_ILI-93xx_sm/lcd.c **** 
2384:Drivers/display_ILI-93xx_sm/lcd.c **** 	for(y = y0; y <= last; y++) {
 11006              		.loc 1 2384 2 is_stmt 1 view .LVU3366
 11007              		.loc 1 2384 8 is_stmt 0 view .LVU3367
 11008 009e 019C     		ldr	r4, [sp, #4]
2373:Drivers/display_ILI-93xx_sm/lcd.c **** 
 11009              		.loc 1 2373 4 view .LVU3368
 11010 00a0 0026     		movs	r6, #0
2372:Drivers/display_ILI-93xx_sm/lcd.c **** 			sb   = 0;
 11011              		.loc 1 2372 10 view .LVU3369
 11012 00a2 B246     		mov	r10, r6
 11013 00a4 CDF81C90 		str	r9, [sp, #28]
 11014 00a8 E146     		mov	r9, ip
 11015              	.LVL775:
 11016              		.loc 1 2384 2 view .LVU3370
 11017 00aa 27E0     		b	.L552
 11018              	.LVL776:
 11019              	.L562:
2357:Drivers/display_ILI-93xx_sm/lcd.c **** 		if(x1 < a)      a = x1;
 11020              		.loc 1 2357 3 is_stmt 1 view .LVU3371
2358:Drivers/display_ILI-93xx_sm/lcd.c **** 		else if(x1 > b) b = x1;
 11021              		.loc 1 2358 3 view .LVU3372
ARM GAS  /tmp/cc47Teva.s 			page 282


2358:Drivers/display_ILI-93xx_sm/lcd.c **** 		else if(x1 > b) b = x1;
 11022              		.loc 1 2358 5 is_stmt 0 view .LVU3373
 11023 00ac 9742     		cmp	r7, r2
 11024 00ae 01DC     		bgt	.L548
2359:Drivers/display_ILI-93xx_sm/lcd.c **** 		if(x2 < a)      a = x2;
 11025              		.loc 1 2359 8 is_stmt 1 view .LVU3374
2359:Drivers/display_ILI-93xx_sm/lcd.c **** 		if(x2 < a)      a = x2;
 11026              		.loc 1 2359 10 is_stmt 0 view .LVU3375
 11027 00b0 10DB     		blt	.L558
2357:Drivers/display_ILI-93xx_sm/lcd.c **** 		if(x1 < a)      a = x1;
 11028              		.loc 1 2357 5 view .LVU3376
 11029 00b2 3A46     		mov	r2, r7
 11030              	.LVL777:
 11031              	.L548:
2360:Drivers/display_ILI-93xx_sm/lcd.c **** 		else if(x2 > b) b = x2;
 11032              		.loc 1 2360 3 is_stmt 1 view .LVU3377
2360:Drivers/display_ILI-93xx_sm/lcd.c **** 		else if(x2 > b) b = x2;
 11033              		.loc 1 2360 5 is_stmt 0 view .LVU3378
 11034 00b4 9042     		cmp	r0, r2
 11035 00b6 02DB     		blt	.L549
2361:Drivers/display_ILI-93xx_sm/lcd.c **** 		LCD_DrawFastHLine(a, y0, b - a + 1, color);
 11036              		.loc 1 2361 8 is_stmt 1 view .LVU3379
2361:Drivers/display_ILI-93xx_sm/lcd.c **** 		LCD_DrawFastHLine(a, y0, b - a + 1, color);
 11037              		.loc 1 2361 10 is_stmt 0 view .LVU3380
 11038 00b8 B842     		cmp	r0, r7
 11039 00ba 0FDC     		bgt	.L559
 11040 00bc 1046     		mov	r0, r2
 11041              	.LVL778:
 11042              	.L549:
2362:Drivers/display_ILI-93xx_sm/lcd.c **** 		return;
 11043              		.loc 1 2362 3 is_stmt 1 view .LVU3381
2362:Drivers/display_ILI-93xx_sm/lcd.c **** 		return;
 11044              		.loc 1 2362 30 is_stmt 0 view .LVU3382
 11045 00be 3A1A     		subs	r2, r7, r0
 11046 00c0 92B2     		uxth	r2, r2
2362:Drivers/display_ILI-93xx_sm/lcd.c **** 		return;
 11047              		.loc 1 2362 34 view .LVU3383
 11048 00c2 0132     		adds	r2, r2, #1
2362:Drivers/display_ILI-93xx_sm/lcd.c **** 		return;
 11049              		.loc 1 2362 3 view .LVU3384
 11050 00c4 009B     		ldr	r3, [sp]
 11051 00c6 12B2     		sxth	r2, r2
 11052 00c8 0199     		ldr	r1, [sp, #4]
 11053 00ca FFF7FEFF 		bl	LCD_DrawFastHLine
 11054              	.LVL779:
2363:Drivers/display_ILI-93xx_sm/lcd.c **** 	}
 11055              		.loc 1 2363 3 is_stmt 1 view .LVU3385
 11056              	.L543:
2385:Drivers/display_ILI-93xx_sm/lcd.c **** 		a = x0 + sa / dy01;
2386:Drivers/display_ILI-93xx_sm/lcd.c **** 		b = x0 + sb / dy02;
2387:Drivers/display_ILI-93xx_sm/lcd.c **** 		sa += dx01;
2388:Drivers/display_ILI-93xx_sm/lcd.c **** 		sb += dx02;
2389:Drivers/display_ILI-93xx_sm/lcd.c **** 		/* longhand:
2390:Drivers/display_ILI-93xx_sm/lcd.c **** 		a = x0 + (x1 - x0) * (y - y0) / (y1 - y0);
2391:Drivers/display_ILI-93xx_sm/lcd.c **** 		b = x0 + (x2 - x0) * (y - y0) / (y2 - y0);
2392:Drivers/display_ILI-93xx_sm/lcd.c **** 		*/
2393:Drivers/display_ILI-93xx_sm/lcd.c **** 		if(a > b) swap(a,b);
ARM GAS  /tmp/cc47Teva.s 			page 283


2394:Drivers/display_ILI-93xx_sm/lcd.c **** 		LCD_DrawFastHLine(a, y, b-a+1, color);
2395:Drivers/display_ILI-93xx_sm/lcd.c **** 	}
2396:Drivers/display_ILI-93xx_sm/lcd.c **** 
2397:Drivers/display_ILI-93xx_sm/lcd.c **** 	// For lower part of triangle, find scanline crossings for segments
2398:Drivers/display_ILI-93xx_sm/lcd.c **** 	// 0-2 and 1-2.  This loop is skipped if y1=y2.
2399:Drivers/display_ILI-93xx_sm/lcd.c **** 	sa = dx12 * (y - y1);
2400:Drivers/display_ILI-93xx_sm/lcd.c **** 	sb = dx02 * (y - y0);
2401:Drivers/display_ILI-93xx_sm/lcd.c **** 	for(; y <= y2; y++) {
2402:Drivers/display_ILI-93xx_sm/lcd.c **** 		a = x1 + sa / dy12;
2403:Drivers/display_ILI-93xx_sm/lcd.c **** 		b = x0 + sb / dy02;
2404:Drivers/display_ILI-93xx_sm/lcd.c **** 		sa += dx12;
2405:Drivers/display_ILI-93xx_sm/lcd.c **** 		sb += dx02;
2406:Drivers/display_ILI-93xx_sm/lcd.c **** 		/* longhand:
2407:Drivers/display_ILI-93xx_sm/lcd.c **** 		a = x1 + (x2 - x1) * (y - y1) / (y2 - y1);
2408:Drivers/display_ILI-93xx_sm/lcd.c **** 		b = x0 + (x2 - x0) * (y - y0) / (y2 - y0);
2409:Drivers/display_ILI-93xx_sm/lcd.c **** 		*/
2410:Drivers/display_ILI-93xx_sm/lcd.c **** 		if(a > b) swap(a,b);
2411:Drivers/display_ILI-93xx_sm/lcd.c **** 		LCD_DrawFastHLine(a, y, b - a + 1, color);
2412:Drivers/display_ILI-93xx_sm/lcd.c **** 	}
2413:Drivers/display_ILI-93xx_sm/lcd.c **** }
 11057              		.loc 1 2413 1 is_stmt 0 view .LVU3386
 11058 00ce 09B0     		add	sp, sp, #36
 11059              	.LCFI51:
 11060              		.cfi_remember_state
 11061              		.cfi_def_cfa_offset 36
 11062              		@ sp needed
 11063 00d0 BDE8F08F 		pop	{r4, r5, r6, r7, r8, r9, r10, fp, pc}
 11064              	.LVL780:
 11065              	.L558:
 11066              	.LCFI52:
 11067              		.cfi_restore_state
 11068              		.loc 1 2413 1 view .LVU3387
 11069 00d4 1346     		mov	r3, r2
2357:Drivers/display_ILI-93xx_sm/lcd.c **** 		if(x1 < a)      a = x1;
 11070              		.loc 1 2357 5 view .LVU3388
 11071 00d6 3A46     		mov	r2, r7
 11072              	.LVL781:
2359:Drivers/display_ILI-93xx_sm/lcd.c **** 		if(x2 < a)      a = x2;
 11073              		.loc 1 2359 21 view .LVU3389
 11074 00d8 1F46     		mov	r7, r3
 11075              	.LVL782:
2359:Drivers/display_ILI-93xx_sm/lcd.c **** 		if(x2 < a)      a = x2;
 11076              		.loc 1 2359 21 view .LVU3390
 11077 00da EBE7     		b	.L548
 11078              	.LVL783:
 11079              	.L559:
2361:Drivers/display_ILI-93xx_sm/lcd.c **** 		LCD_DrawFastHLine(a, y0, b - a + 1, color);
 11080              		.loc 1 2361 21 view .LVU3391
 11081 00dc 0746     		mov	r7, r0
 11082              	.LVL784:
2361:Drivers/display_ILI-93xx_sm/lcd.c **** 		LCD_DrawFastHLine(a, y0, b - a + 1, color);
 11083              		.loc 1 2361 21 view .LVU3392
 11084 00de 1046     		mov	r0, r2
 11085              	.LVL785:
2361:Drivers/display_ILI-93xx_sm/lcd.c **** 		LCD_DrawFastHLine(a, y0, b - a + 1, color);
 11086              		.loc 1 2361 21 view .LVU3393
 11087 00e0 EDE7     		b	.L549
ARM GAS  /tmp/cc47Teva.s 			page 284


 11088              	.LVL786:
 11089              	.L560:
2381:Drivers/display_ILI-93xx_sm/lcd.c **** 	else last = y1 - 1; // Skip it
 11090              		.loc 1 2381 21 view .LVU3394
 11091 00e2 DDF814B0 		ldr	fp, [sp, #20]
 11092 00e6 DAE7     		b	.L551
 11093              	.LVL787:
 11094              	.L553:
2394:Drivers/display_ILI-93xx_sm/lcd.c **** 	}
 11095              		.loc 1 2394 3 is_stmt 1 discriminator 2 view .LVU3395
2394:Drivers/display_ILI-93xx_sm/lcd.c **** 	}
 11096              		.loc 1 2394 28 is_stmt 0 discriminator 2 view .LVU3396
 11097 00e8 121A     		subs	r2, r2, r0
 11098              	.LVL788:
2394:Drivers/display_ILI-93xx_sm/lcd.c **** 	}
 11099              		.loc 1 2394 28 discriminator 2 view .LVU3397
 11100 00ea 92B2     		uxth	r2, r2
2394:Drivers/display_ILI-93xx_sm/lcd.c **** 	}
 11101              		.loc 1 2394 30 discriminator 2 view .LVU3398
 11102 00ec 0132     		adds	r2, r2, #1
2394:Drivers/display_ILI-93xx_sm/lcd.c **** 	}
 11103              		.loc 1 2394 3 discriminator 2 view .LVU3399
 11104 00ee 009B     		ldr	r3, [sp]
 11105 00f0 12B2     		sxth	r2, r2
 11106 00f2 2146     		mov	r1, r4
 11107 00f4 FFF7FEFF 		bl	LCD_DrawFastHLine
 11108              	.LVL789:
2384:Drivers/display_ILI-93xx_sm/lcd.c **** 		a = x0 + sa / dy01;
 11109              		.loc 1 2384 26 discriminator 2 view .LVU3400
 11110 00f8 0134     		adds	r4, r4, #1
 11111              	.LVL790:
2384:Drivers/display_ILI-93xx_sm/lcd.c **** 		a = x0 + sa / dy01;
 11112              		.loc 1 2384 26 discriminator 2 view .LVU3401
 11113 00fa 24B2     		sxth	r4, r4
 11114              	.LVL791:
 11115              	.L552:
2384:Drivers/display_ILI-93xx_sm/lcd.c **** 		a = x0 + sa / dy01;
 11116              		.loc 1 2384 2 discriminator 1 view .LVU3402
 11117 00fc 5C45     		cmp	r4, fp
 11118 00fe 10DC     		bgt	.L563
2385:Drivers/display_ILI-93xx_sm/lcd.c **** 		b = x0 + sb / dy02;
 11119              		.loc 1 2385 3 is_stmt 1 view .LVU3403
2385:Drivers/display_ILI-93xx_sm/lcd.c **** 		b = x0 + sb / dy02;
 11120              		.loc 1 2385 15 is_stmt 0 view .LVU3404
 11121 0100 9AFBF9F2 		sdiv	r2, r10, r9
2385:Drivers/display_ILI-93xx_sm/lcd.c **** 		b = x0 + sb / dy02;
 11122              		.loc 1 2385 10 view .LVU3405
 11123 0104 3A44     		add	r2, r2, r7
2385:Drivers/display_ILI-93xx_sm/lcd.c **** 		b = x0 + sb / dy02;
 11124              		.loc 1 2385 5 view .LVU3406
 11125 0106 12B2     		sxth	r2, r2
 11126              	.LVL792:
2386:Drivers/display_ILI-93xx_sm/lcd.c **** 		sa += dx01;
 11127              		.loc 1 2386 3 is_stmt 1 view .LVU3407
2386:Drivers/display_ILI-93xx_sm/lcd.c **** 		sa += dx01;
 11128              		.loc 1 2386 15 is_stmt 0 view .LVU3408
 11129 0108 96FBF8F0 		sdiv	r0, r6, r8
ARM GAS  /tmp/cc47Teva.s 			page 285


2386:Drivers/display_ILI-93xx_sm/lcd.c **** 		sa += dx01;
 11130              		.loc 1 2386 10 view .LVU3409
 11131 010c 3844     		add	r0, r0, r7
2386:Drivers/display_ILI-93xx_sm/lcd.c **** 		sa += dx01;
 11132              		.loc 1 2386 5 view .LVU3410
 11133 010e 00B2     		sxth	r0, r0
 11134              	.LVL793:
2387:Drivers/display_ILI-93xx_sm/lcd.c **** 		sb += dx02;
 11135              		.loc 1 2387 3 is_stmt 1 view .LVU3411
2387:Drivers/display_ILI-93xx_sm/lcd.c **** 		sb += dx02;
 11136              		.loc 1 2387 6 is_stmt 0 view .LVU3412
 11137 0110 039B     		ldr	r3, [sp, #12]
 11138 0112 9A44     		add	r10, r10, r3
 11139              	.LVL794:
2388:Drivers/display_ILI-93xx_sm/lcd.c **** 		/* longhand:
 11140              		.loc 1 2388 3 is_stmt 1 view .LVU3413
2388:Drivers/display_ILI-93xx_sm/lcd.c **** 		/* longhand:
 11141              		.loc 1 2388 6 is_stmt 0 view .LVU3414
 11142 0114 2E44     		add	r6, r6, r5
 11143              	.LVL795:
2393:Drivers/display_ILI-93xx_sm/lcd.c **** 		LCD_DrawFastHLine(a, y, b-a+1, color);
 11144              		.loc 1 2393 3 is_stmt 1 view .LVU3415
2393:Drivers/display_ILI-93xx_sm/lcd.c **** 		LCD_DrawFastHLine(a, y, b-a+1, color);
 11145              		.loc 1 2393 5 is_stmt 0 view .LVU3416
 11146 0116 8242     		cmp	r2, r0
 11147 0118 E6DC     		bgt	.L553
 11148 011a 0346     		mov	r3, r0
2385:Drivers/display_ILI-93xx_sm/lcd.c **** 		b = x0 + sb / dy02;
 11149              		.loc 1 2385 5 view .LVU3417
 11150 011c 1046     		mov	r0, r2
 11151              	.LVL796:
2386:Drivers/display_ILI-93xx_sm/lcd.c **** 		sa += dx01;
 11152              		.loc 1 2386 5 view .LVU3418
 11153 011e 1A46     		mov	r2, r3
 11154              	.LVL797:
2386:Drivers/display_ILI-93xx_sm/lcd.c **** 		sa += dx01;
 11155              		.loc 1 2386 5 view .LVU3419
 11156 0120 E2E7     		b	.L553
 11157              	.LVL798:
 11158              	.L563:
2386:Drivers/display_ILI-93xx_sm/lcd.c **** 		sa += dx01;
 11159              		.loc 1 2386 5 view .LVU3420
 11160 0122 DDF81C90 		ldr	r9, [sp, #28]
 11161              	.LVL799:
2399:Drivers/display_ILI-93xx_sm/lcd.c **** 	sb = dx02 * (y - y0);
 11162              		.loc 1 2399 2 is_stmt 1 view .LVU3421
2399:Drivers/display_ILI-93xx_sm/lcd.c **** 	sb = dx02 * (y - y0);
 11163              		.loc 1 2399 12 is_stmt 0 view .LVU3422
 11164 0126 069A     		ldr	r2, [sp, #24]
 11165 0128 9346     		mov	fp, r2
 11166              	.LVL800:
2399:Drivers/display_ILI-93xx_sm/lcd.c **** 	sb = dx02 * (y - y0);
 11167              		.loc 1 2399 17 view .LVU3423
 11168 012a 059B     		ldr	r3, [sp, #20]
 11169 012c E61A     		subs	r6, r4, r3
 11170              	.LVL801:
2399:Drivers/display_ILI-93xx_sm/lcd.c **** 	sb = dx02 * (y - y0);
ARM GAS  /tmp/cc47Teva.s 			page 286


 11171              		.loc 1 2399 5 view .LVU3424
 11172 012e 06FB02F6 		mul	r6, r6, r2
 11173              	.LVL802:
2400:Drivers/display_ILI-93xx_sm/lcd.c **** 	for(; y <= y2; y++) {
 11174              		.loc 1 2400 2 is_stmt 1 view .LVU3425
2400:Drivers/display_ILI-93xx_sm/lcd.c **** 	for(; y <= y2; y++) {
 11175              		.loc 1 2400 12 is_stmt 0 view .LVU3426
 11176 0132 AA46     		mov	r10, r5
2400:Drivers/display_ILI-93xx_sm/lcd.c **** 	for(; y <= y2; y++) {
 11177              		.loc 1 2400 17 view .LVU3427
 11178 0134 019B     		ldr	r3, [sp, #4]
 11179 0136 E31A     		subs	r3, r4, r3
2400:Drivers/display_ILI-93xx_sm/lcd.c **** 	for(; y <= y2; y++) {
 11180              		.loc 1 2400 5 view .LVU3428
 11181 0138 03FB05F5 		mul	r5, r3, r5
 11182              	.LVL803:
2401:Drivers/display_ILI-93xx_sm/lcd.c **** 		a = x1 + sa / dy12;
 11183              		.loc 1 2401 2 is_stmt 1 view .LVU3429
 11184 013c 09E0     		b	.L555
 11185              	.L556:
 11186              	.LVL804:
2411:Drivers/display_ILI-93xx_sm/lcd.c **** 	}
 11187              		.loc 1 2411 3 view .LVU3430
2411:Drivers/display_ILI-93xx_sm/lcd.c **** 	}
 11188              		.loc 1 2411 29 is_stmt 0 view .LVU3431
 11189 013e 121A     		subs	r2, r2, r0
 11190              	.LVL805:
2411:Drivers/display_ILI-93xx_sm/lcd.c **** 	}
 11191              		.loc 1 2411 29 view .LVU3432
 11192 0140 92B2     		uxth	r2, r2
2411:Drivers/display_ILI-93xx_sm/lcd.c **** 	}
 11193              		.loc 1 2411 33 view .LVU3433
 11194 0142 0132     		adds	r2, r2, #1
2411:Drivers/display_ILI-93xx_sm/lcd.c **** 	}
 11195              		.loc 1 2411 3 view .LVU3434
 11196 0144 009B     		ldr	r3, [sp]
 11197 0146 12B2     		sxth	r2, r2
 11198 0148 2146     		mov	r1, r4
 11199 014a FFF7FEFF 		bl	LCD_DrawFastHLine
 11200              	.LVL806:
2401:Drivers/display_ILI-93xx_sm/lcd.c **** 		a = x1 + sa / dy12;
 11201              		.loc 1 2401 18 view .LVU3435
 11202 014e 0134     		adds	r4, r4, #1
 11203              	.LVL807:
2401:Drivers/display_ILI-93xx_sm/lcd.c **** 		a = x1 + sa / dy12;
 11204              		.loc 1 2401 18 view .LVU3436
 11205 0150 24B2     		sxth	r4, r4
 11206              	.LVL808:
 11207              	.L555:
2401:Drivers/display_ILI-93xx_sm/lcd.c **** 		a = x1 + sa / dy12;
 11208              		.loc 1 2401 2 discriminator 1 view .LVU3437
 11209 0152 A145     		cmp	r9, r4
 11210 0154 BBDB     		blt	.L543
2402:Drivers/display_ILI-93xx_sm/lcd.c **** 		b = x0 + sb / dy02;
 11211              		.loc 1 2402 3 is_stmt 1 view .LVU3438
2402:Drivers/display_ILI-93xx_sm/lcd.c **** 		b = x0 + sb / dy02;
 11212              		.loc 1 2402 15 is_stmt 0 view .LVU3439
ARM GAS  /tmp/cc47Teva.s 			page 287


 11213 0156 049B     		ldr	r3, [sp, #16]
 11214 0158 96FBF3F2 		sdiv	r2, r6, r3
2402:Drivers/display_ILI-93xx_sm/lcd.c **** 		b = x0 + sb / dy02;
 11215              		.loc 1 2402 10 view .LVU3440
 11216 015c 029B     		ldr	r3, [sp, #8]
 11217 015e 1A44     		add	r2, r2, r3
2402:Drivers/display_ILI-93xx_sm/lcd.c **** 		b = x0 + sb / dy02;
 11218              		.loc 1 2402 5 view .LVU3441
 11219 0160 12B2     		sxth	r2, r2
 11220              	.LVL809:
2403:Drivers/display_ILI-93xx_sm/lcd.c **** 		sa += dx12;
 11221              		.loc 1 2403 3 is_stmt 1 view .LVU3442
2403:Drivers/display_ILI-93xx_sm/lcd.c **** 		sa += dx12;
 11222              		.loc 1 2403 15 is_stmt 0 view .LVU3443
 11223 0162 95FBF8F0 		sdiv	r0, r5, r8
2403:Drivers/display_ILI-93xx_sm/lcd.c **** 		sa += dx12;
 11224              		.loc 1 2403 10 view .LVU3444
 11225 0166 3844     		add	r0, r0, r7
2403:Drivers/display_ILI-93xx_sm/lcd.c **** 		sa += dx12;
 11226              		.loc 1 2403 5 view .LVU3445
 11227 0168 00B2     		sxth	r0, r0
 11228              	.LVL810:
2404:Drivers/display_ILI-93xx_sm/lcd.c **** 		sb += dx02;
 11229              		.loc 1 2404 3 is_stmt 1 view .LVU3446
2404:Drivers/display_ILI-93xx_sm/lcd.c **** 		sb += dx02;
 11230              		.loc 1 2404 6 is_stmt 0 view .LVU3447
 11231 016a 5E44     		add	r6, r6, fp
 11232              	.LVL811:
2405:Drivers/display_ILI-93xx_sm/lcd.c **** 		/* longhand:
 11233              		.loc 1 2405 3 is_stmt 1 view .LVU3448
2405:Drivers/display_ILI-93xx_sm/lcd.c **** 		/* longhand:
 11234              		.loc 1 2405 6 is_stmt 0 view .LVU3449
 11235 016c 5544     		add	r5, r5, r10
 11236              	.LVL812:
2410:Drivers/display_ILI-93xx_sm/lcd.c **** 		LCD_DrawFastHLine(a, y, b - a + 1, color);
 11237              		.loc 1 2410 3 is_stmt 1 view .LVU3450
2410:Drivers/display_ILI-93xx_sm/lcd.c **** 		LCD_DrawFastHLine(a, y, b - a + 1, color);
 11238              		.loc 1 2410 5 is_stmt 0 view .LVU3451
 11239 016e 8242     		cmp	r2, r0
 11240 0170 E5DC     		bgt	.L556
 11241 0172 0346     		mov	r3, r0
2402:Drivers/display_ILI-93xx_sm/lcd.c **** 		b = x0 + sb / dy02;
 11242              		.loc 1 2402 5 view .LVU3452
 11243 0174 1046     		mov	r0, r2
 11244              	.LVL813:
2403:Drivers/display_ILI-93xx_sm/lcd.c **** 		sa += dx12;
 11245              		.loc 1 2403 5 view .LVU3453
 11246 0176 1A46     		mov	r2, r3
 11247              	.LVL814:
2403:Drivers/display_ILI-93xx_sm/lcd.c **** 		sa += dx12;
 11248              		.loc 1 2403 5 view .LVU3454
 11249 0178 E1E7     		b	.L556
 11250              		.cfi_endproc
 11251              	.LFE97:
 11253              		.section	.text.LCD_DrawRoundRect,"ax",%progbits
 11254              		.align	1
 11255              		.global	LCD_DrawRoundRect
ARM GAS  /tmp/cc47Teva.s 			page 288


 11256              		.syntax unified
 11257              		.thumb
 11258              		.thumb_func
 11259              		.fpu softvfp
 11261              	LCD_DrawRoundRect:
 11262              	.LVL815:
 11263              	.LFB98:
2414:Drivers/display_ILI-93xx_sm/lcd.c **** 
2415:Drivers/display_ILI-93xx_sm/lcd.c **** /**
2416:Drivers/display_ILI-93xx_sm/lcd.c ****  * \brief Draws a rectangle with rounded corners specified by a coordinate pair, a width, and a hei
2417:Drivers/display_ILI-93xx_sm/lcd.c ****  *
2418:Drivers/display_ILI-93xx_sm/lcd.c ****  * \param x			The x-coordinate of the upper-left corner of the rectangle to draw
2419:Drivers/display_ILI-93xx_sm/lcd.c ****  * \param y			The y-coordinate of the upper-left corner of the rectangle to draw
2420:Drivers/display_ILI-93xx_sm/lcd.c ****  * \param w			Width of the rectangle to draw
2421:Drivers/display_ILI-93xx_sm/lcd.c ****  * \param h			Height of the rectangle to draw
2422:Drivers/display_ILI-93xx_sm/lcd.c ****  * \param r			Radius
2423:Drivers/display_ILI-93xx_sm/lcd.c ****  * \param color		Color
2424:Drivers/display_ILI-93xx_sm/lcd.c ****  *
2425:Drivers/display_ILI-93xx_sm/lcd.c ****  * \return void
2426:Drivers/display_ILI-93xx_sm/lcd.c ****  */
2427:Drivers/display_ILI-93xx_sm/lcd.c **** void LCD_DrawRoundRect(int16_t x, int16_t y, int16_t w, int16_t h, int16_t r, uint16_t color) {
 11264              		.loc 1 2427 95 is_stmt 1 view -0
 11265              		.cfi_startproc
 11266              		@ args = 8, pretend = 0, frame = 16
 11267              		@ frame_needed = 0, uses_anonymous_args = 0
 11268              		.loc 1 2427 95 is_stmt 0 view .LVU3456
 11269 0000 2DE9F04F 		push	{r4, r5, r6, r7, r8, r9, r10, fp, lr}
 11270              	.LCFI53:
 11271              		.cfi_def_cfa_offset 36
 11272              		.cfi_offset 4, -36
 11273              		.cfi_offset 5, -32
 11274              		.cfi_offset 6, -28
 11275              		.cfi_offset 7, -24
 11276              		.cfi_offset 8, -20
 11277              		.cfi_offset 9, -16
 11278              		.cfi_offset 10, -12
 11279              		.cfi_offset 11, -8
 11280              		.cfi_offset 14, -4
 11281 0004 87B0     		sub	sp, sp, #28
 11282              	.LCFI54:
 11283              		.cfi_def_cfa_offset 64
 11284 0006 0D46     		mov	r5, r1
 11285 0008 1E46     		mov	r6, r3
 11286 000a BDF94030 		ldrsh	r3, [sp, #64]
 11287              	.LVL816:
 11288              		.loc 1 2427 95 view .LVU3457
 11289 000e BDF84470 		ldrh	r7, [sp, #68]
2428:Drivers/display_ILI-93xx_sm/lcd.c **** 	// smarter version
2429:Drivers/display_ILI-93xx_sm/lcd.c **** 	LCD_DrawFastHLine(x + r, y, w - 2 * r, color); // Top
 11290              		.loc 1 2429 2 is_stmt 1 view .LVU3458
 11291              		.loc 1 2429 22 is_stmt 0 view .LVU3459
 11292 0012 0390     		str	r0, [sp, #12]
 11293 0014 BDF80CA0 		ldrh	r10, [sp, #12]
 11294 0018 0493     		str	r3, [sp, #16]
 11295 001a BDF81080 		ldrh	r8, [sp, #16]
 11296 001e 0AEB0803 		add	r3, r10, r8
 11297              		.loc 1 2429 2 view .LVU3460
ARM GAS  /tmp/cc47Teva.s 			page 289


 11298 0022 1CB2     		sxth	r4, r3
 11299              		.loc 1 2429 32 view .LVU3461
 11300 0024 1FFA82FB 		uxth	fp, r2
 11301              		.loc 1 2429 36 view .LVU3462
 11302 0028 4FEA4809 		lsl	r9, r8, #1
 11303 002c 1FFA89F9 		uxth	r9, r9
 11304              		.loc 1 2429 32 view .LVU3463
 11305 0030 ABEB0903 		sub	r3, fp, r9
 11306              		.loc 1 2429 2 view .LVU3464
 11307 0034 1AB2     		sxth	r2, r3
 11308              	.LVL817:
 11309              		.loc 1 2429 2 view .LVU3465
 11310 0036 3B46     		mov	r3, r7
 11311 0038 0592     		str	r2, [sp, #20]
 11312 003a 0294     		str	r4, [sp, #8]
 11313 003c 2046     		mov	r0, r4
 11314              	.LVL818:
 11315              		.loc 1 2429 2 view .LVU3466
 11316 003e FFF7FEFF 		bl	LCD_DrawFastHLine
 11317              	.LVL819:
2430:Drivers/display_ILI-93xx_sm/lcd.c **** 	LCD_DrawFastHLine(x + r, y + h - 1, w - 2 * r, color); // Bottom
 11318              		.loc 1 2430 2 is_stmt 1 view .LVU3467
 11319              		.loc 1 2430 29 is_stmt 0 view .LVU3468
 11320 0042 ADB2     		uxth	r5, r5
 11321 0044 B6B2     		uxth	r6, r6
 11322 0046 AC19     		adds	r4, r5, r6
 11323 0048 A4B2     		uxth	r4, r4
 11324              		.loc 1 2430 33 view .LVU3469
 11325 004a 611E     		subs	r1, r4, #1
 11326              		.loc 1 2430 2 view .LVU3470
 11327 004c 3B46     		mov	r3, r7
 11328 004e 059A     		ldr	r2, [sp, #20]
 11329 0050 09B2     		sxth	r1, r1
 11330 0052 0298     		ldr	r0, [sp, #8]
 11331 0054 FFF7FEFF 		bl	LCD_DrawFastHLine
 11332              	.LVL820:
2431:Drivers/display_ILI-93xx_sm/lcd.c **** 	LCD_DrawFastVLine(x, y + r, h - 2 * r, color); // Left
 11333              		.loc 1 2431 2 is_stmt 1 view .LVU3471
 11334              		.loc 1 2431 25 is_stmt 0 view .LVU3472
 11335 0058 4544     		add	r5, r5, r8
 11336              		.loc 1 2431 2 view .LVU3473
 11337 005a 2DB2     		sxth	r5, r5
 11338              		.loc 1 2431 32 view .LVU3474
 11339 005c A6EB0906 		sub	r6, r6, r9
 11340              		.loc 1 2431 2 view .LVU3475
 11341 0060 36B2     		sxth	r6, r6
 11342 0062 3B46     		mov	r3, r7
 11343 0064 3246     		mov	r2, r6
 11344 0066 2946     		mov	r1, r5
 11345 0068 0398     		ldr	r0, [sp, #12]
 11346 006a FFF7FEFF 		bl	LCD_DrawFastVLine
 11347              	.LVL821:
2432:Drivers/display_ILI-93xx_sm/lcd.c **** 	LCD_DrawFastVLine(x + w - 1, y + r, h - 2 * r, color); // Right
 11348              		.loc 1 2432 2 is_stmt 1 view .LVU3476
 11349              		.loc 1 2432 22 is_stmt 0 view .LVU3477
 11350 006e D344     		add	fp, fp, r10
 11351              	.LVL822:
ARM GAS  /tmp/cc47Teva.s 			page 290


 11352              		.loc 1 2432 22 view .LVU3478
 11353 0070 1FFA8BFB 		uxth	fp, fp
 11354              		.loc 1 2432 26 view .LVU3479
 11355 0074 0BF1FF30 		add	r0, fp, #-1
 11356              		.loc 1 2432 2 view .LVU3480
 11357 0078 3B46     		mov	r3, r7
 11358 007a 3246     		mov	r2, r6
 11359 007c 2946     		mov	r1, r5
 11360 007e 00B2     		sxth	r0, r0
 11361 0080 FFF7FEFF 		bl	LCD_DrawFastVLine
 11362              	.LVL823:
2433:Drivers/display_ILI-93xx_sm/lcd.c **** 	// draw four corners
2434:Drivers/display_ILI-93xx_sm/lcd.c **** 	LCD_DrawCircleHelper(x + r, y + r, r, 1, color);
 11363              		.loc 1 2434 2 is_stmt 1 view .LVU3481
 11364 0084 0097     		str	r7, [sp]
 11365 0086 0123     		movs	r3, #1
 11366 0088 DDF81090 		ldr	r9, [sp, #16]
 11367 008c 4A46     		mov	r2, r9
 11368 008e 2946     		mov	r1, r5
 11369 0090 DDF808A0 		ldr	r10, [sp, #8]
 11370 0094 5046     		mov	r0, r10
 11371 0096 FFF7FEFF 		bl	LCD_DrawCircleHelper
 11372              	.LVL824:
2435:Drivers/display_ILI-93xx_sm/lcd.c **** 	LCD_DrawCircleHelper(x + w - r - 1, y + r, r, 2, color);
 11373              		.loc 1 2435 2 view .LVU3482
 11374              		.loc 1 2435 29 is_stmt 0 view .LVU3483
 11375 009a ABEB0806 		sub	r6, fp, r8
 11376 009e B6B2     		uxth	r6, r6
 11377              		.loc 1 2435 33 view .LVU3484
 11378 00a0 013E     		subs	r6, r6, #1
 11379              		.loc 1 2435 2 view .LVU3485
 11380 00a2 36B2     		sxth	r6, r6
 11381 00a4 0097     		str	r7, [sp]
 11382 00a6 0223     		movs	r3, #2
 11383 00a8 4A46     		mov	r2, r9
 11384 00aa 2946     		mov	r1, r5
 11385 00ac 3046     		mov	r0, r6
 11386 00ae FFF7FEFF 		bl	LCD_DrawCircleHelper
 11387              	.LVL825:
2436:Drivers/display_ILI-93xx_sm/lcd.c **** 	LCD_DrawCircleHelper(x + w - r - 1, y + h - r - 1, r, 4, color);
 11388              		.loc 1 2436 2 is_stmt 1 view .LVU3486
 11389              		.loc 1 2436 44 is_stmt 0 view .LVU3487
 11390 00b2 A4EB0804 		sub	r4, r4, r8
 11391 00b6 A4B2     		uxth	r4, r4
 11392              		.loc 1 2436 48 view .LVU3488
 11393 00b8 013C     		subs	r4, r4, #1
 11394              		.loc 1 2436 2 view .LVU3489
 11395 00ba 24B2     		sxth	r4, r4
 11396 00bc 0097     		str	r7, [sp]
 11397 00be 0423     		movs	r3, #4
 11398 00c0 4A46     		mov	r2, r9
 11399 00c2 2146     		mov	r1, r4
 11400 00c4 3046     		mov	r0, r6
 11401 00c6 FFF7FEFF 		bl	LCD_DrawCircleHelper
 11402              	.LVL826:
2437:Drivers/display_ILI-93xx_sm/lcd.c **** 	LCD_DrawCircleHelper(x + r, y + h - r - 1, r, 8, color);
 11403              		.loc 1 2437 2 is_stmt 1 view .LVU3490
ARM GAS  /tmp/cc47Teva.s 			page 291


 11404 00ca 0097     		str	r7, [sp]
 11405 00cc 0823     		movs	r3, #8
 11406 00ce 4A46     		mov	r2, r9
 11407 00d0 2146     		mov	r1, r4
 11408 00d2 5046     		mov	r0, r10
 11409 00d4 FFF7FEFF 		bl	LCD_DrawCircleHelper
 11410              	.LVL827:
2438:Drivers/display_ILI-93xx_sm/lcd.c **** }
 11411              		.loc 1 2438 1 is_stmt 0 view .LVU3491
 11412 00d8 07B0     		add	sp, sp, #28
 11413              	.LCFI55:
 11414              		.cfi_def_cfa_offset 36
 11415              		@ sp needed
 11416 00da BDE8F08F 		pop	{r4, r5, r6, r7, r8, r9, r10, fp, pc}
 11417              		.loc 1 2438 1 view .LVU3492
 11418              		.cfi_endproc
 11419              	.LFE98:
 11421              		.section	.text.LCD_FillRoundRect,"ax",%progbits
 11422              		.align	1
 11423              		.global	LCD_FillRoundRect
 11424              		.syntax unified
 11425              		.thumb
 11426              		.thumb_func
 11427              		.fpu softvfp
 11429              	LCD_FillRoundRect:
 11430              	.LVL828:
 11431              	.LFB99:
2439:Drivers/display_ILI-93xx_sm/lcd.c **** 
2440:Drivers/display_ILI-93xx_sm/lcd.c **** /**
2441:Drivers/display_ILI-93xx_sm/lcd.c ****  * \brief Draws a filled rounded rectangle specified by a coordinate pair, a width, and a height.
2442:Drivers/display_ILI-93xx_sm/lcd.c ****  *
2443:Drivers/display_ILI-93xx_sm/lcd.c ****  * \param x				The x-coordinate of the upper-left corner of the rectangle to draw
2444:Drivers/display_ILI-93xx_sm/lcd.c ****  * \param y				The y-coordinate of the upper-left corner of the rectangle to draw
2445:Drivers/display_ILI-93xx_sm/lcd.c ****  * \param w				Width of the rectangle to draw
2446:Drivers/display_ILI-93xx_sm/lcd.c ****  * \param h				Height of the rectangle to draw
2447:Drivers/display_ILI-93xx_sm/lcd.c ****  * \param r				Radius
2448:Drivers/display_ILI-93xx_sm/lcd.c ****  * \param fillcolor		Color
2449:Drivers/display_ILI-93xx_sm/lcd.c ****  *
2450:Drivers/display_ILI-93xx_sm/lcd.c ****  * \return void
2451:Drivers/display_ILI-93xx_sm/lcd.c ****  */
2452:Drivers/display_ILI-93xx_sm/lcd.c **** void LCD_FillRoundRect(int16_t x, int16_t y, int16_t w, int16_t h, int16_t r, uint16_t color) {
 11432              		.loc 1 2452 95 is_stmt 1 view -0
 11433              		.cfi_startproc
 11434              		@ args = 8, pretend = 0, frame = 8
 11435              		@ frame_needed = 0, uses_anonymous_args = 0
 11436              		.loc 1 2452 95 is_stmt 0 view .LVU3494
 11437 0000 2DE9F04F 		push	{r4, r5, r6, r7, r8, r9, r10, fp, lr}
 11438              	.LCFI56:
 11439              		.cfi_def_cfa_offset 36
 11440              		.cfi_offset 4, -36
 11441              		.cfi_offset 5, -32
 11442              		.cfi_offset 6, -28
 11443              		.cfi_offset 7, -24
 11444              		.cfi_offset 8, -20
 11445              		.cfi_offset 9, -16
 11446              		.cfi_offset 10, -12
 11447              		.cfi_offset 11, -8
ARM GAS  /tmp/cc47Teva.s 			page 292


 11448              		.cfi_offset 14, -4
 11449 0004 85B0     		sub	sp, sp, #20
 11450              	.LCFI57:
 11451              		.cfi_def_cfa_offset 56
 11452 0006 8B46     		mov	fp, r1
 11453 0008 0393     		str	r3, [sp, #12]
 11454 000a BDF93880 		ldrsh	r8, [sp, #56]
 11455 000e BDF83C90 		ldrh	r9, [sp, #60]
2453:Drivers/display_ILI-93xx_sm/lcd.c **** 	// smarter version
2454:Drivers/display_ILI-93xx_sm/lcd.c **** 	LCD_FillRect(x + r, y, w - 2 * r, h, color);
 11456              		.loc 1 2454 2 is_stmt 1 view .LVU3495
 11457              		.loc 1 2454 17 is_stmt 0 view .LVU3496
 11458 0012 84B2     		uxth	r4, r0
 11459 0014 1FFA88F5 		uxth	r5, r8
 11460 0018 6619     		adds	r6, r4, r5
 11461              		.loc 1 2454 2 view .LVU3497
 11462 001a 36B2     		sxth	r6, r6
 11463              		.loc 1 2454 27 view .LVU3498
 11464 001c 1FFA82FA 		uxth	r10, r2
 11465              		.loc 1 2454 31 view .LVU3499
 11466 0020 6F00     		lsls	r7, r5, #1
 11467 0022 BFB2     		uxth	r7, r7
 11468              		.loc 1 2454 27 view .LVU3500
 11469 0024 AAEB0702 		sub	r2, r10, r7
 11470              	.LVL829:
 11471              		.loc 1 2454 2 view .LVU3501
 11472 0028 CDF80090 		str	r9, [sp]
 11473 002c 12B2     		sxth	r2, r2
 11474 002e 3046     		mov	r0, r6
 11475              	.LVL830:
 11476              		.loc 1 2454 2 view .LVU3502
 11477 0030 FFF7FEFF 		bl	LCD_FillRect
 11478              	.LVL831:
2455:Drivers/display_ILI-93xx_sm/lcd.c **** 
2456:Drivers/display_ILI-93xx_sm/lcd.c **** 	// draw four corners
2457:Drivers/display_ILI-93xx_sm/lcd.c **** 	LCD_FillCircleHelper(x + w - r - 1, y + r, r, 1, h - 2 * r - 1, color);
 11479              		.loc 1 2457 2 is_stmt 1 view .LVU3503
 11480              		.loc 1 2457 25 is_stmt 0 view .LVU3504
 11481 0034 04EB0A00 		add	r0, r4, r10
 11482 0038 80B2     		uxth	r0, r0
 11483              		.loc 1 2457 29 view .LVU3505
 11484 003a 401B     		subs	r0, r0, r5
 11485 003c 80B2     		uxth	r0, r0
 11486              		.loc 1 2457 33 view .LVU3506
 11487 003e 0138     		subs	r0, r0, #1
 11488              		.loc 1 2457 40 view .LVU3507
 11489 0040 5D44     		add	r5, r5, fp
 11490              		.loc 1 2457 2 view .LVU3508
 11491 0042 2DB2     		sxth	r5, r5
 11492              		.loc 1 2457 53 view .LVU3509
 11493 0044 039B     		ldr	r3, [sp, #12]
 11494 0046 DF1B     		subs	r7, r3, r7
 11495 0048 BFB2     		uxth	r7, r7
 11496              		.loc 1 2457 61 view .LVU3510
 11497 004a 013F     		subs	r7, r7, #1
 11498              		.loc 1 2457 2 view .LVU3511
 11499 004c 3FB2     		sxth	r7, r7
ARM GAS  /tmp/cc47Teva.s 			page 293


 11500 004e CDF80490 		str	r9, [sp, #4]
 11501 0052 0097     		str	r7, [sp]
 11502 0054 0123     		movs	r3, #1
 11503 0056 4246     		mov	r2, r8
 11504 0058 2946     		mov	r1, r5
 11505 005a 00B2     		sxth	r0, r0
 11506 005c FFF7FEFF 		bl	LCD_FillCircleHelper
 11507              	.LVL832:
2458:Drivers/display_ILI-93xx_sm/lcd.c **** 	LCD_FillCircleHelper(x + r, y + r, r, 2, h - 2 * r - 1, color);
 11508              		.loc 1 2458 2 is_stmt 1 view .LVU3512
 11509 0060 CDF80490 		str	r9, [sp, #4]
 11510 0064 0097     		str	r7, [sp]
 11511 0066 0223     		movs	r3, #2
 11512 0068 4246     		mov	r2, r8
 11513 006a 2946     		mov	r1, r5
 11514 006c 3046     		mov	r0, r6
 11515 006e FFF7FEFF 		bl	LCD_FillCircleHelper
 11516              	.LVL833:
2459:Drivers/display_ILI-93xx_sm/lcd.c **** }
 11517              		.loc 1 2459 1 is_stmt 0 view .LVU3513
 11518 0072 05B0     		add	sp, sp, #20
 11519              	.LCFI58:
 11520              		.cfi_def_cfa_offset 36
 11521              		@ sp needed
 11522 0074 BDE8F08F 		pop	{r4, r5, r6, r7, r8, r9, r10, fp, pc}
 11523              		.loc 1 2459 1 view .LVU3514
 11524              		.cfi_endproc
 11525              	.LFE99:
 11527              		.section	.text.LCD_DrawChar,"ax",%progbits
 11528              		.align	1
 11529              		.global	LCD_DrawChar
 11530              		.syntax unified
 11531              		.thumb
 11532              		.thumb_func
 11533              		.fpu softvfp
 11535              	LCD_DrawChar:
 11536              	.LVL834:
 11537              	.LFB100:
2460:Drivers/display_ILI-93xx_sm/lcd.c **** 
2461:Drivers/display_ILI-93xx_sm/lcd.c **** /**
2462:Drivers/display_ILI-93xx_sm/lcd.c ****  * \brief Draws a character at the specified coordinates
2463:Drivers/display_ILI-93xx_sm/lcd.c ****  *
2464:Drivers/display_ILI-93xx_sm/lcd.c ****  * \param x			The x-coordinate
2465:Drivers/display_ILI-93xx_sm/lcd.c ****  * \param y			The y-coordinate
2466:Drivers/display_ILI-93xx_sm/lcd.c ****  * \param c			Character
2467:Drivers/display_ILI-93xx_sm/lcd.c ****  * \param color		Character color
2468:Drivers/display_ILI-93xx_sm/lcd.c ****  * \param bg		Background color
2469:Drivers/display_ILI-93xx_sm/lcd.c ****  * \param size		Character Size
2470:Drivers/display_ILI-93xx_sm/lcd.c ****  *
2471:Drivers/display_ILI-93xx_sm/lcd.c ****  * \return void
2472:Drivers/display_ILI-93xx_sm/lcd.c ****  */
2473:Drivers/display_ILI-93xx_sm/lcd.c **** void LCD_DrawChar(int16_t x, int16_t y, unsigned char c, uint16_t color, uint16_t bg, uint8_t fonti
 11538              		.loc 1 2473 106 is_stmt 1 view -0
 11539              		.cfi_startproc
 11540              		@ args = 8, pretend = 0, frame = 24
 11541              		@ frame_needed = 0, uses_anonymous_args = 0
 11542              		.loc 1 2473 106 is_stmt 0 view .LVU3516
ARM GAS  /tmp/cc47Teva.s 			page 294


 11543 0000 2DE9F04F 		push	{r4, r5, r6, r7, r8, r9, r10, fp, lr}
 11544              	.LCFI59:
 11545              		.cfi_def_cfa_offset 36
 11546              		.cfi_offset 4, -36
 11547              		.cfi_offset 5, -32
 11548              		.cfi_offset 6, -28
 11549              		.cfi_offset 7, -24
 11550              		.cfi_offset 8, -20
 11551              		.cfi_offset 9, -16
 11552              		.cfi_offset 10, -12
 11553              		.cfi_offset 11, -8
 11554              		.cfi_offset 14, -4
 11555 0004 87B0     		sub	sp, sp, #28
 11556              	.LCFI60:
 11557              		.cfi_def_cfa_offset 64
 11558 0006 0E46     		mov	r6, r1
 11559 0008 0193     		str	r3, [sp, #4]
 11560 000a BDF84030 		ldrh	r3, [sp, #64]
 11561              	.LVL835:
 11562              		.loc 1 2473 106 view .LVU3517
 11563 000e 0293     		str	r3, [sp, #8]
2474:Drivers/display_ILI-93xx_sm/lcd.c **** 	uint16_t height, width, bytes;
 11564              		.loc 1 2474 2 is_stmt 1 view .LVU3518
2475:Drivers/display_ILI-93xx_sm/lcd.c **** 	uint8_t offset;
 11565              		.loc 1 2475 2 view .LVU3519
2476:Drivers/display_ILI-93xx_sm/lcd.c **** 	uint32_t charindex = 0;
 11566              		.loc 1 2476 2 view .LVU3520
 11567              	.LVL836:
2477:Drivers/display_ILI-93xx_sm/lcd.c **** 	uint8_t *pchar;
 11568              		.loc 1 2477 2 view .LVU3521
2478:Drivers/display_ILI-93xx_sm/lcd.c **** 	uint32_t line = 0;
 11569              		.loc 1 2478 2 view .LVU3522
2479:Drivers/display_ILI-93xx_sm/lcd.c **** 
2480:Drivers/display_ILI-93xx_sm/lcd.c **** 	height = fonts[fontindex]->Height;
 11570              		.loc 1 2480 2 view .LVU3523
 11571              		.loc 1 2480 9 is_stmt 0 view .LVU3524
 11572 0010 3B4B     		ldr	r3, .L587
 11573 0012 D988     		ldrh	r1, [r3, #6]
 11574              	.LVL837:
 11575              		.loc 1 2480 9 view .LVU3525
 11576 0014 0391     		str	r1, [sp, #12]
 11577              	.LVL838:
2481:Drivers/display_ILI-93xx_sm/lcd.c **** 	width = fonts[fontindex]->Width;
 11578              		.loc 1 2481 2 is_stmt 1 view .LVU3526
 11579              		.loc 1 2481 8 is_stmt 0 view .LVU3527
 11580 0016 9D88     		ldrh	r5, [r3, #4]
 11581              	.LVL839:
2482:Drivers/display_ILI-93xx_sm/lcd.c **** 
2483:Drivers/display_ILI-93xx_sm/lcd.c **** 	if ((x >= m_width) || // Clip right
 11582              		.loc 1 2483 2 is_stmt 1 view .LVU3528
 11583              		.loc 1 2483 9 is_stmt 0 view .LVU3529
 11584 0018 3A4B     		ldr	r3, .L587+4
 11585 001a B3F90030 		ldrsh	r3, [r3]
 11586              		.loc 1 2483 5 view .LVU3530
 11587 001e 8342     		cmp	r3, r0
 11588 0020 6ADD     		ble	.L568
 11589 0022 8046     		mov	r8, r0
ARM GAS  /tmp/cc47Teva.s 			page 295


2484:Drivers/display_ILI-93xx_sm/lcd.c **** 		(y >= m_height) || // Clip bottom
 11590              		.loc 1 2484 6 discriminator 1 view .LVU3531
 11591 0024 384B     		ldr	r3, .L587+8
 11592 0026 B3F90030 		ldrsh	r3, [r3]
2483:Drivers/display_ILI-93xx_sm/lcd.c **** 		(y >= m_height) || // Clip bottom
 11593              		.loc 1 2483 21 discriminator 1 view .LVU3532
 11594 002a B342     		cmp	r3, r6
 11595 002c 64DD     		ble	.L568
2485:Drivers/display_ILI-93xx_sm/lcd.c **** 		((x + width - 1) < 0) || // Clip left
 11596              		.loc 1 2485 7 view .LVU3533
 11597 002e 4319     		adds	r3, r0, r5
2484:Drivers/display_ILI-93xx_sm/lcd.c **** 		(y >= m_height) || // Clip bottom
 11598              		.loc 1 2484 19 view .LVU3534
 11599 0030 002B     		cmp	r3, #0
 11600 0032 61DD     		ble	.L568
2486:Drivers/display_ILI-93xx_sm/lcd.c **** 		((y + height - 1) < 0))   // Clip top
 11601              		.loc 1 2486 7 view .LVU3535
 11602 0034 7318     		adds	r3, r6, r1
2485:Drivers/display_ILI-93xx_sm/lcd.c **** 		((x + width - 1) < 0) || // Clip left
 11603              		.loc 1 2485 25 view .LVU3536
 11604 0036 002B     		cmp	r3, #0
 11605 0038 5EDD     		ble	.L568
2487:Drivers/display_ILI-93xx_sm/lcd.c **** 		return;
2488:Drivers/display_ILI-93xx_sm/lcd.c **** 
2489:Drivers/display_ILI-93xx_sm/lcd.c **** 	bytes = (width + 7) / 8;
 11606              		.loc 1 2489 2 is_stmt 1 view .LVU3537
 11607              		.loc 1 2489 22 is_stmt 0 view .LVU3538
 11608 003a EB1D     		adds	r3, r5, #7
 11609 003c DB10     		asrs	r3, r3, #3
 11610 003e 0493     		str	r3, [sp, #16]
 11611              	.LVL840:
2490:Drivers/display_ILI-93xx_sm/lcd.c **** 	if (c < ' ') c = ' ';
 11612              		.loc 1 2490 2 is_stmt 1 view .LVU3539
 11613              		.loc 1 2490 5 is_stmt 0 view .LVU3540
 11614 0040 1F2A     		cmp	r2, #31
 11615 0042 03D9     		bls	.L582
2491:Drivers/display_ILI-93xx_sm/lcd.c **** #ifndef USE_CP1251
2492:Drivers/display_ILI-93xx_sm/lcd.c **** 	else if (c > '~') c = ' ';
 11616              		.loc 1 2492 7 is_stmt 1 view .LVU3541
 11617              		.loc 1 2492 10 is_stmt 0 view .LVU3542
 11618 0044 7E2A     		cmp	r2, #126
 11619 0046 02D9     		bls	.L571
 11620              		.loc 1 2492 22 view .LVU3543
 11621 0048 2022     		movs	r2, #32
 11622              	.LVL841:
 11623              		.loc 1 2492 22 view .LVU3544
 11624 004a 00E0     		b	.L571
 11625              	.LVL842:
 11626              	.L582:
2490:Drivers/display_ILI-93xx_sm/lcd.c **** 	if (c < ' ') c = ' ';
 11627              		.loc 1 2490 17 view .LVU3545
 11628 004c 2022     		movs	r2, #32
 11629              	.LVL843:
 11630              	.L571:
2493:Drivers/display_ILI-93xx_sm/lcd.c **** #endif
2494:Drivers/display_ILI-93xx_sm/lcd.c **** 	charindex = (c - ' ') * height * bytes;
 11631              		.loc 1 2494 2 is_stmt 1 view .LVU3546
ARM GAS  /tmp/cc47Teva.s 			page 296


 11632              		.loc 1 2494 17 is_stmt 0 view .LVU3547
 11633 004e A2F12003 		sub	r3, r2, #32
 11634              		.loc 1 2494 24 view .LVU3548
 11635 0052 039A     		ldr	r2, [sp, #12]
 11636              	.LVL844:
 11637              		.loc 1 2494 24 view .LVU3549
 11638 0054 03FB02F3 		mul	r3, r3, r2
 11639 0058 049A     		ldr	r2, [sp, #16]
 11640 005a 1FFA82FB 		uxth	fp, r2
 11641              		.loc 1 2494 33 view .LVU3550
 11642 005e 0BFB03F3 		mul	r3, fp, r3
 11643 0062 0593     		str	r3, [sp, #20]
 11644              	.LVL845:
2495:Drivers/display_ILI-93xx_sm/lcd.c **** 	offset = 8 * bytes - width;
 11645              		.loc 1 2495 2 is_stmt 1 view .LVU3551
 11646              		.loc 1 2495 21 is_stmt 0 view .LVU3552
 11647 0064 4FEAC209 		lsl	r9, r2, #3
 11648 0068 5FFA89F9 		uxtb	r9, r9
 11649 006c EBB2     		uxtb	r3, r5
 11650              	.LVL846:
 11651              		.loc 1 2495 9 view .LVU3553
 11652 006e A9EB0309 		sub	r9, r9, r3
 11653 0072 5FFA89F9 		uxtb	r9, r9
 11654              	.LVL847:
2496:Drivers/display_ILI-93xx_sm/lcd.c **** 
2497:Drivers/display_ILI-93xx_sm/lcd.c **** 	for (uint32_t i = 0; i < height; i++) {
 11655              		.loc 1 2497 2 is_stmt 1 view .LVU3554
 11656              	.LBB903:
 11657              		.loc 1 2497 7 view .LVU3555
 11658              		.loc 1 2497 16 is_stmt 0 view .LVU3556
 11659 0076 4FF0000A 		mov	r10, #0
 11660              		.loc 1 2497 2 view .LVU3557
 11661 007a 25E0     		b	.L572
 11662              	.LVL848:
 11663              	.L573:
2498:Drivers/display_ILI-93xx_sm/lcd.c **** 		pchar = ((uint8_t *) &fonts[fontindex]->table[charindex] + (width + 7) / 8 * i);
2499:Drivers/display_ILI-93xx_sm/lcd.c **** 		switch (bytes) {
2500:Drivers/display_ILI-93xx_sm/lcd.c **** 		case 1:
2501:Drivers/display_ILI-93xx_sm/lcd.c **** 			line = pchar[0];
 11664              		.loc 1 2501 4 is_stmt 1 view .LVU3558
 11665              		.loc 1 2501 16 is_stmt 0 view .LVU3559
 11666 007c D75C     		ldrb	r7, [r2, r3]	@ zero_extendqisi2
 11667              	.LVL849:
2502:Drivers/display_ILI-93xx_sm/lcd.c **** 			break;
 11668              		.loc 1 2502 4 is_stmt 1 view .LVU3560
 11669              	.L576:
2503:Drivers/display_ILI-93xx_sm/lcd.c **** 		case 2:
2504:Drivers/display_ILI-93xx_sm/lcd.c **** 			line = (pchar[0] << 8) | pchar[1];
2505:Drivers/display_ILI-93xx_sm/lcd.c **** 			break;
2506:Drivers/display_ILI-93xx_sm/lcd.c **** 		case 3:
2507:Drivers/display_ILI-93xx_sm/lcd.c **** 		default:
2508:Drivers/display_ILI-93xx_sm/lcd.c **** 			line = (pchar[0] << 16) | (pchar[1] << 8) | pchar[2];
2509:Drivers/display_ILI-93xx_sm/lcd.c **** 			break;
2510:Drivers/display_ILI-93xx_sm/lcd.c **** 		}
2511:Drivers/display_ILI-93xx_sm/lcd.c **** 		for (uint32_t j = 0; j < width; j++) {
 11670              		.loc 1 2511 3 view .LVU3561
 11671              	.LBB904:
ARM GAS  /tmp/cc47Teva.s 			page 297


 11672              		.loc 1 2511 8 view .LVU3562
 11673              		.loc 1 2511 17 is_stmt 0 view .LVU3563
 11674 007e 0024     		movs	r4, #0
 11675              		.loc 1 2511 3 view .LVU3564
 11676 0080 0CE0     		b	.L577
 11677              	.LVL850:
 11678              	.L574:
 11679              		.loc 1 2511 3 view .LVU3565
 11680              	.LBE904:
2504:Drivers/display_ILI-93xx_sm/lcd.c **** 			break;
 11681              		.loc 1 2504 4 is_stmt 1 view .LVU3566
2504:Drivers/display_ILI-93xx_sm/lcd.c **** 			break;
 11682              		.loc 1 2504 17 is_stmt 0 view .LVU3567
 11683 0082 D35C     		ldrb	r3, [r2, r3]	@ zero_extendqisi2
2504:Drivers/display_ILI-93xx_sm/lcd.c **** 			break;
 11684              		.loc 1 2504 34 view .LVU3568
 11685 0084 4F78     		ldrb	r7, [r1, #1]	@ zero_extendqisi2
2504:Drivers/display_ILI-93xx_sm/lcd.c **** 			break;
 11686              		.loc 1 2504 27 view .LVU3569
 11687 0086 47EA0327 		orr	r7, r7, r3, lsl #8
 11688              	.LVL851:
2505:Drivers/display_ILI-93xx_sm/lcd.c **** 		case 3:
 11689              		.loc 1 2505 4 is_stmt 1 view .LVU3570
 11690 008a F8E7     		b	.L576
 11691              	.LVL852:
 11692              	.L578:
 11693              	.LBB905:
2512:Drivers/display_ILI-93xx_sm/lcd.c **** 			if (line & (1 << (width - j + offset - 1))) {
2513:Drivers/display_ILI-93xx_sm/lcd.c **** 				LCD_DrawPixel((x + j), y, color);
2514:Drivers/display_ILI-93xx_sm/lcd.c **** 			} else {
2515:Drivers/display_ILI-93xx_sm/lcd.c **** 				LCD_DrawPixel((x + j), y, bg);
 11694              		.loc 1 2515 5 view .LVU3571
 11695              		.loc 1 2515 22 is_stmt 0 view .LVU3572
 11696 008c 04EB0800 		add	r0, r4, r8
 11697              		.loc 1 2515 5 view .LVU3573
 11698 0090 029A     		ldr	r2, [sp, #8]
 11699 0092 3146     		mov	r1, r6
 11700 0094 00B2     		sxth	r0, r0
 11701 0096 FFF7FEFF 		bl	LCD_DrawPixel
 11702              	.LVL853:
 11703              	.L579:
2511:Drivers/display_ILI-93xx_sm/lcd.c **** 			if (line & (1 << (width - j + offset - 1))) {
 11704              		.loc 1 2511 36 discriminator 2 view .LVU3574
 11705 009a 0134     		adds	r4, r4, #1
 11706              	.LVL854:
 11707              	.L577:
2511:Drivers/display_ILI-93xx_sm/lcd.c **** 			if (line & (1 << (width - j + offset - 1))) {
 11708              		.loc 1 2511 3 discriminator 1 view .LVU3575
 11709 009c A542     		cmp	r5, r4
 11710 009e 0FD9     		bls	.L586
2512:Drivers/display_ILI-93xx_sm/lcd.c **** 			if (line & (1 << (width - j + offset - 1))) {
 11711              		.loc 1 2512 4 is_stmt 1 view .LVU3576
2512:Drivers/display_ILI-93xx_sm/lcd.c **** 			if (line & (1 << (width - j + offset - 1))) {
 11712              		.loc 1 2512 28 is_stmt 0 view .LVU3577
 11713 00a0 2B1B     		subs	r3, r5, r4
2512:Drivers/display_ILI-93xx_sm/lcd.c **** 			if (line & (1 << (width - j + offset - 1))) {
 11714              		.loc 1 2512 32 view .LVU3578
ARM GAS  /tmp/cc47Teva.s 			page 298


 11715 00a2 4B44     		add	r3, r3, r9
2512:Drivers/display_ILI-93xx_sm/lcd.c **** 			if (line & (1 << (width - j + offset - 1))) {
 11716              		.loc 1 2512 41 view .LVU3579
 11717 00a4 013B     		subs	r3, r3, #1
2512:Drivers/display_ILI-93xx_sm/lcd.c **** 			if (line & (1 << (width - j + offset - 1))) {
 11718              		.loc 1 2512 18 view .LVU3580
 11719 00a6 0122     		movs	r2, #1
 11720 00a8 02FA03F3 		lsl	r3, r2, r3
2512:Drivers/display_ILI-93xx_sm/lcd.c **** 			if (line & (1 << (width - j + offset - 1))) {
 11721              		.loc 1 2512 7 view .LVU3581
 11722 00ac 3B42     		tst	r3, r7
 11723 00ae EDD0     		beq	.L578
2513:Drivers/display_ILI-93xx_sm/lcd.c **** 			} else {
 11724              		.loc 1 2513 5 is_stmt 1 view .LVU3582
2513:Drivers/display_ILI-93xx_sm/lcd.c **** 			} else {
 11725              		.loc 1 2513 22 is_stmt 0 view .LVU3583
 11726 00b0 04EB0800 		add	r0, r4, r8
2513:Drivers/display_ILI-93xx_sm/lcd.c **** 			} else {
 11727              		.loc 1 2513 5 view .LVU3584
 11728 00b4 019A     		ldr	r2, [sp, #4]
 11729 00b6 3146     		mov	r1, r6
 11730 00b8 00B2     		sxth	r0, r0
 11731 00ba FFF7FEFF 		bl	LCD_DrawPixel
 11732              	.LVL855:
 11733 00be ECE7     		b	.L579
 11734              	.L586:
2513:Drivers/display_ILI-93xx_sm/lcd.c **** 			} else {
 11735              		.loc 1 2513 5 view .LVU3585
 11736              	.LBE905:
2516:Drivers/display_ILI-93xx_sm/lcd.c **** 			}
2517:Drivers/display_ILI-93xx_sm/lcd.c **** 		}
2518:Drivers/display_ILI-93xx_sm/lcd.c **** 		y++;
 11737              		.loc 1 2518 3 is_stmt 1 discriminator 2 view .LVU3586
 11738              		.loc 1 2518 4 is_stmt 0 discriminator 2 view .LVU3587
 11739 00c0 0136     		adds	r6, r6, #1
 11740              	.LVL856:
 11741              		.loc 1 2518 4 discriminator 2 view .LVU3588
 11742 00c2 36B2     		sxth	r6, r6
 11743              	.LVL857:
2497:Drivers/display_ILI-93xx_sm/lcd.c **** 		pchar = ((uint8_t *) &fonts[fontindex]->table[charindex] + (width + 7) / 8 * i);
 11744              		.loc 1 2497 36 discriminator 2 view .LVU3589
 11745 00c4 0AF1010A 		add	r10, r10, #1
 11746              	.LVL858:
 11747              	.L572:
2497:Drivers/display_ILI-93xx_sm/lcd.c **** 		pchar = ((uint8_t *) &fonts[fontindex]->table[charindex] + (width + 7) / 8 * i);
 11748              		.loc 1 2497 2 discriminator 1 view .LVU3590
 11749 00c8 039B     		ldr	r3, [sp, #12]
 11750 00ca 5345     		cmp	r3, r10
 11751 00cc 14D9     		bls	.L568
2498:Drivers/display_ILI-93xx_sm/lcd.c **** 		switch (bytes) {
 11752              		.loc 1 2498 3 is_stmt 1 view .LVU3591
2498:Drivers/display_ILI-93xx_sm/lcd.c **** 		switch (bytes) {
 11753              		.loc 1 2498 41 is_stmt 0 view .LVU3592
 11754 00ce 0C4B     		ldr	r3, .L587
 11755 00d0 1A68     		ldr	r2, [r3]
2498:Drivers/display_ILI-93xx_sm/lcd.c **** 		switch (bytes) {
 11756              		.loc 1 2498 9 view .LVU3593
ARM GAS  /tmp/cc47Teva.s 			page 299


 11757 00d2 049B     		ldr	r3, [sp, #16]
 11758 00d4 0599     		ldr	r1, [sp, #20]
 11759 00d6 0AFB0313 		mla	r3, r10, r3, r1
 11760 00da D118     		adds	r1, r2, r3
 11761              	.LVL859:
2499:Drivers/display_ILI-93xx_sm/lcd.c **** 		case 1:
 11762              		.loc 1 2499 3 is_stmt 1 view .LVU3594
 11763 00dc BBF1010F 		cmp	fp, #1
 11764 00e0 CCD0     		beq	.L573
 11765 00e2 BBF1020F 		cmp	fp, #2
 11766 00e6 CCD0     		beq	.L574
2508:Drivers/display_ILI-93xx_sm/lcd.c **** 			break;
 11767              		.loc 1 2508 4 view .LVU3595
2508:Drivers/display_ILI-93xx_sm/lcd.c **** 			break;
 11768              		.loc 1 2508 17 is_stmt 0 view .LVU3596
 11769 00e8 D35C     		ldrb	r3, [r2, r3]	@ zero_extendqisi2
2508:Drivers/display_ILI-93xx_sm/lcd.c **** 			break;
 11770              		.loc 1 2508 36 view .LVU3597
 11771 00ea 4F78     		ldrb	r7, [r1, #1]	@ zero_extendqisi2
2508:Drivers/display_ILI-93xx_sm/lcd.c **** 			break;
 11772              		.loc 1 2508 40 view .LVU3598
 11773 00ec 3F02     		lsls	r7, r7, #8
2508:Drivers/display_ILI-93xx_sm/lcd.c **** 			break;
 11774              		.loc 1 2508 28 view .LVU3599
 11775 00ee 47EA0347 		orr	r7, r7, r3, lsl #16
2508:Drivers/display_ILI-93xx_sm/lcd.c **** 			break;
 11776              		.loc 1 2508 53 view .LVU3600
 11777 00f2 8B78     		ldrb	r3, [r1, #2]	@ zero_extendqisi2
2508:Drivers/display_ILI-93xx_sm/lcd.c **** 			break;
 11778              		.loc 1 2508 46 view .LVU3601
 11779 00f4 1F43     		orrs	r7, r7, r3
 11780              	.LVL860:
2509:Drivers/display_ILI-93xx_sm/lcd.c **** 		}
 11781              		.loc 1 2509 4 is_stmt 1 view .LVU3602
 11782 00f6 C2E7     		b	.L576
 11783              	.LVL861:
 11784              	.L568:
2509:Drivers/display_ILI-93xx_sm/lcd.c **** 		}
 11785              		.loc 1 2509 4 is_stmt 0 view .LVU3603
 11786              	.LBE903:
2519:Drivers/display_ILI-93xx_sm/lcd.c **** 	}
2520:Drivers/display_ILI-93xx_sm/lcd.c **** }
 11787              		.loc 1 2520 1 view .LVU3604
 11788 00f8 07B0     		add	sp, sp, #28
 11789              	.LCFI61:
 11790              		.cfi_def_cfa_offset 36
 11791              		@ sp needed
 11792 00fa BDE8F08F 		pop	{r4, r5, r6, r7, r8, r9, r10, fp, pc}
 11793              	.LVL862:
 11794              	.L588:
 11795              		.loc 1 2520 1 view .LVU3605
 11796 00fe 00BF     		.align	2
 11797              	.L587:
 11798 0100 00000000 		.word	Font8
 11799 0104 00000000 		.word	.LANCHOR0
 11800 0108 00000000 		.word	.LANCHOR1
 11801              		.cfi_endproc
ARM GAS  /tmp/cc47Teva.s 			page 300


 11802              	.LFE100:
 11804              		.section	.text.LCD_Printf,"ax",%progbits
 11805              		.align	1
 11806              		.global	LCD_Printf
 11807              		.syntax unified
 11808              		.thumb
 11809              		.thumb_func
 11810              		.fpu softvfp
 11812              	LCD_Printf:
 11813              	.LVL863:
 11814              	.LFB101:
2521:Drivers/display_ILI-93xx_sm/lcd.c **** 
2522:Drivers/display_ILI-93xx_sm/lcd.c **** /**
2523:Drivers/display_ILI-93xx_sm/lcd.c ****  * \brief Print the specified Text
2524:Drivers/display_ILI-93xx_sm/lcd.c ****  *
2525:Drivers/display_ILI-93xx_sm/lcd.c ****  * \param fmt	Format text
2526:Drivers/display_ILI-93xx_sm/lcd.c ****  * \param
2527:Drivers/display_ILI-93xx_sm/lcd.c ****  *
2528:Drivers/display_ILI-93xx_sm/lcd.c ****  * \return void
2529:Drivers/display_ILI-93xx_sm/lcd.c ****  */
2530:Drivers/display_ILI-93xx_sm/lcd.c **** void LCD_Printf(const char *fmt, ...) {
 11815              		.loc 1 2530 39 is_stmt 1 view -0
 11816              		.cfi_startproc
 11817              		@ args = 4, pretend = 16, frame = 8
 11818              		@ frame_needed = 0, uses_anonymous_args = 1
 11819              		.loc 1 2530 39 is_stmt 0 view .LVU3607
 11820 0000 0FB4     		push	{r0, r1, r2, r3}
 11821              	.LCFI62:
 11822              		.cfi_def_cfa_offset 16
 11823              		.cfi_offset 0, -16
 11824              		.cfi_offset 1, -12
 11825              		.cfi_offset 2, -8
 11826              		.cfi_offset 3, -4
 11827 0002 30B5     		push	{r4, r5, lr}
 11828              	.LCFI63:
 11829              		.cfi_def_cfa_offset 28
 11830              		.cfi_offset 4, -28
 11831              		.cfi_offset 5, -24
 11832              		.cfi_offset 14, -20
 11833 0004 85B0     		sub	sp, sp, #20
 11834              	.LCFI64:
 11835              		.cfi_def_cfa_offset 48
 11836 0006 08AA     		add	r2, sp, #32
 11837 0008 52F8041B 		ldr	r1, [r2], #4
2531:Drivers/display_ILI-93xx_sm/lcd.c **** 	static char buf[256];
 11838              		.loc 1 2531 2 is_stmt 1 view .LVU3608
2532:Drivers/display_ILI-93xx_sm/lcd.c **** 	char *p;
 11839              		.loc 1 2532 2 view .LVU3609
2533:Drivers/display_ILI-93xx_sm/lcd.c **** 	va_list lst;
 11840              		.loc 1 2533 2 view .LVU3610
2534:Drivers/display_ILI-93xx_sm/lcd.c **** 
2535:Drivers/display_ILI-93xx_sm/lcd.c **** 	va_start(lst, fmt);
 11841              		.loc 1 2535 2 view .LVU3611
 11842 000c 0392     		str	r2, [sp, #12]
2536:Drivers/display_ILI-93xx_sm/lcd.c **** 	vsprintf(buf, fmt, lst);
 11843              		.loc 1 2536 2 view .LVU3612
 11844 000e 344C     		ldr	r4, .L602
ARM GAS  /tmp/cc47Teva.s 			page 301


 11845 0010 2046     		mov	r0, r4
 11846 0012 FFF7FEFF 		bl	vsprintf
 11847              	.LVL864:
2537:Drivers/display_ILI-93xx_sm/lcd.c **** 	va_end(lst);
 11848              		.loc 1 2537 2 view .LVU3613
2538:Drivers/display_ILI-93xx_sm/lcd.c **** 	
2539:Drivers/display_ILI-93xx_sm/lcd.c **** 	volatile uint16_t height, width;
 11849              		.loc 1 2539 2 view .LVU3614
2540:Drivers/display_ILI-93xx_sm/lcd.c **** 	height = fonts[m_font]->Height;
 11850              		.loc 1 2540 2 view .LVU3615
 11851              		.loc 1 2540 24 is_stmt 0 view .LVU3616
 11852 0016 334B     		ldr	r3, .L602+4
 11853 0018 DA88     		ldrh	r2, [r3, #6]
 11854              		.loc 1 2540 9 view .LVU3617
 11855 001a ADF80A20 		strh	r2, [sp, #10]	@ movhi
2541:Drivers/display_ILI-93xx_sm/lcd.c **** 	width = fonts[m_font]->Width;
 11856              		.loc 1 2541 2 is_stmt 1 view .LVU3618
 11857              		.loc 1 2541 23 is_stmt 0 view .LVU3619
 11858 001e 9B88     		ldrh	r3, [r3, #4]
 11859              		.loc 1 2541 8 view .LVU3620
 11860 0020 ADF80830 		strh	r3, [sp, #8]	@ movhi
2542:Drivers/display_ILI-93xx_sm/lcd.c **** 
2543:Drivers/display_ILI-93xx_sm/lcd.c **** 	p = buf;
 11861              		.loc 1 2543 2 is_stmt 1 view .LVU3621
 11862              	.LVL865:
2544:Drivers/display_ILI-93xx_sm/lcd.c **** 	while (*p) {
 11863              		.loc 1 2544 2 view .LVU3622
 11864              		.loc 1 2544 8 is_stmt 0 view .LVU3623
 11865 0024 09E0     		b	.L590
 11866              	.LVL866:
 11867              	.L599:
2545:Drivers/display_ILI-93xx_sm/lcd.c **** 		if (*p == '\n') {
2546:Drivers/display_ILI-93xx_sm/lcd.c **** 			m_cursor_y += height;
 11868              		.loc 1 2546 4 is_stmt 1 view .LVU3624
 11869 0026 BDF80A30 		ldrh	r3, [sp, #10]
 11870              		.loc 1 2546 15 is_stmt 0 view .LVU3625
 11871 002a 2F4A     		ldr	r2, .L602+8
 11872 002c 1188     		ldrh	r1, [r2]
 11873 002e 0B44     		add	r3, r3, r1
 11874 0030 1380     		strh	r3, [r2]	@ movhi
2547:Drivers/display_ILI-93xx_sm/lcd.c **** 			m_cursor_x = 0;
 11875              		.loc 1 2547 4 is_stmt 1 view .LVU3626
 11876              		.loc 1 2547 15 is_stmt 0 view .LVU3627
 11877 0032 2E4B     		ldr	r3, .L602+12
 11878 0034 0022     		movs	r2, #0
 11879 0036 1A80     		strh	r2, [r3]	@ movhi
 11880              	.L592:
2548:Drivers/display_ILI-93xx_sm/lcd.c **** 		} else if (*p == '\r') {
2549:Drivers/display_ILI-93xx_sm/lcd.c **** 			m_cursor_x = 0;
2550:Drivers/display_ILI-93xx_sm/lcd.c **** 		} else if (*p == '\t') {
2551:Drivers/display_ILI-93xx_sm/lcd.c **** 			m_cursor_x += width * 4;
2552:Drivers/display_ILI-93xx_sm/lcd.c **** 		} else {
2553:Drivers/display_ILI-93xx_sm/lcd.c **** #ifdef WIPE_LINES
2554:Drivers/display_ILI-93xx_sm/lcd.c **** 			if (m_cursor_x == 0) {
2555:Drivers/display_ILI-93xx_sm/lcd.c **** 				LCD_SetAddrWindow(0, m_cursor_y, m_width - 1, m_cursor_y + height);
2556:Drivers/display_ILI-93xx_sm/lcd.c **** 				LCD_Flood(m_textbgcolor, (long) m_width * height);
2557:Drivers/display_ILI-93xx_sm/lcd.c **** 				LCD_SetAddrWindow(0, 0, m_width - 1, m_height - 1);
ARM GAS  /tmp/cc47Teva.s 			page 302


2558:Drivers/display_ILI-93xx_sm/lcd.c **** 			}
2559:Drivers/display_ILI-93xx_sm/lcd.c **** #endif
2560:Drivers/display_ILI-93xx_sm/lcd.c **** 			if (m_cursor_y >= (m_height - height)) {
2561:Drivers/display_ILI-93xx_sm/lcd.c **** 				m_cursor_y = 0;
2562:Drivers/display_ILI-93xx_sm/lcd.c **** #ifdef WIPE_SCREEN
2563:Drivers/display_ILI-93xx_sm/lcd.c **** 				LCD_FillScreen(m_textbgcolor);
2564:Drivers/display_ILI-93xx_sm/lcd.c **** #endif
2565:Drivers/display_ILI-93xx_sm/lcd.c **** 			}
2566:Drivers/display_ILI-93xx_sm/lcd.c **** 			LCD_DrawChar(m_cursor_x, m_cursor_y, *p, m_textcolor, m_textbgcolor, m_font);
2567:Drivers/display_ILI-93xx_sm/lcd.c **** 			m_cursor_x += width;
2568:Drivers/display_ILI-93xx_sm/lcd.c **** 			if (m_wrap && (m_cursor_x > (m_width - width))) {
2569:Drivers/display_ILI-93xx_sm/lcd.c **** 				m_cursor_y += height;
2570:Drivers/display_ILI-93xx_sm/lcd.c **** 				m_cursor_x = 0;
2571:Drivers/display_ILI-93xx_sm/lcd.c **** 			}
2572:Drivers/display_ILI-93xx_sm/lcd.c **** 		}
2573:Drivers/display_ILI-93xx_sm/lcd.c **** 		p++;
 11881              		.loc 1 2573 3 is_stmt 1 view .LVU3628
 11882              		.loc 1 2573 4 is_stmt 0 view .LVU3629
 11883 0038 0134     		adds	r4, r4, #1
 11884              	.LVL867:
 11885              	.L590:
2544:Drivers/display_ILI-93xx_sm/lcd.c **** 		if (*p == '\n') {
 11886              		.loc 1 2544 9 view .LVU3630
 11887 003a 2278     		ldrb	r2, [r4]	@ zero_extendqisi2
2544:Drivers/display_ILI-93xx_sm/lcd.c **** 		if (*p == '\n') {
 11888              		.loc 1 2544 8 view .LVU3631
 11889 003c 002A     		cmp	r2, #0
 11890 003e 4AD0     		beq	.L598
2545:Drivers/display_ILI-93xx_sm/lcd.c **** 			m_cursor_y += height;
 11891              		.loc 1 2545 3 is_stmt 1 view .LVU3632
2545:Drivers/display_ILI-93xx_sm/lcd.c **** 			m_cursor_y += height;
 11892              		.loc 1 2545 6 is_stmt 0 view .LVU3633
 11893 0040 0A2A     		cmp	r2, #10
 11894 0042 F0D0     		beq	.L599
2548:Drivers/display_ILI-93xx_sm/lcd.c **** 		} else if (*p == '\r') {
 11895              		.loc 1 2548 10 is_stmt 1 view .LVU3634
2548:Drivers/display_ILI-93xx_sm/lcd.c **** 		} else if (*p == '\r') {
 11896              		.loc 1 2548 13 is_stmt 0 view .LVU3635
 11897 0044 0D2A     		cmp	r2, #13
 11898 0046 3AD0     		beq	.L600
2550:Drivers/display_ILI-93xx_sm/lcd.c **** 			m_cursor_x += width * 4;
 11899              		.loc 1 2550 10 is_stmt 1 view .LVU3636
2550:Drivers/display_ILI-93xx_sm/lcd.c **** 			m_cursor_x += width * 4;
 11900              		.loc 1 2550 13 is_stmt 0 view .LVU3637
 11901 0048 092A     		cmp	r2, #9
 11902 004a 3CD0     		beq	.L601
2560:Drivers/display_ILI-93xx_sm/lcd.c **** 				m_cursor_y = 0;
 11903              		.loc 1 2560 4 is_stmt 1 view .LVU3638
2560:Drivers/display_ILI-93xx_sm/lcd.c **** 				m_cursor_y = 0;
 11904              		.loc 1 2560 19 is_stmt 0 view .LVU3639
 11905 004c 264B     		ldr	r3, .L602+8
 11906 004e B3F90010 		ldrsh	r1, [r3]
2560:Drivers/display_ILI-93xx_sm/lcd.c **** 				m_cursor_y = 0;
 11907              		.loc 1 2560 32 view .LVU3640
 11908 0052 BDF80A00 		ldrh	r0, [sp, #10]
 11909 0056 264B     		ldr	r3, .L602+16
 11910 0058 B3F90030 		ldrsh	r3, [r3]
ARM GAS  /tmp/cc47Teva.s 			page 303


 11911 005c 1B1A     		subs	r3, r3, r0
2560:Drivers/display_ILI-93xx_sm/lcd.c **** 				m_cursor_y = 0;
 11912              		.loc 1 2560 7 view .LVU3641
 11913 005e 9942     		cmp	r1, r3
 11914 0060 02DB     		blt	.L595
2561:Drivers/display_ILI-93xx_sm/lcd.c **** #ifdef WIPE_SCREEN
 11915              		.loc 1 2561 5 is_stmt 1 view .LVU3642
2561:Drivers/display_ILI-93xx_sm/lcd.c **** #ifdef WIPE_SCREEN
 11916              		.loc 1 2561 16 is_stmt 0 view .LVU3643
 11917 0062 214B     		ldr	r3, .L602+8
 11918 0064 0021     		movs	r1, #0
 11919 0066 1980     		strh	r1, [r3]	@ movhi
 11920              	.L595:
2566:Drivers/display_ILI-93xx_sm/lcd.c **** 			m_cursor_x += width;
 11921              		.loc 1 2566 4 is_stmt 1 view .LVU3644
 11922 0068 204D     		ldr	r5, .L602+12
 11923 006a 224B     		ldr	r3, .L602+20
 11924 006c 1B78     		ldrb	r3, [r3]	@ zero_extendqisi2
 11925 006e 0193     		str	r3, [sp, #4]
 11926 0070 214B     		ldr	r3, .L602+24
 11927 0072 1B88     		ldrh	r3, [r3]
 11928 0074 0093     		str	r3, [sp]
 11929 0076 214B     		ldr	r3, .L602+28
 11930 0078 1B88     		ldrh	r3, [r3]
 11931 007a 1B49     		ldr	r1, .L602+8
 11932 007c B1F90010 		ldrsh	r1, [r1]
 11933 0080 B5F90000 		ldrsh	r0, [r5]
 11934 0084 FFF7FEFF 		bl	LCD_DrawChar
 11935              	.LVL868:
2567:Drivers/display_ILI-93xx_sm/lcd.c **** 			if (m_wrap && (m_cursor_x > (m_width - width))) {
 11936              		.loc 1 2567 4 view .LVU3645
 11937 0088 BDF80830 		ldrh	r3, [sp, #8]
2567:Drivers/display_ILI-93xx_sm/lcd.c **** 			if (m_wrap && (m_cursor_x > (m_width - width))) {
 11938              		.loc 1 2567 15 is_stmt 0 view .LVU3646
 11939 008c 2A88     		ldrh	r2, [r5]
 11940 008e 1344     		add	r3, r3, r2
 11941 0090 1BB2     		sxth	r3, r3
 11942 0092 2B80     		strh	r3, [r5]	@ movhi
2568:Drivers/display_ILI-93xx_sm/lcd.c **** 				m_cursor_y += height;
 11943              		.loc 1 2568 4 is_stmt 1 view .LVU3647
2568:Drivers/display_ILI-93xx_sm/lcd.c **** 				m_cursor_y += height;
 11944              		.loc 1 2568 8 is_stmt 0 view .LVU3648
 11945 0094 1A4A     		ldr	r2, .L602+32
 11946 0096 1278     		ldrb	r2, [r2]	@ zero_extendqisi2
2568:Drivers/display_ILI-93xx_sm/lcd.c **** 				m_cursor_y += height;
 11947              		.loc 1 2568 7 view .LVU3649
 11948 0098 002A     		cmp	r2, #0
 11949 009a CDD0     		beq	.L592
2568:Drivers/display_ILI-93xx_sm/lcd.c **** 				m_cursor_y += height;
 11950              		.loc 1 2568 41 discriminator 1 view .LVU3650
 11951 009c BDF80810 		ldrh	r1, [sp, #8]
 11952 00a0 184A     		ldr	r2, .L602+36
 11953 00a2 B2F90020 		ldrsh	r2, [r2]
 11954 00a6 521A     		subs	r2, r2, r1
2568:Drivers/display_ILI-93xx_sm/lcd.c **** 				m_cursor_y += height;
 11955              		.loc 1 2568 15 discriminator 1 view .LVU3651
 11956 00a8 9342     		cmp	r3, r2
ARM GAS  /tmp/cc47Teva.s 			page 304


 11957 00aa C5DD     		ble	.L592
2569:Drivers/display_ILI-93xx_sm/lcd.c **** 				m_cursor_x = 0;
 11958              		.loc 1 2569 5 is_stmt 1 view .LVU3652
 11959 00ac BDF80A30 		ldrh	r3, [sp, #10]
2569:Drivers/display_ILI-93xx_sm/lcd.c **** 				m_cursor_x = 0;
 11960              		.loc 1 2569 16 is_stmt 0 view .LVU3653
 11961 00b0 0D4A     		ldr	r2, .L602+8
 11962 00b2 1188     		ldrh	r1, [r2]
 11963 00b4 0B44     		add	r3, r3, r1
 11964 00b6 1380     		strh	r3, [r2]	@ movhi
2570:Drivers/display_ILI-93xx_sm/lcd.c **** 			}
 11965              		.loc 1 2570 5 is_stmt 1 view .LVU3654
2570:Drivers/display_ILI-93xx_sm/lcd.c **** 			}
 11966              		.loc 1 2570 16 is_stmt 0 view .LVU3655
 11967 00b8 0022     		movs	r2, #0
 11968 00ba 2A80     		strh	r2, [r5]	@ movhi
 11969 00bc BCE7     		b	.L592
 11970              	.L600:
2549:Drivers/display_ILI-93xx_sm/lcd.c **** 		} else if (*p == '\t') {
 11971              		.loc 1 2549 4 is_stmt 1 view .LVU3656
2549:Drivers/display_ILI-93xx_sm/lcd.c **** 		} else if (*p == '\t') {
 11972              		.loc 1 2549 15 is_stmt 0 view .LVU3657
 11973 00be 0B4B     		ldr	r3, .L602+12
 11974 00c0 0022     		movs	r2, #0
 11975 00c2 1A80     		strh	r2, [r3]	@ movhi
 11976 00c4 B8E7     		b	.L592
 11977              	.L601:
2551:Drivers/display_ILI-93xx_sm/lcd.c **** 		} else {
 11978              		.loc 1 2551 4 is_stmt 1 view .LVU3658
2551:Drivers/display_ILI-93xx_sm/lcd.c **** 		} else {
 11979              		.loc 1 2551 24 is_stmt 0 view .LVU3659
 11980 00c6 BDF80810 		ldrh	r1, [sp, #8]
2551:Drivers/display_ILI-93xx_sm/lcd.c **** 		} else {
 11981              		.loc 1 2551 15 view .LVU3660
 11982 00ca 084A     		ldr	r2, .L602+12
 11983 00cc 1388     		ldrh	r3, [r2]
 11984 00ce 03EB8103 		add	r3, r3, r1, lsl #2
 11985 00d2 1380     		strh	r3, [r2]	@ movhi
 11986 00d4 B0E7     		b	.L592
 11987              	.L598:
2574:Drivers/display_ILI-93xx_sm/lcd.c **** 	}
2575:Drivers/display_ILI-93xx_sm/lcd.c **** }
 11988              		.loc 1 2575 1 view .LVU3661
 11989 00d6 05B0     		add	sp, sp, #20
 11990              	.LCFI65:
 11991              		.cfi_def_cfa_offset 28
 11992              		@ sp needed
 11993 00d8 BDE83040 		pop	{r4, r5, lr}
 11994              	.LCFI66:
 11995              		.cfi_restore 14
 11996              		.cfi_restore 5
 11997              		.cfi_restore 4
 11998              		.cfi_def_cfa_offset 16
 11999              	.LVL869:
 12000              		.loc 1 2575 1 view .LVU3662
 12001 00dc 04B0     		add	sp, sp, #16
 12002              	.LCFI67:
ARM GAS  /tmp/cc47Teva.s 			page 305


 12003              		.cfi_restore 3
 12004              		.cfi_restore 2
 12005              		.cfi_restore 1
 12006              		.cfi_restore 0
 12007              		.cfi_def_cfa_offset 0
 12008 00de 7047     		bx	lr
 12009              	.L603:
 12010              		.align	2
 12011              	.L602:
 12012 00e0 00000000 		.word	.LANCHOR3
 12013 00e4 00000000 		.word	Font8
 12014 00e8 00000000 		.word	.LANCHOR4
 12015 00ec 00000000 		.word	.LANCHOR5
 12016 00f0 00000000 		.word	.LANCHOR1
 12017 00f4 00000000 		.word	.LANCHOR7
 12018 00f8 00000000 		.word	.LANCHOR8
 12019 00fc 00000000 		.word	.LANCHOR6
 12020 0100 00000000 		.word	.LANCHOR9
 12021 0104 00000000 		.word	.LANCHOR0
 12022              		.cfi_endproc
 12023              	.LFE101:
 12025              		.section	.text.LCD_SetCursor,"ax",%progbits
 12026              		.align	1
 12027              		.global	LCD_SetCursor
 12028              		.syntax unified
 12029              		.thumb
 12030              		.thumb_func
 12031              		.fpu softvfp
 12033              	LCD_SetCursor:
 12034              	.LVL870:
 12035              	.LFB102:
2576:Drivers/display_ILI-93xx_sm/lcd.c **** 
2577:Drivers/display_ILI-93xx_sm/lcd.c **** /**
2578:Drivers/display_ILI-93xx_sm/lcd.c ****  * \brief Sets the cursor coordinates
2579:Drivers/display_ILI-93xx_sm/lcd.c ****  *
2580:Drivers/display_ILI-93xx_sm/lcd.c ****  * \param x		The x-coordinate
2581:Drivers/display_ILI-93xx_sm/lcd.c ****  * \param y		The y-coordinate
2582:Drivers/display_ILI-93xx_sm/lcd.c ****  *
2583:Drivers/display_ILI-93xx_sm/lcd.c ****  * \return void
2584:Drivers/display_ILI-93xx_sm/lcd.c ****  */
2585:Drivers/display_ILI-93xx_sm/lcd.c **** void LCD_SetCursor(uint16_t x, uint16_t y) {
 12036              		.loc 1 2585 44 is_stmt 1 view -0
 12037              		.cfi_startproc
 12038              		@ args = 0, pretend = 0, frame = 0
 12039              		@ frame_needed = 0, uses_anonymous_args = 0
 12040              		@ link register save eliminated.
2586:Drivers/display_ILI-93xx_sm/lcd.c **** 	m_cursor_x = x;
 12041              		.loc 1 2586 2 view .LVU3664
 12042              		.loc 1 2586 13 is_stmt 0 view .LVU3665
 12043 0000 024B     		ldr	r3, .L605
 12044 0002 1880     		strh	r0, [r3]	@ movhi
2587:Drivers/display_ILI-93xx_sm/lcd.c **** 	m_cursor_y = y;
 12045              		.loc 1 2587 2 is_stmt 1 view .LVU3666
 12046              		.loc 1 2587 13 is_stmt 0 view .LVU3667
 12047 0004 024B     		ldr	r3, .L605+4
 12048 0006 1980     		strh	r1, [r3]	@ movhi
2588:Drivers/display_ILI-93xx_sm/lcd.c **** }
ARM GAS  /tmp/cc47Teva.s 			page 306


 12049              		.loc 1 2588 1 view .LVU3668
 12050 0008 7047     		bx	lr
 12051              	.L606:
 12052 000a 00BF     		.align	2
 12053              	.L605:
 12054 000c 00000000 		.word	.LANCHOR5
 12055 0010 00000000 		.word	.LANCHOR4
 12056              		.cfi_endproc
 12057              	.LFE102:
 12059              		.section	.text.LCD_SetTextSize,"ax",%progbits
 12060              		.align	1
 12061              		.global	LCD_SetTextSize
 12062              		.syntax unified
 12063              		.thumb
 12064              		.thumb_func
 12065              		.fpu softvfp
 12067              	LCD_SetTextSize:
 12068              	.LVL871:
 12069              	.LFB103:
2589:Drivers/display_ILI-93xx_sm/lcd.c **** 
2590:Drivers/display_ILI-93xx_sm/lcd.c **** /**
2591:Drivers/display_ILI-93xx_sm/lcd.c ****  * \brief Sets the text size
2592:Drivers/display_ILI-93xx_sm/lcd.c ****  *
2593:Drivers/display_ILI-93xx_sm/lcd.c ****  * \param s	Size
2594:Drivers/display_ILI-93xx_sm/lcd.c ****  *
2595:Drivers/display_ILI-93xx_sm/lcd.c ****  * \return void
2596:Drivers/display_ILI-93xx_sm/lcd.c ****  */
2597:Drivers/display_ILI-93xx_sm/lcd.c **** void LCD_SetTextSize(uint8_t s) {
 12070              		.loc 1 2597 33 is_stmt 1 view -0
 12071              		.cfi_startproc
 12072              		@ args = 0, pretend = 0, frame = 0
 12073              		@ frame_needed = 0, uses_anonymous_args = 0
 12074              		@ link register save eliminated.
2598:Drivers/display_ILI-93xx_sm/lcd.c **** 	if (s < 0) {
 12075              		.loc 1 2598 2 view .LVU3670
2599:Drivers/display_ILI-93xx_sm/lcd.c **** 		m_font = 0;
2600:Drivers/display_ILI-93xx_sm/lcd.c **** 	} else if (s >= fontsNum) {
 12076              		.loc 1 2600 9 view .LVU3671
 12077              		.loc 1 2600 12 is_stmt 0 view .LVU3672
 12078 0000 18B1     		cbz	r0, .L608
2601:Drivers/display_ILI-93xx_sm/lcd.c **** 		m_font = fontsNum - 1;
 12079              		.loc 1 2601 3 is_stmt 1 view .LVU3673
 12080              		.loc 1 2601 10 is_stmt 0 view .LVU3674
 12081 0002 034B     		ldr	r3, .L610
 12082 0004 0022     		movs	r2, #0
 12083 0006 1A70     		strb	r2, [r3]
 12084 0008 7047     		bx	lr
 12085              	.L608:
2602:Drivers/display_ILI-93xx_sm/lcd.c **** 	} else {
2603:Drivers/display_ILI-93xx_sm/lcd.c **** 		m_font = s;
 12086              		.loc 1 2603 3 is_stmt 1 view .LVU3675
 12087              		.loc 1 2603 10 is_stmt 0 view .LVU3676
 12088 000a 014A     		ldr	r2, .L610
 12089 000c 1070     		strb	r0, [r2]
2604:Drivers/display_ILI-93xx_sm/lcd.c **** 	}
2605:Drivers/display_ILI-93xx_sm/lcd.c **** }
 12090              		.loc 1 2605 1 view .LVU3677
ARM GAS  /tmp/cc47Teva.s 			page 307


 12091 000e 7047     		bx	lr
 12092              	.L611:
 12093              		.align	2
 12094              	.L610:
 12095 0010 00000000 		.word	.LANCHOR7
 12096              		.cfi_endproc
 12097              	.LFE103:
 12099              		.section	.text.LCD_SetTextColor,"ax",%progbits
 12100              		.align	1
 12101              		.global	LCD_SetTextColor
 12102              		.syntax unified
 12103              		.thumb
 12104              		.thumb_func
 12105              		.fpu softvfp
 12107              	LCD_SetTextColor:
 12108              	.LVL872:
 12109              	.LFB104:
2606:Drivers/display_ILI-93xx_sm/lcd.c **** 
2607:Drivers/display_ILI-93xx_sm/lcd.c **** /**
2608:Drivers/display_ILI-93xx_sm/lcd.c ****  * \brief Sets the text color
2609:Drivers/display_ILI-93xx_sm/lcd.c ****  *
2610:Drivers/display_ILI-93xx_sm/lcd.c ****  * \param c		Text color
2611:Drivers/display_ILI-93xx_sm/lcd.c ****  * \param b		Background color
2612:Drivers/display_ILI-93xx_sm/lcd.c ****  *
2613:Drivers/display_ILI-93xx_sm/lcd.c ****  * \return void
2614:Drivers/display_ILI-93xx_sm/lcd.c ****  */
2615:Drivers/display_ILI-93xx_sm/lcd.c **** void LCD_SetTextColor(uint16_t c, uint16_t b) {
 12110              		.loc 1 2615 47 is_stmt 1 view -0
 12111              		.cfi_startproc
 12112              		@ args = 0, pretend = 0, frame = 0
 12113              		@ frame_needed = 0, uses_anonymous_args = 0
 12114              		@ link register save eliminated.
2616:Drivers/display_ILI-93xx_sm/lcd.c **** 	m_textcolor = c;
 12115              		.loc 1 2616 2 view .LVU3679
 12116              		.loc 1 2616 14 is_stmt 0 view .LVU3680
 12117 0000 024B     		ldr	r3, .L613
 12118 0002 1880     		strh	r0, [r3]	@ movhi
2617:Drivers/display_ILI-93xx_sm/lcd.c **** 	m_textbgcolor = b;
 12119              		.loc 1 2617 2 is_stmt 1 view .LVU3681
 12120              		.loc 1 2617 16 is_stmt 0 view .LVU3682
 12121 0004 024B     		ldr	r3, .L613+4
 12122 0006 1980     		strh	r1, [r3]	@ movhi
2618:Drivers/display_ILI-93xx_sm/lcd.c **** }
 12123              		.loc 1 2618 1 view .LVU3683
 12124 0008 7047     		bx	lr
 12125              	.L614:
 12126 000a 00BF     		.align	2
 12127              	.L613:
 12128 000c 00000000 		.word	.LANCHOR6
 12129 0010 00000000 		.word	.LANCHOR8
 12130              		.cfi_endproc
 12131              	.LFE104:
 12133              		.section	.text.LCD_Init,"ax",%progbits
 12134              		.align	1
 12135              		.global	LCD_Init
 12136              		.syntax unified
 12137              		.thumb
ARM GAS  /tmp/cc47Teva.s 			page 308


 12138              		.thumb_func
 12139              		.fpu softvfp
 12141              	LCD_Init:
 12142              	.LFB79:
1031:Drivers/display_ILI-93xx_sm/lcd.c **** 	m_width = TFTWIDTH;
 12143              		.loc 1 1031 21 is_stmt 1 view -0
 12144              		.cfi_startproc
 12145              		@ args = 0, pretend = 0, frame = 0
 12146              		@ frame_needed = 0, uses_anonymous_args = 0
 12147 0000 F8B5     		push	{r3, r4, r5, r6, r7, lr}
 12148              	.LCFI68:
 12149              		.cfi_def_cfa_offset 24
 12150              		.cfi_offset 3, -24
 12151              		.cfi_offset 4, -20
 12152              		.cfi_offset 5, -16
 12153              		.cfi_offset 6, -12
 12154              		.cfi_offset 7, -8
 12155              		.cfi_offset 14, -4
1032:Drivers/display_ILI-93xx_sm/lcd.c **** 	m_height = TFTHEIGHT;
 12156              		.loc 1 1032 2 view .LVU3685
1032:Drivers/display_ILI-93xx_sm/lcd.c **** 	m_height = TFTHEIGHT;
 12157              		.loc 1 1032 10 is_stmt 0 view .LVU3686
 12158 0002 6D4B     		ldr	r3, .L635
 12159 0004 F022     		movs	r2, #240
 12160 0006 1A80     		strh	r2, [r3]	@ movhi
1033:Drivers/display_ILI-93xx_sm/lcd.c **** 	m_rotation = 0;
 12161              		.loc 1 1033 2 is_stmt 1 view .LVU3687
1033:Drivers/display_ILI-93xx_sm/lcd.c **** 	m_rotation = 0;
 12162              		.loc 1 1033 11 is_stmt 0 view .LVU3688
 12163 0008 6C4B     		ldr	r3, .L635+4
 12164 000a 4FF4A072 		mov	r2, #320
 12165 000e 1A80     		strh	r2, [r3]	@ movhi
1034:Drivers/display_ILI-93xx_sm/lcd.c **** 	m_cursor_y = m_cursor_x = 0;
 12166              		.loc 1 1034 2 is_stmt 1 view .LVU3689
1034:Drivers/display_ILI-93xx_sm/lcd.c **** 	m_cursor_y = m_cursor_x = 0;
 12167              		.loc 1 1034 13 is_stmt 0 view .LVU3690
 12168 0010 0026     		movs	r6, #0
 12169 0012 6B4B     		ldr	r3, .L635+8
 12170 0014 1E70     		strb	r6, [r3]
1035:Drivers/display_ILI-93xx_sm/lcd.c **** 	m_font = 0;
 12171              		.loc 1 1035 2 is_stmt 1 view .LVU3691
1035:Drivers/display_ILI-93xx_sm/lcd.c **** 	m_font = 0;
 12172              		.loc 1 1035 26 is_stmt 0 view .LVU3692
 12173 0016 6B4B     		ldr	r3, .L635+12
 12174 0018 1E80     		strh	r6, [r3]	@ movhi
1035:Drivers/display_ILI-93xx_sm/lcd.c **** 	m_font = 0;
 12175              		.loc 1 1035 13 view .LVU3693
 12176 001a 6B4B     		ldr	r3, .L635+16
 12177 001c 1E80     		strh	r6, [r3]	@ movhi
1036:Drivers/display_ILI-93xx_sm/lcd.c **** 	m_textcolor = m_textbgcolor = 0xFFFF;
 12178              		.loc 1 1036 2 is_stmt 1 view .LVU3694
1036:Drivers/display_ILI-93xx_sm/lcd.c **** 	m_textcolor = m_textbgcolor = 0xFFFF;
 12179              		.loc 1 1036 9 is_stmt 0 view .LVU3695
 12180 001e 6B4B     		ldr	r3, .L635+20
 12181 0020 1E70     		strb	r6, [r3]
1037:Drivers/display_ILI-93xx_sm/lcd.c **** 	m_wrap = 1;
 12182              		.loc 1 1037 2 is_stmt 1 view .LVU3696
ARM GAS  /tmp/cc47Teva.s 			page 309


1037:Drivers/display_ILI-93xx_sm/lcd.c **** 	m_wrap = 1;
 12183              		.loc 1 1037 30 is_stmt 0 view .LVU3697
 12184 0022 4FF6FF73 		movw	r3, #65535
 12185 0026 6A4A     		ldr	r2, .L635+24
 12186 0028 1380     		strh	r3, [r2]	@ movhi
1037:Drivers/display_ILI-93xx_sm/lcd.c **** 	m_wrap = 1;
 12187              		.loc 1 1037 14 view .LVU3698
 12188 002a 6A4A     		ldr	r2, .L635+28
 12189 002c 1380     		strh	r3, [r2]	@ movhi
1038:Drivers/display_ILI-93xx_sm/lcd.c **** 
 12190              		.loc 1 1038 2 is_stmt 1 view .LVU3699
1038:Drivers/display_ILI-93xx_sm/lcd.c **** 
 12191              		.loc 1 1038 9 is_stmt 0 view .LVU3700
 12192 002e 0120     		movs	r0, #1
 12193 0030 694B     		ldr	r3, .L635+32
 12194 0032 1870     		strb	r0, [r3]
1040:Drivers/display_ILI-93xx_sm/lcd.c **** 
 12195              		.loc 1 1040 2 is_stmt 1 view .LVU3701
 12196 0034 FFF7FEFF 		bl	GPIO_Init
 12197              	.LVL873:
1042:Drivers/display_ILI-93xx_sm/lcd.c **** 	HAL_Delay(50);
 12198              		.loc 1 1042 2 view .LVU3702
 12199 0038 FFF7FEFF 		bl	LCD_Reset
 12200              	.LVL874:
1043:Drivers/display_ILI-93xx_sm/lcd.c **** 
 12201              		.loc 1 1043 2 view .LVU3703
 12202 003c 3220     		movs	r0, #50
 12203 003e FFF7FEFF 		bl	HAL_Delay
 12204              	.LVL875:
1045:Drivers/display_ILI-93xx_sm/lcd.c **** 
 12205              		.loc 1 1045 2 view .LVU3704
 12206 0042 664B     		ldr	r3, .L635+36
 12207 0044 4FF48032 		mov	r2, #65536
 12208 0048 1A61     		str	r2, [r3, #16]
1081:Drivers/display_ILI-93xx_sm/lcd.c **** 	while(i < sizeof(ILI9340_regValues)/sizeof(ILI9340_regValues[0])) {
 12209              		.loc 1 1081 2 view .LVU3705
 12210              	.LVL876:
1082:Drivers/display_ILI-93xx_sm/lcd.c **** 		uint8_t r = ILI9340_regValues[i++];
 12211              		.loc 1 1082 2 view .LVU3706
 12212              	.L616:
1082:Drivers/display_ILI-93xx_sm/lcd.c **** 		uint8_t r = ILI9340_regValues[i++];
 12213              		.loc 1 1082 7 is_stmt 0 view .LVU3707
 12214 004a 6D2E     		cmp	r6, #109
 12215 004c 00F29980 		bhi	.L631
 12216              	.LBB921:
1083:Drivers/display_ILI-93xx_sm/lcd.c **** 		uint8_t len = ILI9340_regValues[i++];
 12217              		.loc 1 1083 3 is_stmt 1 view .LVU3708
1083:Drivers/display_ILI-93xx_sm/lcd.c **** 		uint8_t len = ILI9340_regValues[i++];
 12218              		.loc 1 1083 34 is_stmt 0 view .LVU3709
 12219 0050 721C     		adds	r2, r6, #1
 12220 0052 D2B2     		uxtb	r2, r2
 12221              	.LVL877:
1083:Drivers/display_ILI-93xx_sm/lcd.c **** 		uint8_t len = ILI9340_regValues[i++];
 12222              		.loc 1 1083 11 view .LVU3710
 12223 0054 6249     		ldr	r1, .L635+40
 12224 0056 8B5D     		ldrb	r3, [r1, r6]	@ zero_extendqisi2
 12225              	.LVL878:
ARM GAS  /tmp/cc47Teva.s 			page 310


1084:Drivers/display_ILI-93xx_sm/lcd.c **** 		if(r == TFTLCD_DELAY) {
 12226              		.loc 1 1084 3 is_stmt 1 view .LVU3711
1084:Drivers/display_ILI-93xx_sm/lcd.c **** 		if(r == TFTLCD_DELAY) {
 12227              		.loc 1 1084 36 is_stmt 0 view .LVU3712
 12228 0058 0236     		adds	r6, r6, #2
 12229 005a F6B2     		uxtb	r6, r6
 12230              	.LVL879:
1084:Drivers/display_ILI-93xx_sm/lcd.c **** 		if(r == TFTLCD_DELAY) {
 12231              		.loc 1 1084 11 view .LVU3713
 12232 005c 885C     		ldrb	r0, [r1, r2]	@ zero_extendqisi2
 12233              	.LVL880:
1085:Drivers/display_ILI-93xx_sm/lcd.c **** 			HAL_Delay(len);
 12234              		.loc 1 1085 3 is_stmt 1 view .LVU3714
1085:Drivers/display_ILI-93xx_sm/lcd.c **** 			HAL_Delay(len);
 12235              		.loc 1 1085 5 is_stmt 0 view .LVU3715
 12236 005e FF2B     		cmp	r3, #255
 12237 0060 02D1     		bne	.L617
1086:Drivers/display_ILI-93xx_sm/lcd.c **** 		} else {
 12238              		.loc 1 1086 4 is_stmt 1 view .LVU3716
 12239 0062 FFF7FEFF 		bl	HAL_Delay
 12240              	.LVL881:
1086:Drivers/display_ILI-93xx_sm/lcd.c **** 		} else {
 12241              		.loc 1 1086 4 is_stmt 0 view .LVU3717
 12242 0066 F0E7     		b	.L616
 12243              	.LVL882:
 12244              	.L617:
1088:Drivers/display_ILI-93xx_sm/lcd.c **** 			LCD_Write8(r);
 12245              		.loc 1 1088 4 is_stmt 1 view .LVU3718
 12246 0068 5E4C     		ldr	r4, .L635+44
 12247 006a 4FF48012 		mov	r2, #1048576
 12248 006e 2261     		str	r2, [r4, #16]
1089:Drivers/display_ILI-93xx_sm/lcd.c **** 			LCD_CD_DATA();
 12249              		.loc 1 1089 4 view .LVU3719
 12250              	.LVL883:
 12251              	.LBB922:
 12252              	.LBI922:
 847:Drivers/display_ILI-93xx_sm/lcd.c **** 	// ------ PORT -----     --- Data ----
 12253              		.loc 1 847 13 view .LVU3720
 12254              	.LBB923:
 860:Drivers/display_ILI-93xx_sm/lcd.c **** 	GPIOB->ODR = (GPIOB->ODR & 0xFBC7) | (data & 0x08) | ((data & 0x10) << 1) | ((data & 0x20) >> 1) |
 12255              		.loc 1 860 2 view .LVU3721
 860:Drivers/display_ILI-93xx_sm/lcd.c **** 	GPIOB->ODR = (GPIOB->ODR & 0xFBC7) | (data & 0x08) | ((data & 0x10) << 1) | ((data & 0x20) >> 1) |
 12256              		.loc 1 860 21 is_stmt 0 view .LVU3722
 12257 0070 E168     		ldr	r1, [r4, #12]
 860:Drivers/display_ILI-93xx_sm/lcd.c **** 	GPIOB->ODR = (GPIOB->ODR & 0xFBC7) | (data & 0x08) | ((data & 0x10) << 1) | ((data & 0x20) >> 1) |
 12258              		.loc 1 860 27 view .LVU3723
 12259 0072 21F4F061 		bic	r1, r1, #1920
 12260 0076 0904     		lsls	r1, r1, #16
 12261 0078 090C     		lsrs	r1, r1, #16
 860:Drivers/display_ILI-93xx_sm/lcd.c **** 	GPIOB->ODR = (GPIOB->ODR & 0xFBC7) | (data & 0x08) | ((data & 0x10) << 1) | ((data & 0x20) >> 1) |
 12262              		.loc 1 860 54 view .LVU3724
 12263 007a 5A02     		lsls	r2, r3, #9
 12264 007c 02F40072 		and	r2, r2, #512
 860:Drivers/display_ILI-93xx_sm/lcd.c **** 	GPIOB->ODR = (GPIOB->ODR & 0xFBC7) | (data & 0x08) | ((data & 0x10) << 1) | ((data & 0x20) >> 1) |
 12265              		.loc 1 860 37 view .LVU3725
 12266 0080 1143     		orrs	r1, r1, r2
 860:Drivers/display_ILI-93xx_sm/lcd.c **** 	GPIOB->ODR = (GPIOB->ODR & 0xFBC7) | (data & 0x08) | ((data & 0x10) << 1) | ((data & 0x20) >> 1) |
ARM GAS  /tmp/cc47Teva.s 			page 311


 12267              		.loc 1 860 77 view .LVU3726
 12268 0082 1A02     		lsls	r2, r3, #8
 12269 0084 02F48062 		and	r2, r2, #1024
 860:Drivers/display_ILI-93xx_sm/lcd.c **** 	GPIOB->ODR = (GPIOB->ODR & 0xFBC7) | (data & 0x08) | ((data & 0x10) << 1) | ((data & 0x20) >> 1) |
 12270              		.loc 1 860 60 view .LVU3727
 12271 0088 1143     		orrs	r1, r1, r2
 860:Drivers/display_ILI-93xx_sm/lcd.c **** 	GPIOB->ODR = (GPIOB->ODR & 0xFBC7) | (data & 0x08) | ((data & 0x10) << 1) | ((data & 0x20) >> 1) |
 12272              		.loc 1 860 100 view .LVU3728
 12273 008a 5D00     		lsls	r5, r3, #1
 12274 008c 05F48072 		and	r2, r5, #256
 860:Drivers/display_ILI-93xx_sm/lcd.c **** 	GPIOB->ODR = (GPIOB->ODR & 0xFBC7) | (data & 0x08) | ((data & 0x10) << 1) | ((data & 0x20) >> 1) |
 12275              		.loc 1 860 83 view .LVU3729
 12276 0090 1143     		orrs	r1, r1, r2
 860:Drivers/display_ILI-93xx_sm/lcd.c **** 	GPIOB->ODR = (GPIOB->ODR & 0xFBC7) | (data & 0x08) | ((data & 0x10) << 1) | ((data & 0x20) >> 1) |
 12277              		.loc 1 860 123 view .LVU3730
 12278 0092 9A01     		lsls	r2, r3, #6
 12279 0094 02F08002 		and	r2, r2, #128
 860:Drivers/display_ILI-93xx_sm/lcd.c **** 	GPIOB->ODR = (GPIOB->ODR & 0xFBC7) | (data & 0x08) | ((data & 0x10) << 1) | ((data & 0x20) >> 1) |
 12280              		.loc 1 860 106 view .LVU3731
 12281 0098 1143     		orrs	r1, r1, r2
 860:Drivers/display_ILI-93xx_sm/lcd.c **** 	GPIOB->ODR = (GPIOB->ODR & 0xFBC7) | (data & 0x08) | ((data & 0x10) << 1) | ((data & 0x20) >> 1) |
 12282              		.loc 1 860 13 view .LVU3732
 12283 009a E160     		str	r1, [r4, #12]
 861:Drivers/display_ILI-93xx_sm/lcd.c **** #else
 12284              		.loc 1 861 2 is_stmt 1 view .LVU3733
 861:Drivers/display_ILI-93xx_sm/lcd.c **** #else
 12285              		.loc 1 861 21 is_stmt 0 view .LVU3734
 12286 009c 4F49     		ldr	r1, .L635+36
 12287 009e CA68     		ldr	r2, [r1, #12]
 861:Drivers/display_ILI-93xx_sm/lcd.c **** #else
 12288              		.loc 1 861 27 view .LVU3735
 12289 00a0 22F48762 		bic	r2, r2, #1080
 12290 00a4 1204     		lsls	r2, r2, #16
 12291 00a6 120C     		lsrs	r2, r2, #16
 861:Drivers/display_ILI-93xx_sm/lcd.c **** #else
 12292              		.loc 1 861 45 view .LVU3736
 12293 00a8 03F00807 		and	r7, r3, #8
 861:Drivers/display_ILI-93xx_sm/lcd.c **** #else
 12294              		.loc 1 861 37 view .LVU3737
 12295 00ac 3A43     		orrs	r2, r2, r7
 861:Drivers/display_ILI-93xx_sm/lcd.c **** #else
 12296              		.loc 1 861 70 view .LVU3738
 12297 00ae 05F02005 		and	r5, r5, #32
 861:Drivers/display_ILI-93xx_sm/lcd.c **** #else
 12298              		.loc 1 861 53 view .LVU3739
 12299 00b2 2A43     		orrs	r2, r2, r5
 861:Drivers/display_ILI-93xx_sm/lcd.c **** #else
 12300              		.loc 1 861 93 view .LVU3740
 12301 00b4 5D10     		asrs	r5, r3, #1
 12302 00b6 05F01005 		and	r5, r5, #16
 861:Drivers/display_ILI-93xx_sm/lcd.c **** #else
 12303              		.loc 1 861 76 view .LVU3741
 12304 00ba 2A43     		orrs	r2, r2, r5
 861:Drivers/display_ILI-93xx_sm/lcd.c **** #else
 12305              		.loc 1 861 116 view .LVU3742
 12306 00bc 1B01     		lsls	r3, r3, #4
 12307              	.LVL884:
ARM GAS  /tmp/cc47Teva.s 			page 312


 861:Drivers/display_ILI-93xx_sm/lcd.c **** #else
 12308              		.loc 1 861 116 view .LVU3743
 12309 00be 03F48063 		and	r3, r3, #1024
 861:Drivers/display_ILI-93xx_sm/lcd.c **** #else
 12310              		.loc 1 861 99 view .LVU3744
 12311 00c2 1343     		orrs	r3, r3, r2
 861:Drivers/display_ILI-93xx_sm/lcd.c **** #else
 12312              		.loc 1 861 13 view .LVU3745
 12313 00c4 CB60     		str	r3, [r1, #12]
 869:Drivers/display_ILI-93xx_sm/lcd.c **** }
 12314              		.loc 1 869 2 is_stmt 1 view .LVU3746
 869:Drivers/display_ILI-93xx_sm/lcd.c **** }
 12315              		.loc 1 869 2 view .LVU3747
 12316 00c6 4FF40033 		mov	r3, #131072
 12317 00ca 2361     		str	r3, [r4, #16]
 869:Drivers/display_ILI-93xx_sm/lcd.c **** }
 12318              		.loc 1 869 2 view .LVU3748
 12319              	.LVL885:
 12320              	.LBB924:
 12321              	.LBI924:
 668:Drivers/display_ILI-93xx_sm/lcd.c **** 	for (; t; t--) __asm("nop");
 12322              		.loc 1 668 13 view .LVU3749
 12323              	.LBB925:
 669:Drivers/display_ILI-93xx_sm/lcd.c **** }
 12324              		.loc 1 669 2 view .LVU3750
 12325              	.LBE925:
 12326              	.LBE924:
 869:Drivers/display_ILI-93xx_sm/lcd.c **** }
 12327              		.loc 1 869 2 is_stmt 0 view .LVU3751
 12328 00cc 0223     		movs	r3, #2
 12329 00ce 01E0     		b	.L619
 12330              	.LVL886:
 12331              	.L620:
 12332              	.LBB927:
 12333              	.LBB926:
 669:Drivers/display_ILI-93xx_sm/lcd.c **** }
 12334              		.loc 1 669 17 is_stmt 1 view .LVU3752
 12335              		.syntax unified
 12336              	@ 669 "Drivers/display_ILI-93xx_sm/lcd.c" 1
 12337 00d0 00BF     		nop
 12338              	@ 0 "" 2
 669:Drivers/display_ILI-93xx_sm/lcd.c **** }
 12339              		.loc 1 669 13 is_stmt 0 view .LVU3753
 12340              		.thumb
 12341              		.syntax unified
 12342 00d2 013B     		subs	r3, r3, #1
 12343              	.LVL887:
 12344              	.L619:
 669:Drivers/display_ILI-93xx_sm/lcd.c **** }
 12345              		.loc 1 669 2 view .LVU3754
 12346 00d4 002B     		cmp	r3, #0
 12347 00d6 FBD1     		bne	.L620
 12348              	.LVL888:
 669:Drivers/display_ILI-93xx_sm/lcd.c **** }
 12349              		.loc 1 669 2 view .LVU3755
 12350              	.LBE926:
 12351              	.LBE927:
ARM GAS  /tmp/cc47Teva.s 			page 313


 869:Drivers/display_ILI-93xx_sm/lcd.c **** }
 12352              		.loc 1 869 2 is_stmt 1 view .LVU3756
 12353 00d8 0223     		movs	r3, #2
 12354 00da 424A     		ldr	r2, .L635+44
 12355 00dc 1361     		str	r3, [r2, #16]
 869:Drivers/display_ILI-93xx_sm/lcd.c **** }
 12356              		.loc 1 869 2 view .LVU3757
 12357              	.LVL889:
 12358              	.LBB928:
 12359              	.LBI928:
 668:Drivers/display_ILI-93xx_sm/lcd.c **** 	for (; t; t--) __asm("nop");
 12360              		.loc 1 668 13 view .LVU3758
 12361              	.L621:
 12362              	.LBB929:
 669:Drivers/display_ILI-93xx_sm/lcd.c **** }
 12363              		.loc 1 669 2 is_stmt 0 view .LVU3759
 12364 00de 13B1     		cbz	r3, .L632
 669:Drivers/display_ILI-93xx_sm/lcd.c **** }
 12365              		.loc 1 669 17 is_stmt 1 view .LVU3760
 12366              		.syntax unified
 12367              	@ 669 "Drivers/display_ILI-93xx_sm/lcd.c" 1
 12368 00e0 00BF     		nop
 12369              	@ 0 "" 2
 669:Drivers/display_ILI-93xx_sm/lcd.c **** }
 12370              		.loc 1 669 13 is_stmt 0 view .LVU3761
 12371              		.thumb
 12372              		.syntax unified
 12373 00e2 013B     		subs	r3, r3, #1
 12374              	.LVL890:
 669:Drivers/display_ILI-93xx_sm/lcd.c **** }
 12375              		.loc 1 669 13 view .LVU3762
 12376 00e4 FBE7     		b	.L621
 12377              	.L632:
 12378              	.LVL891:
 669:Drivers/display_ILI-93xx_sm/lcd.c **** }
 12379              		.loc 1 669 13 view .LVU3763
 12380              	.LBE929:
 12381              	.LBE928:
 12382              	.LBE923:
 12383              	.LBE922:
1090:Drivers/display_ILI-93xx_sm/lcd.c **** 			for (uint8_t d = 0; d < len; d++) {
 12384              		.loc 1 1090 4 is_stmt 1 view .LVU3764
 12385 00e6 03F18043 		add	r3, r3, #1073741824
 12386 00ea 03F58433 		add	r3, r3, #67584
 12387 00ee 1022     		movs	r2, #16
 12388 00f0 1A61     		str	r2, [r3, #16]
1091:Drivers/display_ILI-93xx_sm/lcd.c **** 				uint8_t x = ILI9340_regValues[i++];
 12389              		.loc 1 1091 4 view .LVU3765
 12390              	.LBB930:
1091:Drivers/display_ILI-93xx_sm/lcd.c **** 				uint8_t x = ILI9340_regValues[i++];
 12391              		.loc 1 1091 9 view .LVU3766
 12392              	.LVL892:
1091:Drivers/display_ILI-93xx_sm/lcd.c **** 				uint8_t x = ILI9340_regValues[i++];
 12393              		.loc 1 1091 17 is_stmt 0 view .LVU3767
 12394 00f2 0024     		movs	r4, #0
1091:Drivers/display_ILI-93xx_sm/lcd.c **** 				uint8_t x = ILI9340_regValues[i++];
 12395              		.loc 1 1091 4 view .LVU3768
ARM GAS  /tmp/cc47Teva.s 			page 314


 12396 00f4 09E0     		b	.L623
 12397              	.LVL893:
 12398              	.L634:
 12399              	.LBB931:
 12400              	.LBB932:
 12401              	.LBB933:
 869:Drivers/display_ILI-93xx_sm/lcd.c **** }
 12402              		.loc 1 869 2 is_stmt 1 view .LVU3769
 12403 00f6 0223     		movs	r3, #2
 12404 00f8 3A4A     		ldr	r2, .L635+44
 12405 00fa 1361     		str	r3, [r2, #16]
 869:Drivers/display_ILI-93xx_sm/lcd.c **** }
 12406              		.loc 1 869 2 view .LVU3770
 12407              	.LVL894:
 12408              	.LBB934:
 12409              	.LBI934:
 668:Drivers/display_ILI-93xx_sm/lcd.c **** 	for (; t; t--) __asm("nop");
 12410              		.loc 1 668 13 view .LVU3771
 12411              	.L626:
 12412              	.LBB935:
 669:Drivers/display_ILI-93xx_sm/lcd.c **** }
 12413              		.loc 1 669 2 is_stmt 0 view .LVU3772
 12414 00fc 13B1     		cbz	r3, .L633
 669:Drivers/display_ILI-93xx_sm/lcd.c **** }
 12415              		.loc 1 669 17 is_stmt 1 view .LVU3773
 12416              		.syntax unified
 12417              	@ 669 "Drivers/display_ILI-93xx_sm/lcd.c" 1
 12418 00fe 00BF     		nop
 12419              	@ 0 "" 2
 669:Drivers/display_ILI-93xx_sm/lcd.c **** }
 12420              		.loc 1 669 13 is_stmt 0 view .LVU3774
 12421              		.thumb
 12422              		.syntax unified
 12423 0100 013B     		subs	r3, r3, #1
 12424              	.LVL895:
 669:Drivers/display_ILI-93xx_sm/lcd.c **** }
 12425              		.loc 1 669 13 view .LVU3775
 12426 0102 FBE7     		b	.L626
 12427              	.L633:
 12428              	.LVL896:
 669:Drivers/display_ILI-93xx_sm/lcd.c **** }
 12429              		.loc 1 669 13 view .LVU3776
 12430              	.LBE935:
 12431              	.LBE934:
 12432              	.LBE933:
 12433              	.LBE932:
 12434              	.LBE931:
1091:Drivers/display_ILI-93xx_sm/lcd.c **** 				uint8_t x = ILI9340_regValues[i++];
 12435              		.loc 1 1091 34 discriminator 3 view .LVU3777
 12436 0104 0134     		adds	r4, r4, #1
 12437              	.LVL897:
1091:Drivers/display_ILI-93xx_sm/lcd.c **** 				uint8_t x = ILI9340_regValues[i++];
 12438              		.loc 1 1091 34 discriminator 3 view .LVU3778
 12439 0106 E4B2     		uxtb	r4, r4
 12440              	.LVL898:
 12441              	.LBB942:
1092:Drivers/display_ILI-93xx_sm/lcd.c **** 				LCD_Write8(x);
ARM GAS  /tmp/cc47Teva.s 			page 315


 12442              		.loc 1 1092 36 discriminator 3 view .LVU3779
 12443 0108 2E46     		mov	r6, r5
 12444              	.LVL899:
 12445              	.L623:
1092:Drivers/display_ILI-93xx_sm/lcd.c **** 				LCD_Write8(x);
 12446              		.loc 1 1092 36 discriminator 3 view .LVU3780
 12447              	.LBE942:
1091:Drivers/display_ILI-93xx_sm/lcd.c **** 				uint8_t x = ILI9340_regValues[i++];
 12448              		.loc 1 1091 4 discriminator 1 view .LVU3781
 12449 010a 8442     		cmp	r4, r0
 12450 010c 9DD2     		bcs	.L616
 12451              	.LBB943:
1092:Drivers/display_ILI-93xx_sm/lcd.c **** 				LCD_Write8(x);
 12452              		.loc 1 1092 5 is_stmt 1 discriminator 3 view .LVU3782
1092:Drivers/display_ILI-93xx_sm/lcd.c **** 				LCD_Write8(x);
 12453              		.loc 1 1092 36 is_stmt 0 discriminator 3 view .LVU3783
 12454 010e 751C     		adds	r5, r6, #1
 12455 0110 EDB2     		uxtb	r5, r5
 12456              	.LVL900:
1092:Drivers/display_ILI-93xx_sm/lcd.c **** 				LCD_Write8(x);
 12457              		.loc 1 1092 13 discriminator 3 view .LVU3784
 12458 0112 334B     		ldr	r3, .L635+40
1092:Drivers/display_ILI-93xx_sm/lcd.c **** 				LCD_Write8(x);
 12459              		.loc 1 1092 13 discriminator 3 view .LVU3785
 12460 0114 9A5D     		ldrb	r2, [r3, r6]	@ zero_extendqisi2
 12461              	.LVL901:
1093:Drivers/display_ILI-93xx_sm/lcd.c **** 			}
 12462              		.loc 1 1093 5 is_stmt 1 discriminator 3 view .LVU3786
 12463              	.LBB941:
 12464              	.LBI932:
 847:Drivers/display_ILI-93xx_sm/lcd.c **** 	// ------ PORT -----     --- Data ----
 12465              		.loc 1 847 13 discriminator 3 view .LVU3787
 12466              	.LBB940:
 860:Drivers/display_ILI-93xx_sm/lcd.c **** 	GPIOB->ODR = (GPIOB->ODR & 0xFBC7) | (data & 0x08) | ((data & 0x10) << 1) | ((data & 0x20) >> 1) |
 12467              		.loc 1 860 2 discriminator 3 view .LVU3788
 860:Drivers/display_ILI-93xx_sm/lcd.c **** 	GPIOB->ODR = (GPIOB->ODR & 0xFBC7) | (data & 0x08) | ((data & 0x10) << 1) | ((data & 0x20) >> 1) |
 12468              		.loc 1 860 21 is_stmt 0 discriminator 3 view .LVU3789
 12469 0116 334E     		ldr	r6, .L635+44
 12470 0118 F168     		ldr	r1, [r6, #12]
 860:Drivers/display_ILI-93xx_sm/lcd.c **** 	GPIOB->ODR = (GPIOB->ODR & 0xFBC7) | (data & 0x08) | ((data & 0x10) << 1) | ((data & 0x20) >> 1) |
 12471              		.loc 1 860 27 discriminator 3 view .LVU3790
 12472 011a 21F4F061 		bic	r1, r1, #1920
 12473 011e 0904     		lsls	r1, r1, #16
 12474 0120 090C     		lsrs	r1, r1, #16
 860:Drivers/display_ILI-93xx_sm/lcd.c **** 	GPIOB->ODR = (GPIOB->ODR & 0xFBC7) | (data & 0x08) | ((data & 0x10) << 1) | ((data & 0x20) >> 1) |
 12475              		.loc 1 860 54 discriminator 3 view .LVU3791
 12476 0122 5302     		lsls	r3, r2, #9
 860:Drivers/display_ILI-93xx_sm/lcd.c **** 	GPIOB->ODR = (GPIOB->ODR & 0xFBC7) | (data & 0x08) | ((data & 0x10) << 1) | ((data & 0x20) >> 1) |
 12477              		.loc 1 860 54 discriminator 3 view .LVU3792
 12478 0124 03F40073 		and	r3, r3, #512
 860:Drivers/display_ILI-93xx_sm/lcd.c **** 	GPIOB->ODR = (GPIOB->ODR & 0xFBC7) | (data & 0x08) | ((data & 0x10) << 1) | ((data & 0x20) >> 1) |
 12479              		.loc 1 860 37 discriminator 3 view .LVU3793
 12480 0128 1943     		orrs	r1, r1, r3
 860:Drivers/display_ILI-93xx_sm/lcd.c **** 	GPIOB->ODR = (GPIOB->ODR & 0xFBC7) | (data & 0x08) | ((data & 0x10) << 1) | ((data & 0x20) >> 1) |
 12481              		.loc 1 860 77 discriminator 3 view .LVU3794
 12482 012a 1302     		lsls	r3, r2, #8
 12483 012c 03F48063 		and	r3, r3, #1024
ARM GAS  /tmp/cc47Teva.s 			page 316


 860:Drivers/display_ILI-93xx_sm/lcd.c **** 	GPIOB->ODR = (GPIOB->ODR & 0xFBC7) | (data & 0x08) | ((data & 0x10) << 1) | ((data & 0x20) >> 1) |
 12484              		.loc 1 860 60 discriminator 3 view .LVU3795
 12485 0130 1943     		orrs	r1, r1, r3
 860:Drivers/display_ILI-93xx_sm/lcd.c **** 	GPIOB->ODR = (GPIOB->ODR & 0xFBC7) | (data & 0x08) | ((data & 0x10) << 1) | ((data & 0x20) >> 1) |
 12486              		.loc 1 860 100 discriminator 3 view .LVU3796
 12487 0132 5700     		lsls	r7, r2, #1
 12488 0134 07F48073 		and	r3, r7, #256
 860:Drivers/display_ILI-93xx_sm/lcd.c **** 	GPIOB->ODR = (GPIOB->ODR & 0xFBC7) | (data & 0x08) | ((data & 0x10) << 1) | ((data & 0x20) >> 1) |
 12489              		.loc 1 860 83 discriminator 3 view .LVU3797
 12490 0138 1943     		orrs	r1, r1, r3
 860:Drivers/display_ILI-93xx_sm/lcd.c **** 	GPIOB->ODR = (GPIOB->ODR & 0xFBC7) | (data & 0x08) | ((data & 0x10) << 1) | ((data & 0x20) >> 1) |
 12491              		.loc 1 860 123 discriminator 3 view .LVU3798
 12492 013a 9301     		lsls	r3, r2, #6
 12493 013c 03F08003 		and	r3, r3, #128
 860:Drivers/display_ILI-93xx_sm/lcd.c **** 	GPIOB->ODR = (GPIOB->ODR & 0xFBC7) | (data & 0x08) | ((data & 0x10) << 1) | ((data & 0x20) >> 1) |
 12494              		.loc 1 860 106 discriminator 3 view .LVU3799
 12495 0140 1943     		orrs	r1, r1, r3
 860:Drivers/display_ILI-93xx_sm/lcd.c **** 	GPIOB->ODR = (GPIOB->ODR & 0xFBC7) | (data & 0x08) | ((data & 0x10) << 1) | ((data & 0x20) >> 1) |
 12496              		.loc 1 860 13 discriminator 3 view .LVU3800
 12497 0142 F160     		str	r1, [r6, #12]
 861:Drivers/display_ILI-93xx_sm/lcd.c **** #else
 12498              		.loc 1 861 2 is_stmt 1 discriminator 3 view .LVU3801
 861:Drivers/display_ILI-93xx_sm/lcd.c **** #else
 12499              		.loc 1 861 21 is_stmt 0 discriminator 3 view .LVU3802
 12500 0144 2549     		ldr	r1, .L635+36
 12501 0146 CB68     		ldr	r3, [r1, #12]
 861:Drivers/display_ILI-93xx_sm/lcd.c **** #else
 12502              		.loc 1 861 27 discriminator 3 view .LVU3803
 12503 0148 23F48763 		bic	r3, r3, #1080
 12504 014c 1B04     		lsls	r3, r3, #16
 12505 014e 1B0C     		lsrs	r3, r3, #16
 861:Drivers/display_ILI-93xx_sm/lcd.c **** #else
 12506              		.loc 1 861 45 discriminator 3 view .LVU3804
 12507 0150 02F0080C 		and	ip, r2, #8
 861:Drivers/display_ILI-93xx_sm/lcd.c **** #else
 12508              		.loc 1 861 37 discriminator 3 view .LVU3805
 12509 0154 43EA0C03 		orr	r3, r3, ip
 861:Drivers/display_ILI-93xx_sm/lcd.c **** #else
 12510              		.loc 1 861 70 discriminator 3 view .LVU3806
 12511 0158 07F02007 		and	r7, r7, #32
 861:Drivers/display_ILI-93xx_sm/lcd.c **** #else
 12512              		.loc 1 861 53 discriminator 3 view .LVU3807
 12513 015c 3B43     		orrs	r3, r3, r7
 861:Drivers/display_ILI-93xx_sm/lcd.c **** #else
 12514              		.loc 1 861 93 discriminator 3 view .LVU3808
 12515 015e 5710     		asrs	r7, r2, #1
 12516 0160 07F01007 		and	r7, r7, #16
 861:Drivers/display_ILI-93xx_sm/lcd.c **** #else
 12517              		.loc 1 861 76 discriminator 3 view .LVU3809
 12518 0164 3B43     		orrs	r3, r3, r7
 861:Drivers/display_ILI-93xx_sm/lcd.c **** #else
 12519              		.loc 1 861 116 discriminator 3 view .LVU3810
 12520 0166 1201     		lsls	r2, r2, #4
 12521              	.LVL902:
 861:Drivers/display_ILI-93xx_sm/lcd.c **** #else
 12522              		.loc 1 861 116 discriminator 3 view .LVU3811
 12523 0168 02F48062 		and	r2, r2, #1024
ARM GAS  /tmp/cc47Teva.s 			page 317


 861:Drivers/display_ILI-93xx_sm/lcd.c **** #else
 12524              		.loc 1 861 99 discriminator 3 view .LVU3812
 12525 016c 1343     		orrs	r3, r3, r2
 861:Drivers/display_ILI-93xx_sm/lcd.c **** #else
 12526              		.loc 1 861 13 discriminator 3 view .LVU3813
 12527 016e CB60     		str	r3, [r1, #12]
 869:Drivers/display_ILI-93xx_sm/lcd.c **** }
 12528              		.loc 1 869 2 is_stmt 1 discriminator 3 view .LVU3814
 869:Drivers/display_ILI-93xx_sm/lcd.c **** }
 12529              		.loc 1 869 2 discriminator 3 view .LVU3815
 12530 0170 4FF40033 		mov	r3, #131072
 12531 0174 3361     		str	r3, [r6, #16]
 869:Drivers/display_ILI-93xx_sm/lcd.c **** }
 12532              		.loc 1 869 2 discriminator 3 view .LVU3816
 12533              	.LVL903:
 12534              	.LBB936:
 12535              	.LBI936:
 668:Drivers/display_ILI-93xx_sm/lcd.c **** 	for (; t; t--) __asm("nop");
 12536              		.loc 1 668 13 discriminator 3 view .LVU3817
 12537              	.LBB937:
 669:Drivers/display_ILI-93xx_sm/lcd.c **** }
 12538              		.loc 1 669 2 discriminator 3 view .LVU3818
 12539              	.LBE937:
 12540              	.LBE936:
 869:Drivers/display_ILI-93xx_sm/lcd.c **** }
 12541              		.loc 1 869 2 is_stmt 0 discriminator 3 view .LVU3819
 12542 0176 0223     		movs	r3, #2
 12543              	.LVL904:
 12544              	.L624:
 12545              	.LBB939:
 12546              	.LBB938:
 669:Drivers/display_ILI-93xx_sm/lcd.c **** }
 12547              		.loc 1 669 2 view .LVU3820
 12548 0178 002B     		cmp	r3, #0
 12549 017a BCD0     		beq	.L634
 669:Drivers/display_ILI-93xx_sm/lcd.c **** }
 12550              		.loc 1 669 17 is_stmt 1 view .LVU3821
 12551              		.syntax unified
 12552              	@ 669 "Drivers/display_ILI-93xx_sm/lcd.c" 1
 12553 017c 00BF     		nop
 12554              	@ 0 "" 2
 669:Drivers/display_ILI-93xx_sm/lcd.c **** }
 12555              		.loc 1 669 13 is_stmt 0 view .LVU3822
 12556              		.thumb
 12557              		.syntax unified
 12558 017e 013B     		subs	r3, r3, #1
 12559              	.LVL905:
 669:Drivers/display_ILI-93xx_sm/lcd.c **** }
 12560              		.loc 1 669 13 view .LVU3823
 12561 0180 FAE7     		b	.L624
 12562              	.LVL906:
 12563              	.L631:
 669:Drivers/display_ILI-93xx_sm/lcd.c **** }
 12564              		.loc 1 669 13 view .LVU3824
 12565              	.LBE938:
 12566              	.LBE939:
 12567              	.LBE940:
ARM GAS  /tmp/cc47Teva.s 			page 318


 12568              	.LBE941:
 12569              	.LBE943:
 12570              	.LBE930:
 12571              	.LBE921:
1097:Drivers/display_ILI-93xx_sm/lcd.c **** #elif defined(ILI9341)
 12572              		.loc 1 1097 2 is_stmt 1 view .LVU3825
 12573 0182 0E4B     		ldr	r3, .L635+4
 12574 0184 1B88     		ldrh	r3, [r3]
 12575 0186 013B     		subs	r3, r3, #1
 12576 0188 0B4A     		ldr	r2, .L635
 12577 018a 1288     		ldrh	r2, [r2]
 12578 018c 013A     		subs	r2, r2, #1
 12579 018e 9BB2     		uxth	r3, r3
 12580 0190 92B2     		uxth	r2, r2
 12581 0192 0021     		movs	r1, #0
 12582 0194 0846     		mov	r0, r1
 12583 0196 FFF7FEFF 		bl	LCD_SetAddrWindow
 12584              	.LVL907:
1269:Drivers/display_ILI-93xx_sm/lcd.c **** 	LCD_FillScreen(ILI92_BLACK);
 12585              		.loc 1 1269 2 view .LVU3826
 12586 019a 104B     		ldr	r3, .L635+36
 12587 019c 0122     		movs	r2, #1
 12588 019e 1A61     		str	r2, [r3, #16]
1270:Drivers/display_ILI-93xx_sm/lcd.c **** 	LCD_SetTextSize(0);
 12589              		.loc 1 1270 2 view .LVU3827
 12590 01a0 0020     		movs	r0, #0
 12591 01a2 FFF7FEFF 		bl	LCD_FillScreen
 12592              	.LVL908:
1271:Drivers/display_ILI-93xx_sm/lcd.c **** 	LCD_SetTextColor(ILI92_WHITE, ILI92_BLACK);
 12593              		.loc 1 1271 2 view .LVU3828
 12594 01a6 0020     		movs	r0, #0
 12595 01a8 FFF7FEFF 		bl	LCD_SetTextSize
 12596              	.LVL909:
1272:Drivers/display_ILI-93xx_sm/lcd.c **** }
 12597              		.loc 1 1272 2 view .LVU3829
 12598 01ac 0021     		movs	r1, #0
 12599 01ae 4FF6FF70 		movw	r0, #65535
 12600 01b2 FFF7FEFF 		bl	LCD_SetTextColor
 12601              	.LVL910:
1273:Drivers/display_ILI-93xx_sm/lcd.c **** 
 12602              		.loc 1 1273 1 is_stmt 0 view .LVU3830
 12603 01b6 F8BD     		pop	{r3, r4, r5, r6, r7, pc}
 12604              	.LVL911:
 12605              	.L636:
1273:Drivers/display_ILI-93xx_sm/lcd.c **** 
 12606              		.loc 1 1273 1 view .LVU3831
 12607              		.align	2
 12608              	.L635:
 12609 01b8 00000000 		.word	.LANCHOR0
 12610 01bc 00000000 		.word	.LANCHOR1
 12611 01c0 00000000 		.word	.LANCHOR2
 12612 01c4 00000000 		.word	.LANCHOR5
 12613 01c8 00000000 		.word	.LANCHOR4
 12614 01cc 00000000 		.word	.LANCHOR7
 12615 01d0 00000000 		.word	.LANCHOR8
 12616 01d4 00000000 		.word	.LANCHOR6
 12617 01d8 00000000 		.word	.LANCHOR9
ARM GAS  /tmp/cc47Teva.s 			page 319


 12618 01dc 000C0140 		.word	1073810432
 12619 01e0 00000000 		.word	.LANCHOR10
 12620 01e4 00080140 		.word	1073809408
 12621              		.cfi_endproc
 12622              	.LFE79:
 12624              		.section	.text.LCD_SetTextWrap,"ax",%progbits
 12625              		.align	1
 12626              		.global	LCD_SetTextWrap
 12627              		.syntax unified
 12628              		.thumb
 12629              		.thumb_func
 12630              		.fpu softvfp
 12632              	LCD_SetTextWrap:
 12633              	.LVL912:
 12634              	.LFB105:
2619:Drivers/display_ILI-93xx_sm/lcd.c **** 
2620:Drivers/display_ILI-93xx_sm/lcd.c **** /**
2621:Drivers/display_ILI-93xx_sm/lcd.c ****  * \brief Set Text wrap
2622:Drivers/display_ILI-93xx_sm/lcd.c ****  *
2623:Drivers/display_ILI-93xx_sm/lcd.c ****  * \param w
2624:Drivers/display_ILI-93xx_sm/lcd.c ****  *
2625:Drivers/display_ILI-93xx_sm/lcd.c ****  * \return void
2626:Drivers/display_ILI-93xx_sm/lcd.c ****  */
2627:Drivers/display_ILI-93xx_sm/lcd.c **** void LCD_SetTextWrap(uint8_t w) {
 12635              		.loc 1 2627 33 is_stmt 1 view -0
 12636              		.cfi_startproc
 12637              		@ args = 0, pretend = 0, frame = 0
 12638              		@ frame_needed = 0, uses_anonymous_args = 0
 12639              		@ link register save eliminated.
2628:Drivers/display_ILI-93xx_sm/lcd.c **** 	m_wrap = w;
 12640              		.loc 1 2628 2 view .LVU3833
 12641              		.loc 1 2628 9 is_stmt 0 view .LVU3834
 12642 0000 014B     		ldr	r3, .L638
 12643 0002 1870     		strb	r0, [r3]
2629:Drivers/display_ILI-93xx_sm/lcd.c **** }
 12644              		.loc 1 2629 1 view .LVU3835
 12645 0004 7047     		bx	lr
 12646              	.L639:
 12647 0006 00BF     		.align	2
 12648              	.L638:
 12649 0008 00000000 		.word	.LANCHOR9
 12650              		.cfi_endproc
 12651              	.LFE105:
 12653              		.section	.text.LCD_GetRotation,"ax",%progbits
 12654              		.align	1
 12655              		.global	LCD_GetRotation
 12656              		.syntax unified
 12657              		.thumb
 12658              		.thumb_func
 12659              		.fpu softvfp
 12661              	LCD_GetRotation:
 12662              	.LFB106:
2630:Drivers/display_ILI-93xx_sm/lcd.c **** 
2631:Drivers/display_ILI-93xx_sm/lcd.c **** /**
2632:Drivers/display_ILI-93xx_sm/lcd.c ****  * \brief Get display rotation
2633:Drivers/display_ILI-93xx_sm/lcd.c ****  *
2634:Drivers/display_ILI-93xx_sm/lcd.c ****  * \param
ARM GAS  /tmp/cc47Teva.s 			page 320


2635:Drivers/display_ILI-93xx_sm/lcd.c ****  *
2636:Drivers/display_ILI-93xx_sm/lcd.c ****  * \return uint8_t rotation
2637:Drivers/display_ILI-93xx_sm/lcd.c ****  */
2638:Drivers/display_ILI-93xx_sm/lcd.c **** uint8_t LCD_GetRotation() {
 12663              		.loc 1 2638 27 is_stmt 1 view -0
 12664              		.cfi_startproc
 12665              		@ args = 0, pretend = 0, frame = 0
 12666              		@ frame_needed = 0, uses_anonymous_args = 0
 12667              		@ link register save eliminated.
2639:Drivers/display_ILI-93xx_sm/lcd.c **** 	return m_rotation;
 12668              		.loc 1 2639 2 view .LVU3837
2640:Drivers/display_ILI-93xx_sm/lcd.c **** }
 12669              		.loc 1 2640 1 is_stmt 0 view .LVU3838
 12670 0000 014B     		ldr	r3, .L641
 12671 0002 1878     		ldrb	r0, [r3]	@ zero_extendqisi2
 12672 0004 7047     		bx	lr
 12673              	.L642:
 12674 0006 00BF     		.align	2
 12675              	.L641:
 12676 0008 00000000 		.word	.LANCHOR2
 12677              		.cfi_endproc
 12678              	.LFE106:
 12680              		.section	.text.LCD_GetCursorX,"ax",%progbits
 12681              		.align	1
 12682              		.global	LCD_GetCursorX
 12683              		.syntax unified
 12684              		.thumb
 12685              		.thumb_func
 12686              		.fpu softvfp
 12688              	LCD_GetCursorX:
 12689              	.LFB107:
2641:Drivers/display_ILI-93xx_sm/lcd.c **** 
2642:Drivers/display_ILI-93xx_sm/lcd.c **** /**
2643:Drivers/display_ILI-93xx_sm/lcd.c ****  * \brief Gets the cursor x-coordinate
2644:Drivers/display_ILI-93xx_sm/lcd.c ****  *
2645:Drivers/display_ILI-93xx_sm/lcd.c ****  * \param 		
2646:Drivers/display_ILI-93xx_sm/lcd.c ****  *
2647:Drivers/display_ILI-93xx_sm/lcd.c ****  * \return int16_t x-coordinate
2648:Drivers/display_ILI-93xx_sm/lcd.c ****  */
2649:Drivers/display_ILI-93xx_sm/lcd.c **** int16_t LCD_GetCursorX(void) {
 12690              		.loc 1 2649 30 is_stmt 1 view -0
 12691              		.cfi_startproc
 12692              		@ args = 0, pretend = 0, frame = 0
 12693              		@ frame_needed = 0, uses_anonymous_args = 0
 12694              		@ link register save eliminated.
2650:Drivers/display_ILI-93xx_sm/lcd.c **** 	return m_cursor_x;
 12695              		.loc 1 2650 2 view .LVU3840
2651:Drivers/display_ILI-93xx_sm/lcd.c **** }
 12696              		.loc 1 2651 1 is_stmt 0 view .LVU3841
 12697 0000 014B     		ldr	r3, .L644
 12698 0002 B3F90000 		ldrsh	r0, [r3]
 12699 0006 7047     		bx	lr
 12700              	.L645:
 12701              		.align	2
 12702              	.L644:
 12703 0008 00000000 		.word	.LANCHOR5
 12704              		.cfi_endproc
ARM GAS  /tmp/cc47Teva.s 			page 321


 12705              	.LFE107:
 12707              		.section	.text.LCD_GetCursorY,"ax",%progbits
 12708              		.align	1
 12709              		.global	LCD_GetCursorY
 12710              		.syntax unified
 12711              		.thumb
 12712              		.thumb_func
 12713              		.fpu softvfp
 12715              	LCD_GetCursorY:
 12716              	.LFB108:
2652:Drivers/display_ILI-93xx_sm/lcd.c **** 
2653:Drivers/display_ILI-93xx_sm/lcd.c **** /**
2654:Drivers/display_ILI-93xx_sm/lcd.c ****  * \brief Gets the cursor Y-coordinate
2655:Drivers/display_ILI-93xx_sm/lcd.c ****  *
2656:Drivers/display_ILI-93xx_sm/lcd.c ****  * \param 		
2657:Drivers/display_ILI-93xx_sm/lcd.c ****  *
2658:Drivers/display_ILI-93xx_sm/lcd.c ****  * \return int16_t y-coordinate
2659:Drivers/display_ILI-93xx_sm/lcd.c ****  */
2660:Drivers/display_ILI-93xx_sm/lcd.c **** int16_t LCD_GetCursorY(void) {
 12717              		.loc 1 2660 30 is_stmt 1 view -0
 12718              		.cfi_startproc
 12719              		@ args = 0, pretend = 0, frame = 0
 12720              		@ frame_needed = 0, uses_anonymous_args = 0
 12721              		@ link register save eliminated.
2661:Drivers/display_ILI-93xx_sm/lcd.c **** 	return m_cursor_y;
 12722              		.loc 1 2661 2 view .LVU3843
2662:Drivers/display_ILI-93xx_sm/lcd.c **** }
 12723              		.loc 1 2662 1 is_stmt 0 view .LVU3844
 12724 0000 014B     		ldr	r3, .L647
 12725 0002 B3F90000 		ldrsh	r0, [r3]
 12726 0006 7047     		bx	lr
 12727              	.L648:
 12728              		.align	2
 12729              	.L647:
 12730 0008 00000000 		.word	.LANCHOR4
 12731              		.cfi_endproc
 12732              	.LFE108:
 12734              		.section	.text.LCD_Color565,"ax",%progbits
 12735              		.align	1
 12736              		.global	LCD_Color565
 12737              		.syntax unified
 12738              		.thumb
 12739              		.thumb_func
 12740              		.fpu softvfp
 12742              	LCD_Color565:
 12743              	.LVL913:
 12744              	.LFB109:
2663:Drivers/display_ILI-93xx_sm/lcd.c **** 
2664:Drivers/display_ILI-93xx_sm/lcd.c **** /**
2665:Drivers/display_ILI-93xx_sm/lcd.c ****  * \brief Calucalte 16Bit-RGB
2666:Drivers/display_ILI-93xx_sm/lcd.c ****  *
2667:Drivers/display_ILI-93xx_sm/lcd.c ****  * \param r	Red
2668:Drivers/display_ILI-93xx_sm/lcd.c ****  * \param g	Green
2669:Drivers/display_ILI-93xx_sm/lcd.c ****  * \param b	Blue
2670:Drivers/display_ILI-93xx_sm/lcd.c ****  *
2671:Drivers/display_ILI-93xx_sm/lcd.c ****  * \return uint16_t	16Bit-RGB
2672:Drivers/display_ILI-93xx_sm/lcd.c ****  */
ARM GAS  /tmp/cc47Teva.s 			page 322


2673:Drivers/display_ILI-93xx_sm/lcd.c **** uint16_t LCD_Color565(uint8_t r, uint8_t g, uint8_t b) {
 12745              		.loc 1 2673 56 is_stmt 1 view -0
 12746              		.cfi_startproc
 12747              		@ args = 0, pretend = 0, frame = 0
 12748              		@ frame_needed = 0, uses_anonymous_args = 0
 12749              		@ link register save eliminated.
2674:Drivers/display_ILI-93xx_sm/lcd.c **** 	return ((r & 0xF8) << 8) | ((g & 0xFC) << 3) | (b >> 3);
 12750              		.loc 1 2674 2 view .LVU3846
 12751              		.loc 1 2674 21 is_stmt 0 view .LVU3847
 12752 0000 0002     		lsls	r0, r0, #8
 12753              	.LVL914:
 12754              		.loc 1 2674 21 view .LVU3848
 12755 0002 00F47840 		and	r0, r0, #63488
 12756 0006 00B2     		sxth	r0, r0
 12757              		.loc 1 2674 41 view .LVU3849
 12758 0008 C900     		lsls	r1, r1, #3
 12759              	.LVL915:
 12760              		.loc 1 2674 41 view .LVU3850
 12761 000a 01F4FC61 		and	r1, r1, #2016
 12762              		.loc 1 2674 27 view .LVU3851
 12763 000e 0843     		orrs	r0, r0, r1
 12764              		.loc 1 2674 47 view .LVU3852
 12765 0010 40EAD200 		orr	r0, r0, r2, lsr #3
2675:Drivers/display_ILI-93xx_sm/lcd.c **** }
 12766              		.loc 1 2675 1 view .LVU3853
 12767 0014 80B2     		uxth	r0, r0
 12768 0016 7047     		bx	lr
 12769              		.cfi_endproc
 12770              	.LFE109:
 12772              		.section	.text.LCD_Color565_to_888,"ax",%progbits
 12773              		.align	1
 12774              		.global	LCD_Color565_to_888
 12775              		.syntax unified
 12776              		.thumb
 12777              		.thumb_func
 12778              		.fpu softvfp
 12780              	LCD_Color565_to_888:
 12781              	.LVL916:
 12782              	.LFB110:
2676:Drivers/display_ILI-93xx_sm/lcd.c **** 
2677:Drivers/display_ILI-93xx_sm/lcd.c **** inline uint32_t LCD_Color565_to_888(uint16_t color) {
 12783              		.loc 1 2677 53 is_stmt 1 view -0
 12784              		.cfi_startproc
 12785              		@ args = 0, pretend = 0, frame = 0
 12786              		@ frame_needed = 0, uses_anonymous_args = 0
 12787              		@ link register save eliminated.
2678:Drivers/display_ILI-93xx_sm/lcd.c ****     return (((color & 0xF800) << 8) | ((color & 0x7E0) << 5) | ((color & 0x1F) << 3));  // transfor
 12788              		.loc 1 2678 5 view .LVU3855
 12789              		.loc 1 2678 31 is_stmt 0 view .LVU3856
 12790 0000 0302     		lsls	r3, r0, #8
 12791 0002 03F47803 		and	r3, r3, #16252928
 12792              		.loc 1 2678 56 view .LVU3857
 12793 0006 4201     		lsls	r2, r0, #5
 12794 0008 02F47C42 		and	r2, r2, #64512
 12795              		.loc 1 2678 37 view .LVU3858
 12796 000c 1343     		orrs	r3, r3, r2
 12797              		.loc 1 2678 80 view .LVU3859
ARM GAS  /tmp/cc47Teva.s 			page 323


 12798 000e C000     		lsls	r0, r0, #3
 12799              	.LVL917:
 12800              		.loc 1 2678 80 view .LVU3860
 12801 0010 C0B2     		uxtb	r0, r0
2679:Drivers/display_ILI-93xx_sm/lcd.c **** }
 12802              		.loc 1 2679 1 view .LVU3861
 12803 0012 1843     		orrs	r0, r0, r3
 12804 0014 7047     		bx	lr
 12805              		.cfi_endproc
 12806              	.LFE110:
 12808              		.section	.text.LCD_Color565_to_R,"ax",%progbits
 12809              		.align	1
 12810              		.global	LCD_Color565_to_R
 12811              		.syntax unified
 12812              		.thumb
 12813              		.thumb_func
 12814              		.fpu softvfp
 12816              	LCD_Color565_to_R:
 12817              	.LVL918:
 12818              	.LFB111:
2680:Drivers/display_ILI-93xx_sm/lcd.c **** 
2681:Drivers/display_ILI-93xx_sm/lcd.c **** inline uint8_t LCD_Color565_to_R(uint16_t color) {
 12819              		.loc 1 2681 50 is_stmt 1 view -0
 12820              		.cfi_startproc
 12821              		@ args = 0, pretend = 0, frame = 0
 12822              		@ frame_needed = 0, uses_anonymous_args = 0
 12823              		@ link register save eliminated.
2682:Drivers/display_ILI-93xx_sm/lcd.c ****     return ((color & 0xF800) >> 8);  // transform to rrrrrrxx
 12824              		.loc 1 2682 5 view .LVU3863
 12825              		.loc 1 2682 30 is_stmt 0 view .LVU3864
 12826 0000 000A     		lsrs	r0, r0, #8
 12827              	.LVL919:
2683:Drivers/display_ILI-93xx_sm/lcd.c **** }
 12828              		.loc 1 2683 1 view .LVU3865
 12829 0002 00F0F800 		and	r0, r0, #248
 12830 0006 7047     		bx	lr
 12831              		.cfi_endproc
 12832              	.LFE111:
 12834              		.section	.text.LCD_Color565_to_G,"ax",%progbits
 12835              		.align	1
 12836              		.global	LCD_Color565_to_G
 12837              		.syntax unified
 12838              		.thumb
 12839              		.thumb_func
 12840              		.fpu softvfp
 12842              	LCD_Color565_to_G:
 12843              	.LVL920:
 12844              	.LFB112:
2684:Drivers/display_ILI-93xx_sm/lcd.c **** inline uint8_t LCD_Color565_to_G(uint16_t color) {
 12845              		.loc 1 2684 50 is_stmt 1 view -0
 12846              		.cfi_startproc
 12847              		@ args = 0, pretend = 0, frame = 0
 12848              		@ frame_needed = 0, uses_anonymous_args = 0
 12849              		@ link register save eliminated.
2685:Drivers/display_ILI-93xx_sm/lcd.c ****     return ((color & 0x7E0) >> 3);  // transform to ggggggxx
 12850              		.loc 1 2685 5 view .LVU3867
 12851              		.loc 1 2685 29 is_stmt 0 view .LVU3868
ARM GAS  /tmp/cc47Teva.s 			page 324


 12852 0000 C008     		lsrs	r0, r0, #3
 12853              	.LVL921:
2686:Drivers/display_ILI-93xx_sm/lcd.c **** }
 12854              		.loc 1 2686 1 view .LVU3869
 12855 0002 00F0FC00 		and	r0, r0, #252
 12856 0006 7047     		bx	lr
 12857              		.cfi_endproc
 12858              	.LFE112:
 12860              		.section	.text.LCD_Color565_to_B,"ax",%progbits
 12861              		.align	1
 12862              		.global	LCD_Color565_to_B
 12863              		.syntax unified
 12864              		.thumb
 12865              		.thumb_func
 12866              		.fpu softvfp
 12868              	LCD_Color565_to_B:
 12869              	.LVL922:
 12870              	.LFB113:
2687:Drivers/display_ILI-93xx_sm/lcd.c **** inline uint8_t LCD_Color565_to_B(uint16_t color) {
 12871              		.loc 1 2687 50 is_stmt 1 view -0
 12872              		.cfi_startproc
 12873              		@ args = 0, pretend = 0, frame = 0
 12874              		@ frame_needed = 0, uses_anonymous_args = 0
 12875              		@ link register save eliminated.
2688:Drivers/display_ILI-93xx_sm/lcd.c ****     return ((color & 0x1F) << 3);  // transform to bbbbbbxx
 12876              		.loc 1 2688 5 view .LVU3871
 12877              		.loc 1 2688 28 is_stmt 0 view .LVU3872
 12878 0000 C000     		lsls	r0, r0, #3
 12879              	.LVL923:
2689:Drivers/display_ILI-93xx_sm/lcd.c **** }
 12880              		.loc 1 2689 1 view .LVU3873
 12881 0002 00F0F800 		and	r0, r0, #248
 12882 0006 7047     		bx	lr
 12883              		.cfi_endproc
 12884              	.LFE113:
 12886              		.section	.bss.buf.7580,"aw",%nobits
 12887              		.align	2
 12888              		.set	.LANCHOR3,. + 0
 12891              	buf.7580:
 12892 0000 00000000 		.space	256
 12892      00000000 
 12892      00000000 
 12892      00000000 
 12892      00000000 
 12893              		.section	.bss.m_cursor_x,"aw",%nobits
 12894              		.align	1
 12895              		.set	.LANCHOR5,. + 0
 12898              	m_cursor_x:
 12899 0000 0000     		.space	2
 12900              		.section	.bss.m_cursor_y,"aw",%nobits
 12901              		.align	1
 12902              		.set	.LANCHOR4,. + 0
 12905              	m_cursor_y:
 12906 0000 0000     		.space	2
 12907              		.section	.bss.m_font,"aw",%nobits
 12908              		.set	.LANCHOR7,. + 0
 12911              	m_font:
ARM GAS  /tmp/cc47Teva.s 			page 325


 12912 0000 00       		.space	1
 12913              		.section	.bss.m_height,"aw",%nobits
 12914              		.align	1
 12915              		.set	.LANCHOR1,. + 0
 12918              	m_height:
 12919 0000 0000     		.space	2
 12920              		.section	.bss.m_rotation,"aw",%nobits
 12921              		.set	.LANCHOR2,. + 0
 12924              	m_rotation:
 12925 0000 00       		.space	1
 12926              		.section	.bss.m_textbgcolor,"aw",%nobits
 12927              		.align	1
 12928              		.set	.LANCHOR8,. + 0
 12931              	m_textbgcolor:
 12932 0000 0000     		.space	2
 12933              		.section	.bss.m_textcolor,"aw",%nobits
 12934              		.align	1
 12935              		.set	.LANCHOR6,. + 0
 12938              	m_textcolor:
 12939 0000 0000     		.space	2
 12940              		.section	.bss.m_width,"aw",%nobits
 12941              		.align	1
 12942              		.set	.LANCHOR0,. + 0
 12945              	m_width:
 12946 0000 0000     		.space	2
 12947              		.section	.bss.m_wrap,"aw",%nobits
 12948              		.set	.LANCHOR9,. + 0
 12951              	m_wrap:
 12952 0000 00       		.space	1
 12953              		.section	.rodata.ILI9340_regValues,"a"
 12954              		.align	2
 12955              		.set	.LANCHOR10,. + 0
 12958              	ILI9340_regValues:
 12959 0000 01       		.byte	1
 12960 0001 00       		.byte	0
 12961 0002 CB       		.byte	-53
 12962 0003 05       		.byte	5
 12963 0004 39       		.byte	57
 12964 0005 2C       		.byte	44
 12965 0006 00       		.byte	0
 12966 0007 34       		.byte	52
 12967 0008 02       		.byte	2
 12968 0009 CF       		.byte	-49
 12969 000a 03       		.byte	3
 12970 000b 00       		.byte	0
 12971 000c C1       		.byte	-63
 12972 000d 30       		.byte	48
 12973 000e E8       		.byte	-24
 12974 000f 03       		.byte	3
 12975 0010 85       		.byte	-123
 12976 0011 00       		.byte	0
 12977 0012 78       		.byte	120
 12978 0013 EA       		.byte	-22
 12979 0014 02       		.byte	2
 12980 0015 00       		.byte	0
 12981 0016 00       		.byte	0
 12982 0017 ED       		.byte	-19
ARM GAS  /tmp/cc47Teva.s 			page 326


 12983 0018 04       		.byte	4
 12984 0019 64       		.byte	100
 12985 001a 03       		.byte	3
 12986 001b 12       		.byte	18
 12987 001c 81       		.byte	-127
 12988 001d F7       		.byte	-9
 12989 001e 01       		.byte	1
 12990 001f 20       		.byte	32
 12991 0020 C0       		.byte	-64
 12992 0021 01       		.byte	1
 12993 0022 23       		.byte	35
 12994 0023 C1       		.byte	-63
 12995 0024 01       		.byte	1
 12996 0025 10       		.byte	16
 12997 0026 C5       		.byte	-59
 12998 0027 02       		.byte	2
 12999 0028 3E       		.byte	62
 13000 0029 28       		.byte	40
 13001 002a C7       		.byte	-57
 13002 002b 01       		.byte	1
 13003 002c 86       		.byte	-122
 13004 002d 36       		.byte	54
 13005 002e 01       		.byte	1
 13006 002f 48       		.byte	72
 13007 0030 3A       		.byte	58
 13008 0031 01       		.byte	1
 13009 0032 55       		.byte	85
 13010 0033 B1       		.byte	-79
 13011 0034 02       		.byte	2
 13012 0035 00       		.byte	0
 13013 0036 18       		.byte	24
 13014 0037 B6       		.byte	-74
 13015 0038 03       		.byte	3
 13016 0039 08       		.byte	8
 13017 003a 82       		.byte	-126
 13018 003b 27       		.byte	39
 13019 003c F2       		.byte	-14
 13020 003d 01       		.byte	1
 13021 003e 00       		.byte	0
 13022 003f 26       		.byte	38
 13023 0040 01       		.byte	1
 13024 0041 01       		.byte	1
 13025 0042 E0       		.byte	-32
 13026 0043 0F       		.byte	15
 13027 0044 0F       		.byte	15
 13028 0045 31       		.byte	49
 13029 0046 2B       		.byte	43
 13030 0047 0C       		.byte	12
 13031 0048 0E       		.byte	14
 13032 0049 08       		.byte	8
 13033 004a 4E       		.byte	78
 13034 004b F1       		.byte	-15
 13035 004c 37       		.byte	55
 13036 004d 07       		.byte	7
 13037 004e 10       		.byte	16
 13038 004f 03       		.byte	3
 13039 0050 0E       		.byte	14
ARM GAS  /tmp/cc47Teva.s 			page 327


 13040 0051 09       		.byte	9
 13041 0052 00       		.byte	0
 13042 0053 E1       		.byte	-31
 13043 0054 0F       		.byte	15
 13044 0055 00       		.byte	0
 13045 0056 0E       		.byte	14
 13046 0057 14       		.byte	20
 13047 0058 03       		.byte	3
 13048 0059 11       		.byte	17
 13049 005a 07       		.byte	7
 13050 005b 31       		.byte	49
 13051 005c C1       		.byte	-63
 13052 005d 48       		.byte	72
 13053 005e 08       		.byte	8
 13054 005f 0F       		.byte	15
 13055 0060 0C       		.byte	12
 13056 0061 31       		.byte	49
 13057 0062 36       		.byte	54
 13058 0063 0F       		.byte	15
 13059 0064 21       		.byte	33
 13060 0065 00       		.byte	0
 13061 0066 11       		.byte	17
 13062 0067 00       		.byte	0
 13063 0068 FF       		.byte	-1
 13064 0069 96       		.byte	-106
 13065 006a 29       		.byte	41
 13066 006b 00       		.byte	0
 13067 006c 2C       		.byte	44
 13068 006d 00       		.byte	0
 13069              		.text
 13070              	.Letext0:
 13071              		.file 2 "/usr/lib/gcc/arm-none-eabi/8.3.1/include/stdint.h"
 13072              		.file 3 "/usr/lib/gcc/arm-none-eabi/8.3.1/include/stddef.h"
 13073              		.file 4 "/usr/include/newlib/sys/_types.h"
 13074              		.file 5 "/usr/include/newlib/sys/reent.h"
 13075              		.file 6 "/usr/include/newlib/sys/lock.h"
 13076              		.file 7 "/usr/include/newlib/stdlib.h"
 13077              		.file 8 "/usr/lib/gcc/arm-none-eabi/8.3.1/include/stdarg.h"
 13078              		.file 9 "Drivers/display_ILI-93xx_sm/Fonts/fonts.h"
 13079              		.file 10 "Drivers/CMSIS/Include/core_cm3.h"
 13080              		.file 11 "Drivers/CMSIS/Device/ST/STM32F1xx/Include/system_stm32f1xx.h"
 13081              		.file 12 "Drivers/CMSIS/Device/ST/STM32F1xx/Include/stm32f103xb.h"
 13082              		.file 13 "Drivers/STM32F1xx_HAL_Driver/Inc/stm32f1xx_hal_gpio.h"
 13083              		.file 14 "Drivers/STM32F1xx_HAL_Driver/Inc/stm32f1xx_hal.h"
 13084              		.file 15 "/usr/include/newlib/stdio.h"
 13085              		.file 16 "<built-in>"
ARM GAS  /tmp/cc47Teva.s 			page 328


DEFINED SYMBOLS
                            *ABS*:0000000000000000 lcd.c
     /tmp/cc47Teva.s:16     .text.delay:0000000000000000 $t
     /tmp/cc47Teva.s:24     .text.delay:0000000000000000 delay
     /tmp/cc47Teva.s:56     .text.GPIO_Init:0000000000000000 $t
     /tmp/cc47Teva.s:63     .text.GPIO_Init:0000000000000000 GPIO_Init
     /tmp/cc47Teva.s:258    .text.GPIO_Init:00000000000000c4 $d
     /tmp/cc47Teva.s:265    .text.LCD_Write8:0000000000000000 $t
     /tmp/cc47Teva.s:272    .text.LCD_Write8:0000000000000000 LCD_Write8
     /tmp/cc47Teva.s:423    .text.LCD_Write8:0000000000000080 $d
     /tmp/cc47Teva.s:429    .text.LCD_Read8:0000000000000000 $t
     /tmp/cc47Teva.s:436    .text.LCD_Read8:0000000000000000 LCD_Read8
     /tmp/cc47Teva.s:582    .text.LCD_Read8:000000000000007c $d
     /tmp/cc47Teva.s:588    .text.LCD_Write8Register8:0000000000000000 $t
     /tmp/cc47Teva.s:595    .text.LCD_Write8Register8:0000000000000000 LCD_Write8Register8
     /tmp/cc47Teva.s:898    .text.LCD_Write8Register8:00000000000000fc $d
     /tmp/cc47Teva.s:904    .text.LCD_Write16Register8:0000000000000000 $t
     /tmp/cc47Teva.s:911    .text.LCD_Write16Register8:0000000000000000 LCD_Write16Register8
     /tmp/cc47Teva.s:1349   .text.LCD_Write16Register8:0000000000000178 $d
     /tmp/cc47Teva.s:1355   .text.LCD_Write24Register8:0000000000000000 $t
     /tmp/cc47Teva.s:1362   .text.LCD_Write24Register8:0000000000000000 LCD_Write24Register8
     /tmp/cc47Teva.s:1934   .text.LCD_Write24Register8:00000000000001f4 $d
     /tmp/cc47Teva.s:1940   .text.LCD_Write32Register8:0000000000000000 $t
     /tmp/cc47Teva.s:1947   .text.LCD_Write32Register8:0000000000000000 LCD_Write32Register8
     /tmp/cc47Teva.s:2654   .text.LCD_Write32Register8:000000000000026c $d
     /tmp/cc47Teva.s:2660   .text.LCD_Write16Register16:0000000000000000 $t
     /tmp/cc47Teva.s:2667   .text.LCD_Write16Register16:0000000000000000 LCD_Write16Register16
     /tmp/cc47Teva.s:3245   .text.LCD_Write16Register16:00000000000001f4 $d
     /tmp/cc47Teva.s:3251   .text.LCD_Write16RegisterPair8:0000000000000000 $t
     /tmp/cc47Teva.s:3258   .text.LCD_Write16RegisterPair8:0000000000000000 LCD_Write16RegisterPair8
     /tmp/cc47Teva.s:3859   .text.LCD_Write16RegisterPair8:00000000000001fc $d
     /tmp/cc47Teva.s:3865   .text.LCD_Read8Register8:0000000000000000 $t
     /tmp/cc47Teva.s:3872   .text.LCD_Read8Register8:0000000000000000 LCD_Read8Register8
     /tmp/cc47Teva.s:4269   .text.LCD_Read8Register8:0000000000000134 $d
     /tmp/cc47Teva.s:4275   .text.LCD_Flood:0000000000000000 $t
     /tmp/cc47Teva.s:4282   .text.LCD_Flood:0000000000000000 LCD_Flood
     /tmp/cc47Teva.s:5143   .text.LCD_Flood:00000000000002b0 $d
     /tmp/cc47Teva.s:5149   .text.LCD_Reset:0000000000000000 $t
     /tmp/cc47Teva.s:5156   .text.LCD_Reset:0000000000000000 LCD_Reset
     /tmp/cc47Teva.s:5387   .text.LCD_Reset:00000000000000a0 $d
     /tmp/cc47Teva.s:5393   .text.LCD_SetAddrWindow:0000000000000000 $t
     /tmp/cc47Teva.s:5400   .text.LCD_SetAddrWindow:0000000000000000 LCD_SetAddrWindow
     /tmp/cc47Teva.s:6187   .text.LCD_SetAddrWindow:0000000000000298 $d
     /tmp/cc47Teva.s:6197   .text.LCD_SetAddrWindow:00000000000002a0 $t
     /tmp/cc47Teva.s:6756   .text.LCD_SetAddrWindow:0000000000000494 $d
     /tmp/cc47Teva.s:6762   .text.LCD_DrawPixel:0000000000000000 $t
     /tmp/cc47Teva.s:6769   .text.LCD_DrawPixel:0000000000000000 LCD_DrawPixel
     /tmp/cc47Teva.s:7237   .text.LCD_DrawPixel:0000000000000184 $d
     /tmp/cc47Teva.s:7245   .text.LCD_FillScreen:0000000000000000 $t
     /tmp/cc47Teva.s:7252   .text.LCD_FillScreen:0000000000000000 LCD_FillScreen
     /tmp/cc47Teva.s:7291   .text.LCD_FillScreen:0000000000000028 $d
     /tmp/cc47Teva.s:7297   .text.LCD_SetRotation:0000000000000000 $t
     /tmp/cc47Teva.s:7304   .text.LCD_SetRotation:0000000000000000 LCD_SetRotation
     /tmp/cc47Teva.s:7643   .text.LCD_SetRotation:0000000000000118 $d
     /tmp/cc47Teva.s:7652   .text.LCD_DrawBMP:0000000000000000 $t
     /tmp/cc47Teva.s:7659   .text.LCD_DrawBMP:0000000000000000 LCD_DrawBMP
     /tmp/cc47Teva.s:8554   .text.LCD_DrawBMP:0000000000000324 $d
ARM GAS  /tmp/cc47Teva.s 			page 329


     /tmp/cc47Teva.s:8563   .text.LCD_DrawBMP:0000000000000334 $t
     /tmp/cc47Teva.s:9237   .text.LCD_DrawBMP:00000000000005e0 $d
     /tmp/cc47Teva.s:9245   .text.LCD_DrawLine:0000000000000000 $t
     /tmp/cc47Teva.s:9252   .text.LCD_DrawLine:0000000000000000 LCD_DrawLine
     /tmp/cc47Teva.s:9437   .text.LCD_DrawFastHLine:0000000000000000 $t
     /tmp/cc47Teva.s:9444   .text.LCD_DrawFastHLine:0000000000000000 LCD_DrawFastHLine
     /tmp/cc47Teva.s:9565   .text.LCD_DrawFastHLine:0000000000000078 $d
     /tmp/cc47Teva.s:9571   .text.LCD_DrawFastVLine:0000000000000000 $t
     /tmp/cc47Teva.s:9578   .text.LCD_DrawFastVLine:0000000000000000 LCD_DrawFastVLine
     /tmp/cc47Teva.s:9699   .text.LCD_DrawFastVLine:0000000000000078 $d
     /tmp/cc47Teva.s:9705   .text.LCD_DrawRect:0000000000000000 $t
     /tmp/cc47Teva.s:9712   .text.LCD_DrawRect:0000000000000000 LCD_DrawRect
     /tmp/cc47Teva.s:9780   .text.LCD_FillRect:0000000000000000 $t
     /tmp/cc47Teva.s:9787   .text.LCD_FillRect:0000000000000000 LCD_FillRect
     /tmp/cc47Teva.s:9961   .text.LCD_FillRect:00000000000000b4 $d
     /tmp/cc47Teva.s:9967   .text.LCD_DrawCircle:0000000000000000 $t
     /tmp/cc47Teva.s:9974   .text.LCD_DrawCircle:0000000000000000 LCD_DrawCircle
     /tmp/cc47Teva.s:10220  .text.LCD_DrawCircleHelper:0000000000000000 $t
     /tmp/cc47Teva.s:10227  .text.LCD_DrawCircleHelper:0000000000000000 LCD_DrawCircleHelper
     /tmp/cc47Teva.s:10482  .text.LCD_FillCircleHelper:0000000000000000 $t
     /tmp/cc47Teva.s:10489  .text.LCD_FillCircleHelper:0000000000000000 LCD_FillCircleHelper
     /tmp/cc47Teva.s:10717  .text.LCD_FillCircle:0000000000000000 $t
     /tmp/cc47Teva.s:10724  .text.LCD_FillCircle:0000000000000000 LCD_FillCircle
     /tmp/cc47Teva.s:10785  .text.LCD_DrawTriangle:0000000000000000 $t
     /tmp/cc47Teva.s:10792  .text.LCD_DrawTriangle:0000000000000000 LCD_DrawTriangle
     /tmp/cc47Teva.s:10852  .text.LCD_FillTriangle:0000000000000000 $t
     /tmp/cc47Teva.s:10859  .text.LCD_FillTriangle:0000000000000000 LCD_FillTriangle
     /tmp/cc47Teva.s:11254  .text.LCD_DrawRoundRect:0000000000000000 $t
     /tmp/cc47Teva.s:11261  .text.LCD_DrawRoundRect:0000000000000000 LCD_DrawRoundRect
     /tmp/cc47Teva.s:11422  .text.LCD_FillRoundRect:0000000000000000 $t
     /tmp/cc47Teva.s:11429  .text.LCD_FillRoundRect:0000000000000000 LCD_FillRoundRect
     /tmp/cc47Teva.s:11528  .text.LCD_DrawChar:0000000000000000 $t
     /tmp/cc47Teva.s:11535  .text.LCD_DrawChar:0000000000000000 LCD_DrawChar
     /tmp/cc47Teva.s:11798  .text.LCD_DrawChar:0000000000000100 $d
     /tmp/cc47Teva.s:11805  .text.LCD_Printf:0000000000000000 $t
     /tmp/cc47Teva.s:11812  .text.LCD_Printf:0000000000000000 LCD_Printf
     /tmp/cc47Teva.s:12012  .text.LCD_Printf:00000000000000e0 $d
     /tmp/cc47Teva.s:12026  .text.LCD_SetCursor:0000000000000000 $t
     /tmp/cc47Teva.s:12033  .text.LCD_SetCursor:0000000000000000 LCD_SetCursor
     /tmp/cc47Teva.s:12054  .text.LCD_SetCursor:000000000000000c $d
     /tmp/cc47Teva.s:12060  .text.LCD_SetTextSize:0000000000000000 $t
     /tmp/cc47Teva.s:12067  .text.LCD_SetTextSize:0000000000000000 LCD_SetTextSize
     /tmp/cc47Teva.s:12095  .text.LCD_SetTextSize:0000000000000010 $d
     /tmp/cc47Teva.s:12100  .text.LCD_SetTextColor:0000000000000000 $t
     /tmp/cc47Teva.s:12107  .text.LCD_SetTextColor:0000000000000000 LCD_SetTextColor
     /tmp/cc47Teva.s:12128  .text.LCD_SetTextColor:000000000000000c $d
     /tmp/cc47Teva.s:12134  .text.LCD_Init:0000000000000000 $t
     /tmp/cc47Teva.s:12141  .text.LCD_Init:0000000000000000 LCD_Init
     /tmp/cc47Teva.s:12609  .text.LCD_Init:00000000000001b8 $d
     /tmp/cc47Teva.s:12625  .text.LCD_SetTextWrap:0000000000000000 $t
     /tmp/cc47Teva.s:12632  .text.LCD_SetTextWrap:0000000000000000 LCD_SetTextWrap
     /tmp/cc47Teva.s:12649  .text.LCD_SetTextWrap:0000000000000008 $d
     /tmp/cc47Teva.s:12654  .text.LCD_GetRotation:0000000000000000 $t
     /tmp/cc47Teva.s:12661  .text.LCD_GetRotation:0000000000000000 LCD_GetRotation
     /tmp/cc47Teva.s:12676  .text.LCD_GetRotation:0000000000000008 $d
     /tmp/cc47Teva.s:12681  .text.LCD_GetCursorX:0000000000000000 $t
     /tmp/cc47Teva.s:12688  .text.LCD_GetCursorX:0000000000000000 LCD_GetCursorX
ARM GAS  /tmp/cc47Teva.s 			page 330


     /tmp/cc47Teva.s:12703  .text.LCD_GetCursorX:0000000000000008 $d
     /tmp/cc47Teva.s:12708  .text.LCD_GetCursorY:0000000000000000 $t
     /tmp/cc47Teva.s:12715  .text.LCD_GetCursorY:0000000000000000 LCD_GetCursorY
     /tmp/cc47Teva.s:12730  .text.LCD_GetCursorY:0000000000000008 $d
     /tmp/cc47Teva.s:12735  .text.LCD_Color565:0000000000000000 $t
     /tmp/cc47Teva.s:12742  .text.LCD_Color565:0000000000000000 LCD_Color565
     /tmp/cc47Teva.s:12773  .text.LCD_Color565_to_888:0000000000000000 $t
     /tmp/cc47Teva.s:12780  .text.LCD_Color565_to_888:0000000000000000 LCD_Color565_to_888
     /tmp/cc47Teva.s:12809  .text.LCD_Color565_to_R:0000000000000000 $t
     /tmp/cc47Teva.s:12816  .text.LCD_Color565_to_R:0000000000000000 LCD_Color565_to_R
     /tmp/cc47Teva.s:12835  .text.LCD_Color565_to_G:0000000000000000 $t
     /tmp/cc47Teva.s:12842  .text.LCD_Color565_to_G:0000000000000000 LCD_Color565_to_G
     /tmp/cc47Teva.s:12861  .text.LCD_Color565_to_B:0000000000000000 $t
     /tmp/cc47Teva.s:12868  .text.LCD_Color565_to_B:0000000000000000 LCD_Color565_to_B
     /tmp/cc47Teva.s:12887  .bss.buf.7580:0000000000000000 $d
     /tmp/cc47Teva.s:12891  .bss.buf.7580:0000000000000000 buf.7580
     /tmp/cc47Teva.s:12894  .bss.m_cursor_x:0000000000000000 $d
     /tmp/cc47Teva.s:12898  .bss.m_cursor_x:0000000000000000 m_cursor_x
     /tmp/cc47Teva.s:12901  .bss.m_cursor_y:0000000000000000 $d
     /tmp/cc47Teva.s:12905  .bss.m_cursor_y:0000000000000000 m_cursor_y
     /tmp/cc47Teva.s:12911  .bss.m_font:0000000000000000 m_font
     /tmp/cc47Teva.s:12912  .bss.m_font:0000000000000000 $d
     /tmp/cc47Teva.s:12914  .bss.m_height:0000000000000000 $d
     /tmp/cc47Teva.s:12918  .bss.m_height:0000000000000000 m_height
     /tmp/cc47Teva.s:12924  .bss.m_rotation:0000000000000000 m_rotation
     /tmp/cc47Teva.s:12925  .bss.m_rotation:0000000000000000 $d
     /tmp/cc47Teva.s:12927  .bss.m_textbgcolor:0000000000000000 $d
     /tmp/cc47Teva.s:12931  .bss.m_textbgcolor:0000000000000000 m_textbgcolor
     /tmp/cc47Teva.s:12934  .bss.m_textcolor:0000000000000000 $d
     /tmp/cc47Teva.s:12938  .bss.m_textcolor:0000000000000000 m_textcolor
     /tmp/cc47Teva.s:12941  .bss.m_width:0000000000000000 $d
     /tmp/cc47Teva.s:12945  .bss.m_width:0000000000000000 m_width
     /tmp/cc47Teva.s:12951  .bss.m_wrap:0000000000000000 m_wrap
     /tmp/cc47Teva.s:12952  .bss.m_wrap:0000000000000000 $d
     /tmp/cc47Teva.s:12954  .rodata.ILI9340_regValues:0000000000000000 $d
     /tmp/cc47Teva.s:12958  .rodata.ILI9340_regValues:0000000000000000 ILI9340_regValues

UNDEFINED SYMBOLS
HAL_GPIO_Init
HAL_Delay
Font8
vsprintf
