ARM GAS  /tmp/ccTIG2Fz.s 			page 1


   1              		.cpu cortex-m3
   2              		.eabi_attribute 20, 1
   3              		.eabi_attribute 21, 1
   4              		.eabi_attribute 23, 3
   5              		.eabi_attribute 24, 1
   6              		.eabi_attribute 25, 1
   7              		.eabi_attribute 26, 1
   8              		.eabi_attribute 30, 1
   9              		.eabi_attribute 34, 1
  10              		.eabi_attribute 18, 4
  11              		.file	"stm32f1xx_hal_exti.c"
  12              		.text
  13              	.Ltext0:
  14              		.cfi_sections	.debug_frame
  15              		.section	.text.HAL_EXTI_SetConfigLine,"ax",%progbits
  16              		.align	1
  17              		.global	HAL_EXTI_SetConfigLine
  18              		.arch armv7-m
  19              		.syntax unified
  20              		.thumb
  21              		.thumb_func
  22              		.fpu softvfp
  24              	HAL_EXTI_SetConfigLine:
  25              	.LVL0:
  26              	.LFB65:
  27              		.file 1 "Drivers/STM32F1xx_HAL_Driver/Src/stm32f1xx_hal_exti.c"
   1:Drivers/STM32F1xx_HAL_Driver/Src/stm32f1xx_hal_exti.c **** /**
   2:Drivers/STM32F1xx_HAL_Driver/Src/stm32f1xx_hal_exti.c ****   ******************************************************************************
   3:Drivers/STM32F1xx_HAL_Driver/Src/stm32f1xx_hal_exti.c ****   * @file    stm32f1xx_hal_exti.c
   4:Drivers/STM32F1xx_HAL_Driver/Src/stm32f1xx_hal_exti.c ****   * @author  MCD Application Team
   5:Drivers/STM32F1xx_HAL_Driver/Src/stm32f1xx_hal_exti.c ****   * @brief   EXTI HAL module driver.
   6:Drivers/STM32F1xx_HAL_Driver/Src/stm32f1xx_hal_exti.c ****   *          This file provides firmware functions to manage the following
   7:Drivers/STM32F1xx_HAL_Driver/Src/stm32f1xx_hal_exti.c ****   *          functionalities of the Extended Interrupts and events controller (EXTI) peripheral:
   8:Drivers/STM32F1xx_HAL_Driver/Src/stm32f1xx_hal_exti.c ****   *           + Initialization and de-initialization functions
   9:Drivers/STM32F1xx_HAL_Driver/Src/stm32f1xx_hal_exti.c ****   *           + IO operation functions
  10:Drivers/STM32F1xx_HAL_Driver/Src/stm32f1xx_hal_exti.c ****   *
  11:Drivers/STM32F1xx_HAL_Driver/Src/stm32f1xx_hal_exti.c ****   @verbatim
  12:Drivers/STM32F1xx_HAL_Driver/Src/stm32f1xx_hal_exti.c ****   ==============================================================================
  13:Drivers/STM32F1xx_HAL_Driver/Src/stm32f1xx_hal_exti.c ****                     ##### EXTI Peripheral features #####
  14:Drivers/STM32F1xx_HAL_Driver/Src/stm32f1xx_hal_exti.c ****   ==============================================================================
  15:Drivers/STM32F1xx_HAL_Driver/Src/stm32f1xx_hal_exti.c ****   [..]
  16:Drivers/STM32F1xx_HAL_Driver/Src/stm32f1xx_hal_exti.c ****     (+) Each Exti line can be configured within this driver.
  17:Drivers/STM32F1xx_HAL_Driver/Src/stm32f1xx_hal_exti.c **** 
  18:Drivers/STM32F1xx_HAL_Driver/Src/stm32f1xx_hal_exti.c ****     (+) Exti line can be configured in 3 different modes
  19:Drivers/STM32F1xx_HAL_Driver/Src/stm32f1xx_hal_exti.c ****         (++) Interrupt
  20:Drivers/STM32F1xx_HAL_Driver/Src/stm32f1xx_hal_exti.c ****         (++) Event
  21:Drivers/STM32F1xx_HAL_Driver/Src/stm32f1xx_hal_exti.c ****         (++) Both of them
  22:Drivers/STM32F1xx_HAL_Driver/Src/stm32f1xx_hal_exti.c **** 
  23:Drivers/STM32F1xx_HAL_Driver/Src/stm32f1xx_hal_exti.c ****     (+) Configurable Exti lines can be configured with 3 different triggers
  24:Drivers/STM32F1xx_HAL_Driver/Src/stm32f1xx_hal_exti.c ****         (++) Rising
  25:Drivers/STM32F1xx_HAL_Driver/Src/stm32f1xx_hal_exti.c ****         (++) Falling
  26:Drivers/STM32F1xx_HAL_Driver/Src/stm32f1xx_hal_exti.c ****         (++) Both of them
  27:Drivers/STM32F1xx_HAL_Driver/Src/stm32f1xx_hal_exti.c **** 
  28:Drivers/STM32F1xx_HAL_Driver/Src/stm32f1xx_hal_exti.c ****     (+) When set in interrupt mode, configurable Exti lines have two different
  29:Drivers/STM32F1xx_HAL_Driver/Src/stm32f1xx_hal_exti.c ****         interrupts pending registers which allow to distinguish which transition
  30:Drivers/STM32F1xx_HAL_Driver/Src/stm32f1xx_hal_exti.c ****         occurs:
  31:Drivers/STM32F1xx_HAL_Driver/Src/stm32f1xx_hal_exti.c ****         (++) Rising edge pending interrupt
ARM GAS  /tmp/ccTIG2Fz.s 			page 2


  32:Drivers/STM32F1xx_HAL_Driver/Src/stm32f1xx_hal_exti.c ****         (++) Falling
  33:Drivers/STM32F1xx_HAL_Driver/Src/stm32f1xx_hal_exti.c **** 
  34:Drivers/STM32F1xx_HAL_Driver/Src/stm32f1xx_hal_exti.c ****     (+) Exti lines 0 to 15 are linked to gpio pin number 0 to 15. Gpio port can
  35:Drivers/STM32F1xx_HAL_Driver/Src/stm32f1xx_hal_exti.c ****         be selected through multiplexer.
  36:Drivers/STM32F1xx_HAL_Driver/Src/stm32f1xx_hal_exti.c **** 
  37:Drivers/STM32F1xx_HAL_Driver/Src/stm32f1xx_hal_exti.c ****                      ##### How to use this driver #####
  38:Drivers/STM32F1xx_HAL_Driver/Src/stm32f1xx_hal_exti.c ****   ==============================================================================
  39:Drivers/STM32F1xx_HAL_Driver/Src/stm32f1xx_hal_exti.c ****   [..]
  40:Drivers/STM32F1xx_HAL_Driver/Src/stm32f1xx_hal_exti.c **** 
  41:Drivers/STM32F1xx_HAL_Driver/Src/stm32f1xx_hal_exti.c ****     (#) Configure the EXTI line using HAL_EXTI_SetConfigLine().
  42:Drivers/STM32F1xx_HAL_Driver/Src/stm32f1xx_hal_exti.c ****         (++) Choose the interrupt line number by setting "Line" member from
  43:Drivers/STM32F1xx_HAL_Driver/Src/stm32f1xx_hal_exti.c ****              EXTI_ConfigTypeDef structure.
  44:Drivers/STM32F1xx_HAL_Driver/Src/stm32f1xx_hal_exti.c ****         (++) Configure the interrupt and/or event mode using "Mode" member from
  45:Drivers/STM32F1xx_HAL_Driver/Src/stm32f1xx_hal_exti.c ****              EXTI_ConfigTypeDef structure.
  46:Drivers/STM32F1xx_HAL_Driver/Src/stm32f1xx_hal_exti.c ****         (++) For configurable lines, configure rising and/or falling trigger
  47:Drivers/STM32F1xx_HAL_Driver/Src/stm32f1xx_hal_exti.c ****              "Trigger" member from EXTI_ConfigTypeDef structure.
  48:Drivers/STM32F1xx_HAL_Driver/Src/stm32f1xx_hal_exti.c ****         (++) For Exti lines linked to gpio, choose gpio port using "GPIOSel"
  49:Drivers/STM32F1xx_HAL_Driver/Src/stm32f1xx_hal_exti.c ****              member from GPIO_InitTypeDef structure.
  50:Drivers/STM32F1xx_HAL_Driver/Src/stm32f1xx_hal_exti.c **** 
  51:Drivers/STM32F1xx_HAL_Driver/Src/stm32f1xx_hal_exti.c ****     (#) Get current Exti configuration of a dedicated line using
  52:Drivers/STM32F1xx_HAL_Driver/Src/stm32f1xx_hal_exti.c ****         HAL_EXTI_GetConfigLine().
  53:Drivers/STM32F1xx_HAL_Driver/Src/stm32f1xx_hal_exti.c ****         (++) Provide exiting handle as parameter.
  54:Drivers/STM32F1xx_HAL_Driver/Src/stm32f1xx_hal_exti.c ****         (++) Provide pointer on EXTI_ConfigTypeDef structure as second parameter.
  55:Drivers/STM32F1xx_HAL_Driver/Src/stm32f1xx_hal_exti.c **** 
  56:Drivers/STM32F1xx_HAL_Driver/Src/stm32f1xx_hal_exti.c ****     (#) Clear Exti configuration of a dedicated line using HAL_EXTI_GetConfigLine().
  57:Drivers/STM32F1xx_HAL_Driver/Src/stm32f1xx_hal_exti.c ****         (++) Provide exiting handle as parameter.
  58:Drivers/STM32F1xx_HAL_Driver/Src/stm32f1xx_hal_exti.c **** 
  59:Drivers/STM32F1xx_HAL_Driver/Src/stm32f1xx_hal_exti.c ****     (#) Register callback to treat Exti interrupts using HAL_EXTI_RegisterCallback().
  60:Drivers/STM32F1xx_HAL_Driver/Src/stm32f1xx_hal_exti.c ****         (++) Provide exiting handle as first parameter.
  61:Drivers/STM32F1xx_HAL_Driver/Src/stm32f1xx_hal_exti.c ****         (++) Provide which callback will be registered using one value from
  62:Drivers/STM32F1xx_HAL_Driver/Src/stm32f1xx_hal_exti.c ****              EXTI_CallbackIDTypeDef.
  63:Drivers/STM32F1xx_HAL_Driver/Src/stm32f1xx_hal_exti.c ****         (++) Provide callback function pointer.
  64:Drivers/STM32F1xx_HAL_Driver/Src/stm32f1xx_hal_exti.c **** 
  65:Drivers/STM32F1xx_HAL_Driver/Src/stm32f1xx_hal_exti.c ****     (#) Get interrupt pending bit using HAL_EXTI_GetPending().
  66:Drivers/STM32F1xx_HAL_Driver/Src/stm32f1xx_hal_exti.c **** 
  67:Drivers/STM32F1xx_HAL_Driver/Src/stm32f1xx_hal_exti.c ****     (#) Clear interrupt pending bit using HAL_EXTI_GetPending().
  68:Drivers/STM32F1xx_HAL_Driver/Src/stm32f1xx_hal_exti.c **** 
  69:Drivers/STM32F1xx_HAL_Driver/Src/stm32f1xx_hal_exti.c ****     (#) Generate software interrupt using HAL_EXTI_GenerateSWI().
  70:Drivers/STM32F1xx_HAL_Driver/Src/stm32f1xx_hal_exti.c **** 
  71:Drivers/STM32F1xx_HAL_Driver/Src/stm32f1xx_hal_exti.c ****   @endverbatim
  72:Drivers/STM32F1xx_HAL_Driver/Src/stm32f1xx_hal_exti.c ****   ******************************************************************************
  73:Drivers/STM32F1xx_HAL_Driver/Src/stm32f1xx_hal_exti.c ****   * @attention
  74:Drivers/STM32F1xx_HAL_Driver/Src/stm32f1xx_hal_exti.c ****   *
  75:Drivers/STM32F1xx_HAL_Driver/Src/stm32f1xx_hal_exti.c ****   * <h2><center>&copy; Copyright (c) 2019 STMicroelectronics.
  76:Drivers/STM32F1xx_HAL_Driver/Src/stm32f1xx_hal_exti.c ****   * All rights reserved.</center></h2>
  77:Drivers/STM32F1xx_HAL_Driver/Src/stm32f1xx_hal_exti.c ****   *
  78:Drivers/STM32F1xx_HAL_Driver/Src/stm32f1xx_hal_exti.c ****   * This software component is licensed by ST under BSD 3-Clause license,
  79:Drivers/STM32F1xx_HAL_Driver/Src/stm32f1xx_hal_exti.c ****   * the "License"; You may not use this file except in compliance with the
  80:Drivers/STM32F1xx_HAL_Driver/Src/stm32f1xx_hal_exti.c ****   * License. You may obtain a copy of the License at:
  81:Drivers/STM32F1xx_HAL_Driver/Src/stm32f1xx_hal_exti.c ****   *                        opensource.org/licenses/BSD-3-Clause
  82:Drivers/STM32F1xx_HAL_Driver/Src/stm32f1xx_hal_exti.c ****   *
  83:Drivers/STM32F1xx_HAL_Driver/Src/stm32f1xx_hal_exti.c ****   ******************************************************************************
  84:Drivers/STM32F1xx_HAL_Driver/Src/stm32f1xx_hal_exti.c ****   */
  85:Drivers/STM32F1xx_HAL_Driver/Src/stm32f1xx_hal_exti.c **** 
  86:Drivers/STM32F1xx_HAL_Driver/Src/stm32f1xx_hal_exti.c **** /* Includes ------------------------------------------------------------------*/
  87:Drivers/STM32F1xx_HAL_Driver/Src/stm32f1xx_hal_exti.c **** #include "stm32f1xx_hal.h"
  88:Drivers/STM32F1xx_HAL_Driver/Src/stm32f1xx_hal_exti.c **** 
ARM GAS  /tmp/ccTIG2Fz.s 			page 3


  89:Drivers/STM32F1xx_HAL_Driver/Src/stm32f1xx_hal_exti.c **** /** @addtogroup STM32F1xx_HAL_Driver
  90:Drivers/STM32F1xx_HAL_Driver/Src/stm32f1xx_hal_exti.c ****   * @{
  91:Drivers/STM32F1xx_HAL_Driver/Src/stm32f1xx_hal_exti.c ****   */
  92:Drivers/STM32F1xx_HAL_Driver/Src/stm32f1xx_hal_exti.c **** 
  93:Drivers/STM32F1xx_HAL_Driver/Src/stm32f1xx_hal_exti.c **** /** @addtogroup EXTI
  94:Drivers/STM32F1xx_HAL_Driver/Src/stm32f1xx_hal_exti.c ****   * @{
  95:Drivers/STM32F1xx_HAL_Driver/Src/stm32f1xx_hal_exti.c ****   */
  96:Drivers/STM32F1xx_HAL_Driver/Src/stm32f1xx_hal_exti.c **** /** MISRA C:2012 deviation rule has been granted for following rule:
  97:Drivers/STM32F1xx_HAL_Driver/Src/stm32f1xx_hal_exti.c ****   * Rule-18.1_b - Medium: Array `EXTICR' 1st subscript interval [0,7] may be out
  98:Drivers/STM32F1xx_HAL_Driver/Src/stm32f1xx_hal_exti.c ****   * of bounds [0,3] in following API :
  99:Drivers/STM32F1xx_HAL_Driver/Src/stm32f1xx_hal_exti.c ****   * HAL_EXTI_SetConfigLine
 100:Drivers/STM32F1xx_HAL_Driver/Src/stm32f1xx_hal_exti.c ****   * HAL_EXTI_GetConfigLine
 101:Drivers/STM32F1xx_HAL_Driver/Src/stm32f1xx_hal_exti.c ****   * HAL_EXTI_ClearConfigLine
 102:Drivers/STM32F1xx_HAL_Driver/Src/stm32f1xx_hal_exti.c ****   */
 103:Drivers/STM32F1xx_HAL_Driver/Src/stm32f1xx_hal_exti.c **** 
 104:Drivers/STM32F1xx_HAL_Driver/Src/stm32f1xx_hal_exti.c **** #ifdef HAL_EXTI_MODULE_ENABLED
 105:Drivers/STM32F1xx_HAL_Driver/Src/stm32f1xx_hal_exti.c **** 
 106:Drivers/STM32F1xx_HAL_Driver/Src/stm32f1xx_hal_exti.c **** /* Private typedef -----------------------------------------------------------*/
 107:Drivers/STM32F1xx_HAL_Driver/Src/stm32f1xx_hal_exti.c **** /* Private defines -----------------------------------------------------------*/
 108:Drivers/STM32F1xx_HAL_Driver/Src/stm32f1xx_hal_exti.c **** /** @defgroup EXTI_Private_Constants EXTI Private Constants
 109:Drivers/STM32F1xx_HAL_Driver/Src/stm32f1xx_hal_exti.c ****   * @{
 110:Drivers/STM32F1xx_HAL_Driver/Src/stm32f1xx_hal_exti.c ****   */
 111:Drivers/STM32F1xx_HAL_Driver/Src/stm32f1xx_hal_exti.c **** 
 112:Drivers/STM32F1xx_HAL_Driver/Src/stm32f1xx_hal_exti.c **** /**
 113:Drivers/STM32F1xx_HAL_Driver/Src/stm32f1xx_hal_exti.c ****   * @}
 114:Drivers/STM32F1xx_HAL_Driver/Src/stm32f1xx_hal_exti.c ****   */
 115:Drivers/STM32F1xx_HAL_Driver/Src/stm32f1xx_hal_exti.c **** 
 116:Drivers/STM32F1xx_HAL_Driver/Src/stm32f1xx_hal_exti.c **** /* Private macros ------------------------------------------------------------*/
 117:Drivers/STM32F1xx_HAL_Driver/Src/stm32f1xx_hal_exti.c **** /* Private variables ---------------------------------------------------------*/
 118:Drivers/STM32F1xx_HAL_Driver/Src/stm32f1xx_hal_exti.c **** /* Private function prototypes -----------------------------------------------*/
 119:Drivers/STM32F1xx_HAL_Driver/Src/stm32f1xx_hal_exti.c **** /* Exported functions --------------------------------------------------------*/
 120:Drivers/STM32F1xx_HAL_Driver/Src/stm32f1xx_hal_exti.c **** 
 121:Drivers/STM32F1xx_HAL_Driver/Src/stm32f1xx_hal_exti.c **** /** @addtogroup EXTI_Exported_Functions
 122:Drivers/STM32F1xx_HAL_Driver/Src/stm32f1xx_hal_exti.c ****   * @{
 123:Drivers/STM32F1xx_HAL_Driver/Src/stm32f1xx_hal_exti.c ****   */
 124:Drivers/STM32F1xx_HAL_Driver/Src/stm32f1xx_hal_exti.c **** 
 125:Drivers/STM32F1xx_HAL_Driver/Src/stm32f1xx_hal_exti.c **** /** @addtogroup EXTI_Exported_Functions_Group1
 126:Drivers/STM32F1xx_HAL_Driver/Src/stm32f1xx_hal_exti.c ****   *  @brief    Configuration functions
 127:Drivers/STM32F1xx_HAL_Driver/Src/stm32f1xx_hal_exti.c ****   *
 128:Drivers/STM32F1xx_HAL_Driver/Src/stm32f1xx_hal_exti.c **** @verbatim
 129:Drivers/STM32F1xx_HAL_Driver/Src/stm32f1xx_hal_exti.c ****  ===============================================================================
 130:Drivers/STM32F1xx_HAL_Driver/Src/stm32f1xx_hal_exti.c ****               ##### Configuration functions #####
 131:Drivers/STM32F1xx_HAL_Driver/Src/stm32f1xx_hal_exti.c ****  ===============================================================================
 132:Drivers/STM32F1xx_HAL_Driver/Src/stm32f1xx_hal_exti.c **** 
 133:Drivers/STM32F1xx_HAL_Driver/Src/stm32f1xx_hal_exti.c **** @endverbatim
 134:Drivers/STM32F1xx_HAL_Driver/Src/stm32f1xx_hal_exti.c ****   * @{
 135:Drivers/STM32F1xx_HAL_Driver/Src/stm32f1xx_hal_exti.c ****   */
 136:Drivers/STM32F1xx_HAL_Driver/Src/stm32f1xx_hal_exti.c **** 
 137:Drivers/STM32F1xx_HAL_Driver/Src/stm32f1xx_hal_exti.c **** /**
 138:Drivers/STM32F1xx_HAL_Driver/Src/stm32f1xx_hal_exti.c ****   * @brief  Set configuration of a dedicated Exti line.
 139:Drivers/STM32F1xx_HAL_Driver/Src/stm32f1xx_hal_exti.c ****   * @param  hexti Exti handle.
 140:Drivers/STM32F1xx_HAL_Driver/Src/stm32f1xx_hal_exti.c ****   * @param  pExtiConfig Pointer on EXTI configuration to be set.
 141:Drivers/STM32F1xx_HAL_Driver/Src/stm32f1xx_hal_exti.c ****   * @retval HAL Status.
 142:Drivers/STM32F1xx_HAL_Driver/Src/stm32f1xx_hal_exti.c ****   */
 143:Drivers/STM32F1xx_HAL_Driver/Src/stm32f1xx_hal_exti.c **** HAL_StatusTypeDef HAL_EXTI_SetConfigLine(EXTI_HandleTypeDef *hexti, EXTI_ConfigTypeDef *pExtiConfig
 144:Drivers/STM32F1xx_HAL_Driver/Src/stm32f1xx_hal_exti.c **** {
  28              		.loc 1 144 1 view -0
ARM GAS  /tmp/ccTIG2Fz.s 			page 4


  29              		.cfi_startproc
  30              		@ args = 0, pretend = 0, frame = 0
  31              		@ frame_needed = 0, uses_anonymous_args = 0
 145:Drivers/STM32F1xx_HAL_Driver/Src/stm32f1xx_hal_exti.c ****   uint32_t regval;
  32              		.loc 1 145 3 view .LVU1
 146:Drivers/STM32F1xx_HAL_Driver/Src/stm32f1xx_hal_exti.c ****   uint32_t linepos;
  33              		.loc 1 146 3 view .LVU2
 147:Drivers/STM32F1xx_HAL_Driver/Src/stm32f1xx_hal_exti.c ****   uint32_t maskline;
  34              		.loc 1 147 3 view .LVU3
 148:Drivers/STM32F1xx_HAL_Driver/Src/stm32f1xx_hal_exti.c **** 
 149:Drivers/STM32F1xx_HAL_Driver/Src/stm32f1xx_hal_exti.c ****   /* Check null pointer */
 150:Drivers/STM32F1xx_HAL_Driver/Src/stm32f1xx_hal_exti.c ****   if ((hexti == NULL) || (pExtiConfig == NULL))
  35              		.loc 1 150 3 view .LVU4
  36              		.loc 1 150 6 is_stmt 0 view .LVU5
  37 0000 0028     		cmp	r0, #0
  38 0002 00F09E80 		beq	.L19
 144:Drivers/STM32F1xx_HAL_Driver/Src/stm32f1xx_hal_exti.c ****   uint32_t regval;
  39              		.loc 1 144 1 discriminator 1 view .LVU6
  40 0006 F8B5     		push	{r3, r4, r5, r6, r7, lr}
  41              	.LCFI0:
  42              		.cfi_def_cfa_offset 24
  43              		.cfi_offset 3, -24
  44              		.cfi_offset 4, -20
  45              		.cfi_offset 5, -16
  46              		.cfi_offset 6, -12
  47              		.cfi_offset 7, -8
  48              		.cfi_offset 14, -4
  49 0008 0546     		mov	r5, r0
  50              		.loc 1 150 23 discriminator 1 view .LVU7
  51 000a 0029     		cmp	r1, #0
  52 000c 00F09B80 		beq	.L20
  53 0010 0C46     		mov	r4, r1
 151:Drivers/STM32F1xx_HAL_Driver/Src/stm32f1xx_hal_exti.c ****   {
 152:Drivers/STM32F1xx_HAL_Driver/Src/stm32f1xx_hal_exti.c ****     return HAL_ERROR;
 153:Drivers/STM32F1xx_HAL_Driver/Src/stm32f1xx_hal_exti.c ****   }
 154:Drivers/STM32F1xx_HAL_Driver/Src/stm32f1xx_hal_exti.c **** 
 155:Drivers/STM32F1xx_HAL_Driver/Src/stm32f1xx_hal_exti.c ****   /* Check parameters */
 156:Drivers/STM32F1xx_HAL_Driver/Src/stm32f1xx_hal_exti.c ****   assert_param(IS_EXTI_LINE(pExtiConfig->Line));
  54              		.loc 1 156 3 is_stmt 1 view .LVU8
  55 0012 0A68     		ldr	r2, [r1]
  56 0014 22F0C063 		bic	r3, r2, #100663296
  57 0018 23F01F03 		bic	r3, r3, #31
  58 001c 3BB9     		cbnz	r3, .L3
  59              		.loc 1 156 3 is_stmt 0 discriminator 2 view .LVU9
  60 001e 02F0C063 		and	r3, r2, #100663296
  61 0022 B3F1007F 		cmp	r3, #33554432
  62 0026 46D0     		beq	.L4
  63              		.loc 1 156 3 discriminator 3 view .LVU10
  64 0028 B3F1C06F 		cmp	r3, #100663296
  65 002c 43D0     		beq	.L4
  66              	.L3:
  67              		.loc 1 156 3 discriminator 7 view .LVU11
  68 002e 9C21     		movs	r1, #156
  69              	.LVL1:
  70              		.loc 1 156 3 discriminator 7 view .LVU12
  71 0030 4648     		ldr	r0, .L29
  72              	.LVL2:
ARM GAS  /tmp/ccTIG2Fz.s 			page 5


  73              		.loc 1 156 3 discriminator 7 view .LVU13
  74 0032 FFF7FEFF 		bl	assert_failed
  75              	.LVL3:
  76              	.L5:
 157:Drivers/STM32F1xx_HAL_Driver/Src/stm32f1xx_hal_exti.c ****   assert_param(IS_EXTI_MODE(pExtiConfig->Mode));
  77              		.loc 1 157 3 is_stmt 1 view .LVU14
  78 0036 6368     		ldr	r3, [r4, #4]
  79 0038 13F0030F 		tst	r3, #3
  80 003c 02D0     		beq	.L6
  81              		.loc 1 157 3 is_stmt 0 discriminator 2 view .LVU15
  82 003e 33F00303 		bics	r3, r3, #3
  83 0042 03D0     		beq	.L7
  84              	.L6:
  85              		.loc 1 157 3 discriminator 3 view .LVU16
  86 0044 9D21     		movs	r1, #157
  87 0046 4148     		ldr	r0, .L29
  88 0048 FFF7FEFF 		bl	assert_failed
  89              	.LVL4:
  90              	.L7:
 158:Drivers/STM32F1xx_HAL_Driver/Src/stm32f1xx_hal_exti.c **** 
 159:Drivers/STM32F1xx_HAL_Driver/Src/stm32f1xx_hal_exti.c ****   /* Assign line number to handle */
 160:Drivers/STM32F1xx_HAL_Driver/Src/stm32f1xx_hal_exti.c ****   hexti->Line = pExtiConfig->Line;
  91              		.loc 1 160 3 is_stmt 1 view .LVU17
  92              		.loc 1 160 28 is_stmt 0 view .LVU18
  93 004c 2668     		ldr	r6, [r4]
  94              		.loc 1 160 15 view .LVU19
  95 004e 2E60     		str	r6, [r5]
 161:Drivers/STM32F1xx_HAL_Driver/Src/stm32f1xx_hal_exti.c **** 
 162:Drivers/STM32F1xx_HAL_Driver/Src/stm32f1xx_hal_exti.c ****   /* Compute line mask */
 163:Drivers/STM32F1xx_HAL_Driver/Src/stm32f1xx_hal_exti.c ****   linepos = (pExtiConfig->Line & EXTI_PIN_MASK);
  96              		.loc 1 163 3 is_stmt 1 view .LVU20
  97              		.loc 1 163 11 is_stmt 0 view .LVU21
  98 0050 06F01F07 		and	r7, r6, #31
  99              	.LVL5:
 164:Drivers/STM32F1xx_HAL_Driver/Src/stm32f1xx_hal_exti.c ****   maskline = (1uL << linepos);
 100              		.loc 1 164 3 is_stmt 1 view .LVU22
 101              		.loc 1 164 12 is_stmt 0 view .LVU23
 102 0054 0125     		movs	r5, #1
 103              	.LVL6:
 104              		.loc 1 164 12 view .LVU24
 105 0056 BD40     		lsls	r5, r5, r7
 106              	.LVL7:
 165:Drivers/STM32F1xx_HAL_Driver/Src/stm32f1xx_hal_exti.c **** 
 166:Drivers/STM32F1xx_HAL_Driver/Src/stm32f1xx_hal_exti.c ****   /* Configure triggers for configurable lines */
 167:Drivers/STM32F1xx_HAL_Driver/Src/stm32f1xx_hal_exti.c ****   if ((pExtiConfig->Line & EXTI_CONFIG) != 0x00u)
 107              		.loc 1 167 3 is_stmt 1 view .LVU25
 108              		.loc 1 167 6 is_stmt 0 view .LVU26
 109 0058 16F0007F 		tst	r6, #33554432
 110 005c 19D0     		beq	.L8
 168:Drivers/STM32F1xx_HAL_Driver/Src/stm32f1xx_hal_exti.c ****   {
 169:Drivers/STM32F1xx_HAL_Driver/Src/stm32f1xx_hal_exti.c ****     assert_param(IS_EXTI_TRIGGER(pExtiConfig->Trigger));
 111              		.loc 1 169 5 is_stmt 1 view .LVU27
 112 005e A368     		ldr	r3, [r4, #8]
 113 0060 33F00303 		bics	r3, r3, #3
 114 0064 2CD1     		bne	.L25
 115              	.L9:
 170:Drivers/STM32F1xx_HAL_Driver/Src/stm32f1xx_hal_exti.c **** 
ARM GAS  /tmp/ccTIG2Fz.s 			page 6


 171:Drivers/STM32F1xx_HAL_Driver/Src/stm32f1xx_hal_exti.c ****     /* Configure rising trigger */
 172:Drivers/STM32F1xx_HAL_Driver/Src/stm32f1xx_hal_exti.c ****     /* Mask or set line */
 173:Drivers/STM32F1xx_HAL_Driver/Src/stm32f1xx_hal_exti.c ****     if ((pExtiConfig->Trigger & EXTI_TRIGGER_RISING) != 0x00u)
 116              		.loc 1 173 5 view .LVU28
 117              		.loc 1 173 21 is_stmt 0 view .LVU29
 118 0066 A368     		ldr	r3, [r4, #8]
 119              		.loc 1 173 8 view .LVU30
 120 0068 13F0010F 		tst	r3, #1
 121 006c 2DD0     		beq	.L10
 174:Drivers/STM32F1xx_HAL_Driver/Src/stm32f1xx_hal_exti.c ****     {
 175:Drivers/STM32F1xx_HAL_Driver/Src/stm32f1xx_hal_exti.c ****       EXTI->RTSR |= maskline;
 122              		.loc 1 175 7 is_stmt 1 view .LVU31
 123              		.loc 1 175 18 is_stmt 0 view .LVU32
 124 006e 384A     		ldr	r2, .L29+4
 125 0070 9368     		ldr	r3, [r2, #8]
 126 0072 2B43     		orrs	r3, r3, r5
 127 0074 9360     		str	r3, [r2, #8]
 128              	.L11:
 176:Drivers/STM32F1xx_HAL_Driver/Src/stm32f1xx_hal_exti.c ****     }
 177:Drivers/STM32F1xx_HAL_Driver/Src/stm32f1xx_hal_exti.c ****     else
 178:Drivers/STM32F1xx_HAL_Driver/Src/stm32f1xx_hal_exti.c ****     {
 179:Drivers/STM32F1xx_HAL_Driver/Src/stm32f1xx_hal_exti.c ****       EXTI->RTSR &= ~maskline;
 180:Drivers/STM32F1xx_HAL_Driver/Src/stm32f1xx_hal_exti.c ****     }
 181:Drivers/STM32F1xx_HAL_Driver/Src/stm32f1xx_hal_exti.c **** 
 182:Drivers/STM32F1xx_HAL_Driver/Src/stm32f1xx_hal_exti.c ****     /* Configure falling trigger */
 183:Drivers/STM32F1xx_HAL_Driver/Src/stm32f1xx_hal_exti.c ****     /* Mask or set line */
 184:Drivers/STM32F1xx_HAL_Driver/Src/stm32f1xx_hal_exti.c ****     if ((pExtiConfig->Trigger & EXTI_TRIGGER_FALLING) != 0x00u)
 129              		.loc 1 184 5 is_stmt 1 view .LVU33
 130              		.loc 1 184 21 is_stmt 0 view .LVU34
 131 0076 A368     		ldr	r3, [r4, #8]
 132              		.loc 1 184 8 view .LVU35
 133 0078 13F0020F 		tst	r3, #2
 134 007c 2BD0     		beq	.L12
 185:Drivers/STM32F1xx_HAL_Driver/Src/stm32f1xx_hal_exti.c ****     {
 186:Drivers/STM32F1xx_HAL_Driver/Src/stm32f1xx_hal_exti.c ****       EXTI->FTSR |= maskline;
 135              		.loc 1 186 7 is_stmt 1 view .LVU36
 136              		.loc 1 186 18 is_stmt 0 view .LVU37
 137 007e 344A     		ldr	r2, .L29+4
 138 0080 D368     		ldr	r3, [r2, #12]
 139 0082 2B43     		orrs	r3, r3, r5
 140 0084 D360     		str	r3, [r2, #12]
 141              	.L13:
 187:Drivers/STM32F1xx_HAL_Driver/Src/stm32f1xx_hal_exti.c ****     }
 188:Drivers/STM32F1xx_HAL_Driver/Src/stm32f1xx_hal_exti.c ****     else
 189:Drivers/STM32F1xx_HAL_Driver/Src/stm32f1xx_hal_exti.c ****     {
 190:Drivers/STM32F1xx_HAL_Driver/Src/stm32f1xx_hal_exti.c ****       EXTI->FTSR &= ~maskline;
 191:Drivers/STM32F1xx_HAL_Driver/Src/stm32f1xx_hal_exti.c ****     }
 192:Drivers/STM32F1xx_HAL_Driver/Src/stm32f1xx_hal_exti.c **** 
 193:Drivers/STM32F1xx_HAL_Driver/Src/stm32f1xx_hal_exti.c **** 
 194:Drivers/STM32F1xx_HAL_Driver/Src/stm32f1xx_hal_exti.c ****     /* Configure gpio port selection in case of gpio exti line */
 195:Drivers/STM32F1xx_HAL_Driver/Src/stm32f1xx_hal_exti.c ****     if ((pExtiConfig->Line & EXTI_GPIO) == EXTI_GPIO)
 142              		.loc 1 195 5 is_stmt 1 view .LVU38
 143              		.loc 1 195 21 is_stmt 0 view .LVU39
 144 0086 2368     		ldr	r3, [r4]
 145              		.loc 1 195 28 view .LVU40
 146 0088 03F0C063 		and	r3, r3, #100663296
 147              		.loc 1 195 8 view .LVU41
ARM GAS  /tmp/ccTIG2Fz.s 			page 7


 148 008c B3F1C06F 		cmp	r3, #100663296
 149 0090 27D0     		beq	.L26
 150              	.LVL8:
 151              	.L8:
 196:Drivers/STM32F1xx_HAL_Driver/Src/stm32f1xx_hal_exti.c ****     {
 197:Drivers/STM32F1xx_HAL_Driver/Src/stm32f1xx_hal_exti.c ****       assert_param(IS_EXTI_GPIO_PORT(pExtiConfig->GPIOSel));
 198:Drivers/STM32F1xx_HAL_Driver/Src/stm32f1xx_hal_exti.c ****       assert_param(IS_EXTI_GPIO_PIN(linepos));
 199:Drivers/STM32F1xx_HAL_Driver/Src/stm32f1xx_hal_exti.c ****       
 200:Drivers/STM32F1xx_HAL_Driver/Src/stm32f1xx_hal_exti.c ****       regval = AFIO->EXTICR[linepos >> 2u];
 201:Drivers/STM32F1xx_HAL_Driver/Src/stm32f1xx_hal_exti.c ****       regval &= ~(AFIO_EXTICR1_EXTI0 << (AFIO_EXTICR1_EXTI1_Pos * (linepos & 0x03u)));
 202:Drivers/STM32F1xx_HAL_Driver/Src/stm32f1xx_hal_exti.c ****       regval |= (pExtiConfig->GPIOSel << (AFIO_EXTICR1_EXTI1_Pos * (linepos & 0x03u)));
 203:Drivers/STM32F1xx_HAL_Driver/Src/stm32f1xx_hal_exti.c ****       AFIO->EXTICR[linepos >> 2u] = regval;
 204:Drivers/STM32F1xx_HAL_Driver/Src/stm32f1xx_hal_exti.c ****     }
 205:Drivers/STM32F1xx_HAL_Driver/Src/stm32f1xx_hal_exti.c ****   }
 206:Drivers/STM32F1xx_HAL_Driver/Src/stm32f1xx_hal_exti.c **** 
 207:Drivers/STM32F1xx_HAL_Driver/Src/stm32f1xx_hal_exti.c ****   /* Configure interrupt mode : read current mode */
 208:Drivers/STM32F1xx_HAL_Driver/Src/stm32f1xx_hal_exti.c ****   /* Mask or set line */
 209:Drivers/STM32F1xx_HAL_Driver/Src/stm32f1xx_hal_exti.c ****   if ((pExtiConfig->Mode & EXTI_MODE_INTERRUPT) != 0x00u)
 152              		.loc 1 209 3 is_stmt 1 view .LVU42
 153              		.loc 1 209 19 is_stmt 0 view .LVU43
 154 0092 6368     		ldr	r3, [r4, #4]
 155              		.loc 1 209 6 view .LVU44
 156 0094 13F0010F 		tst	r3, #1
 157 0098 46D0     		beq	.L16
 210:Drivers/STM32F1xx_HAL_Driver/Src/stm32f1xx_hal_exti.c ****   {
 211:Drivers/STM32F1xx_HAL_Driver/Src/stm32f1xx_hal_exti.c ****     EXTI->IMR |= maskline;
 158              		.loc 1 211 5 is_stmt 1 view .LVU45
 159              		.loc 1 211 15 is_stmt 0 view .LVU46
 160 009a 2D4A     		ldr	r2, .L29+4
 161 009c 1368     		ldr	r3, [r2]
 162 009e 2B43     		orrs	r3, r3, r5
 163 00a0 1360     		str	r3, [r2]
 164              	.L17:
 212:Drivers/STM32F1xx_HAL_Driver/Src/stm32f1xx_hal_exti.c ****   }
 213:Drivers/STM32F1xx_HAL_Driver/Src/stm32f1xx_hal_exti.c ****   else
 214:Drivers/STM32F1xx_HAL_Driver/Src/stm32f1xx_hal_exti.c ****   {
 215:Drivers/STM32F1xx_HAL_Driver/Src/stm32f1xx_hal_exti.c ****     EXTI->IMR &= ~maskline;
 216:Drivers/STM32F1xx_HAL_Driver/Src/stm32f1xx_hal_exti.c ****   }
 217:Drivers/STM32F1xx_HAL_Driver/Src/stm32f1xx_hal_exti.c **** 
 218:Drivers/STM32F1xx_HAL_Driver/Src/stm32f1xx_hal_exti.c ****   /* Configure event mode : read current mode */
 219:Drivers/STM32F1xx_HAL_Driver/Src/stm32f1xx_hal_exti.c ****   /* Mask or set line */
 220:Drivers/STM32F1xx_HAL_Driver/Src/stm32f1xx_hal_exti.c ****   if ((pExtiConfig->Mode & EXTI_MODE_EVENT) != 0x00u)
 165              		.loc 1 220 3 is_stmt 1 view .LVU47
 166              		.loc 1 220 19 is_stmt 0 view .LVU48
 167 00a2 6368     		ldr	r3, [r4, #4]
 168              		.loc 1 220 6 view .LVU49
 169 00a4 13F0020F 		tst	r3, #2
 170 00a8 44D0     		beq	.L18
 221:Drivers/STM32F1xx_HAL_Driver/Src/stm32f1xx_hal_exti.c ****   {
 222:Drivers/STM32F1xx_HAL_Driver/Src/stm32f1xx_hal_exti.c ****     EXTI->EMR |= maskline;
 171              		.loc 1 222 5 is_stmt 1 view .LVU50
 172              		.loc 1 222 15 is_stmt 0 view .LVU51
 173 00aa 294A     		ldr	r2, .L29+4
 174 00ac 5368     		ldr	r3, [r2, #4]
 175 00ae 1D43     		orrs	r5, r5, r3
 176              	.LVL9:
 177              		.loc 1 222 15 view .LVU52
ARM GAS  /tmp/ccTIG2Fz.s 			page 8


 178 00b0 5560     		str	r5, [r2, #4]
 223:Drivers/STM32F1xx_HAL_Driver/Src/stm32f1xx_hal_exti.c ****   }
 224:Drivers/STM32F1xx_HAL_Driver/Src/stm32f1xx_hal_exti.c ****   else
 225:Drivers/STM32F1xx_HAL_Driver/Src/stm32f1xx_hal_exti.c ****   {
 226:Drivers/STM32F1xx_HAL_Driver/Src/stm32f1xx_hal_exti.c ****     EXTI->EMR &= ~maskline;
 227:Drivers/STM32F1xx_HAL_Driver/Src/stm32f1xx_hal_exti.c ****   }
 228:Drivers/STM32F1xx_HAL_Driver/Src/stm32f1xx_hal_exti.c **** 
 229:Drivers/STM32F1xx_HAL_Driver/Src/stm32f1xx_hal_exti.c ****   return HAL_OK;
 179              		.loc 1 229 10 view .LVU53
 180 00b2 0020     		movs	r0, #0
 181              	.LVL10:
 182              	.L2:
 230:Drivers/STM32F1xx_HAL_Driver/Src/stm32f1xx_hal_exti.c **** }
 183              		.loc 1 230 1 view .LVU54
 184 00b4 F8BD     		pop	{r3, r4, r5, r6, r7, pc}
 185              	.LVL11:
 186              	.L4:
 156:Drivers/STM32F1xx_HAL_Driver/Src/stm32f1xx_hal_exti.c ****   assert_param(IS_EXTI_MODE(pExtiConfig->Mode));
 187              		.loc 1 156 3 discriminator 6 view .LVU55
 188 00b6 02F01F02 		and	r2, r2, #31
 189 00ba 122A     		cmp	r2, #18
 190 00bc BBD9     		bls	.L5
 191 00be B6E7     		b	.L3
 192              	.LVL12:
 193              	.L25:
 169:Drivers/STM32F1xx_HAL_Driver/Src/stm32f1xx_hal_exti.c **** 
 194              		.loc 1 169 5 discriminator 1 view .LVU56
 195 00c0 A921     		movs	r1, #169
 196 00c2 2248     		ldr	r0, .L29
 197 00c4 FFF7FEFF 		bl	assert_failed
 198              	.LVL13:
 199 00c8 CDE7     		b	.L9
 200              	.L10:
 179:Drivers/STM32F1xx_HAL_Driver/Src/stm32f1xx_hal_exti.c ****     }
 201              		.loc 1 179 7 is_stmt 1 view .LVU57
 179:Drivers/STM32F1xx_HAL_Driver/Src/stm32f1xx_hal_exti.c ****     }
 202              		.loc 1 179 18 is_stmt 0 view .LVU58
 203 00ca 214A     		ldr	r2, .L29+4
 204 00cc 9368     		ldr	r3, [r2, #8]
 205 00ce 23EA0503 		bic	r3, r3, r5
 206 00d2 9360     		str	r3, [r2, #8]
 207 00d4 CFE7     		b	.L11
 208              	.L12:
 190:Drivers/STM32F1xx_HAL_Driver/Src/stm32f1xx_hal_exti.c ****     }
 209              		.loc 1 190 7 is_stmt 1 view .LVU59
 190:Drivers/STM32F1xx_HAL_Driver/Src/stm32f1xx_hal_exti.c ****     }
 210              		.loc 1 190 18 is_stmt 0 view .LVU60
 211 00d6 1E4A     		ldr	r2, .L29+4
 212 00d8 D368     		ldr	r3, [r2, #12]
 213 00da 23EA0503 		bic	r3, r3, r5
 214 00de D360     		str	r3, [r2, #12]
 215 00e0 D1E7     		b	.L13
 216              	.L26:
 197:Drivers/STM32F1xx_HAL_Driver/Src/stm32f1xx_hal_exti.c ****       assert_param(IS_EXTI_GPIO_PIN(linepos));
 217              		.loc 1 197 7 is_stmt 1 view .LVU61
 218 00e2 E368     		ldr	r3, [r4, #12]
 219 00e4 042B     		cmp	r3, #4
ARM GAS  /tmp/ccTIG2Fz.s 			page 9


 220 00e6 15D8     		bhi	.L27
 221              	.L14:
 198:Drivers/STM32F1xx_HAL_Driver/Src/stm32f1xx_hal_exti.c ****       
 222              		.loc 1 198 7 view .LVU62
 223 00e8 16F0100F 		tst	r6, #16
 224 00ec 17D1     		bne	.L28
 225              	.L15:
 200:Drivers/STM32F1xx_HAL_Driver/Src/stm32f1xx_hal_exti.c ****       regval &= ~(AFIO_EXTICR1_EXTI0 << (AFIO_EXTICR1_EXTI1_Pos * (linepos & 0x03u)));
 226              		.loc 1 200 7 view .LVU63
 200:Drivers/STM32F1xx_HAL_Driver/Src/stm32f1xx_hal_exti.c ****       regval &= ~(AFIO_EXTICR1_EXTI0 << (AFIO_EXTICR1_EXTI1_Pos * (linepos & 0x03u)));
 227              		.loc 1 200 37 is_stmt 0 view .LVU64
 228 00ee BF08     		lsrs	r7, r7, #2
 229              	.LVL14:
 200:Drivers/STM32F1xx_HAL_Driver/Src/stm32f1xx_hal_exti.c ****       regval &= ~(AFIO_EXTICR1_EXTI0 << (AFIO_EXTICR1_EXTI1_Pos * (linepos & 0x03u)));
 230              		.loc 1 200 14 view .LVU65
 231 00f0 1849     		ldr	r1, .L29+8
 232 00f2 0237     		adds	r7, r7, #2
 233 00f4 51F82720 		ldr	r2, [r1, r7, lsl #2]
 234              	.LVL15:
 201:Drivers/STM32F1xx_HAL_Driver/Src/stm32f1xx_hal_exti.c ****       regval |= (pExtiConfig->GPIOSel << (AFIO_EXTICR1_EXTI1_Pos * (linepos & 0x03u)));
 235              		.loc 1 201 7 is_stmt 1 view .LVU66
 201:Drivers/STM32F1xx_HAL_Driver/Src/stm32f1xx_hal_exti.c ****       regval |= (pExtiConfig->GPIOSel << (AFIO_EXTICR1_EXTI1_Pos * (linepos & 0x03u)));
 236              		.loc 1 201 76 is_stmt 0 view .LVU67
 237 00f8 06F00306 		and	r6, r6, #3
 238              	.LVL16:
 201:Drivers/STM32F1xx_HAL_Driver/Src/stm32f1xx_hal_exti.c ****       regval |= (pExtiConfig->GPIOSel << (AFIO_EXTICR1_EXTI1_Pos * (linepos & 0x03u)));
 239              		.loc 1 201 65 view .LVU68
 240 00fc B600     		lsls	r6, r6, #2
 201:Drivers/STM32F1xx_HAL_Driver/Src/stm32f1xx_hal_exti.c ****       regval |= (pExtiConfig->GPIOSel << (AFIO_EXTICR1_EXTI1_Pos * (linepos & 0x03u)));
 241              		.loc 1 201 38 view .LVU69
 242 00fe 0F23     		movs	r3, #15
 243 0100 B340     		lsls	r3, r3, r6
 201:Drivers/STM32F1xx_HAL_Driver/Src/stm32f1xx_hal_exti.c ****       regval |= (pExtiConfig->GPIOSel << (AFIO_EXTICR1_EXTI1_Pos * (linepos & 0x03u)));
 244              		.loc 1 201 14 view .LVU70
 245 0102 22EA0302 		bic	r2, r2, r3
 246              	.LVL17:
 202:Drivers/STM32F1xx_HAL_Driver/Src/stm32f1xx_hal_exti.c ****       AFIO->EXTICR[linepos >> 2u] = regval;
 247              		.loc 1 202 7 is_stmt 1 view .LVU71
 202:Drivers/STM32F1xx_HAL_Driver/Src/stm32f1xx_hal_exti.c ****       AFIO->EXTICR[linepos >> 2u] = regval;
 248              		.loc 1 202 29 is_stmt 0 view .LVU72
 249 0106 E368     		ldr	r3, [r4, #12]
 202:Drivers/STM32F1xx_HAL_Driver/Src/stm32f1xx_hal_exti.c ****       AFIO->EXTICR[linepos >> 2u] = regval;
 250              		.loc 1 202 39 view .LVU73
 251 0108 03FA06F6 		lsl	r6, r3, r6
 202:Drivers/STM32F1xx_HAL_Driver/Src/stm32f1xx_hal_exti.c ****       AFIO->EXTICR[linepos >> 2u] = regval;
 252              		.loc 1 202 14 view .LVU74
 253 010c 1643     		orrs	r6, r6, r2
 254              	.LVL18:
 203:Drivers/STM32F1xx_HAL_Driver/Src/stm32f1xx_hal_exti.c ****     }
 255              		.loc 1 203 7 is_stmt 1 view .LVU75
 203:Drivers/STM32F1xx_HAL_Driver/Src/stm32f1xx_hal_exti.c ****     }
 256              		.loc 1 203 35 is_stmt 0 view .LVU76
 257 010e 41F82760 		str	r6, [r1, r7, lsl #2]
 258 0112 BEE7     		b	.L8
 259              	.LVL19:
 260              	.L27:
 197:Drivers/STM32F1xx_HAL_Driver/Src/stm32f1xx_hal_exti.c ****       assert_param(IS_EXTI_GPIO_PIN(linepos));
ARM GAS  /tmp/ccTIG2Fz.s 			page 10


 261              		.loc 1 197 7 discriminator 1 view .LVU77
 262 0114 C521     		movs	r1, #197
 263 0116 0D48     		ldr	r0, .L29
 264 0118 FFF7FEFF 		bl	assert_failed
 265              	.LVL20:
 266 011c E4E7     		b	.L14
 267              	.L28:
 198:Drivers/STM32F1xx_HAL_Driver/Src/stm32f1xx_hal_exti.c ****       
 268              		.loc 1 198 7 discriminator 1 view .LVU78
 269 011e C621     		movs	r1, #198
 270 0120 0A48     		ldr	r0, .L29
 271 0122 FFF7FEFF 		bl	assert_failed
 272              	.LVL21:
 273 0126 E2E7     		b	.L15
 274              	.LVL22:
 275              	.L16:
 215:Drivers/STM32F1xx_HAL_Driver/Src/stm32f1xx_hal_exti.c ****   }
 276              		.loc 1 215 5 is_stmt 1 view .LVU79
 215:Drivers/STM32F1xx_HAL_Driver/Src/stm32f1xx_hal_exti.c ****   }
 277              		.loc 1 215 15 is_stmt 0 view .LVU80
 278 0128 094A     		ldr	r2, .L29+4
 279 012a 1368     		ldr	r3, [r2]
 280 012c 23EA0503 		bic	r3, r3, r5
 281 0130 1360     		str	r3, [r2]
 282 0132 B6E7     		b	.L17
 283              	.L18:
 226:Drivers/STM32F1xx_HAL_Driver/Src/stm32f1xx_hal_exti.c ****   }
 284              		.loc 1 226 5 is_stmt 1 view .LVU81
 226:Drivers/STM32F1xx_HAL_Driver/Src/stm32f1xx_hal_exti.c ****   }
 285              		.loc 1 226 15 is_stmt 0 view .LVU82
 286 0134 064A     		ldr	r2, .L29+4
 287 0136 5368     		ldr	r3, [r2, #4]
 288 0138 23EA0505 		bic	r5, r3, r5
 289              	.LVL23:
 226:Drivers/STM32F1xx_HAL_Driver/Src/stm32f1xx_hal_exti.c ****   }
 290              		.loc 1 226 15 view .LVU83
 291 013c 5560     		str	r5, [r2, #4]
 229:Drivers/STM32F1xx_HAL_Driver/Src/stm32f1xx_hal_exti.c **** }
 292              		.loc 1 229 10 view .LVU84
 293 013e 0020     		movs	r0, #0
 294 0140 B8E7     		b	.L2
 295              	.LVL24:
 296              	.L19:
 297              	.LCFI1:
 298              		.cfi_def_cfa_offset 0
 299              		.cfi_restore 3
 300              		.cfi_restore 4
 301              		.cfi_restore 5
 302              		.cfi_restore 6
 303              		.cfi_restore 7
 304              		.cfi_restore 14
 152:Drivers/STM32F1xx_HAL_Driver/Src/stm32f1xx_hal_exti.c ****   }
 305              		.loc 1 152 12 view .LVU85
 306 0142 0120     		movs	r0, #1
 307              	.LVL25:
 308              		.loc 1 230 1 view .LVU86
 309 0144 7047     		bx	lr
ARM GAS  /tmp/ccTIG2Fz.s 			page 11


 310              	.LVL26:
 311              	.L20:
 312              	.LCFI2:
 313              		.cfi_def_cfa_offset 24
 314              		.cfi_offset 3, -24
 315              		.cfi_offset 4, -20
 316              		.cfi_offset 5, -16
 317              		.cfi_offset 6, -12
 318              		.cfi_offset 7, -8
 319              		.cfi_offset 14, -4
 152:Drivers/STM32F1xx_HAL_Driver/Src/stm32f1xx_hal_exti.c ****   }
 320              		.loc 1 152 12 view .LVU87
 321 0146 0120     		movs	r0, #1
 322              	.LVL27:
 152:Drivers/STM32F1xx_HAL_Driver/Src/stm32f1xx_hal_exti.c ****   }
 323              		.loc 1 152 12 view .LVU88
 324 0148 B4E7     		b	.L2
 325              	.L30:
 326 014a 00BF     		.align	2
 327              	.L29:
 328 014c 00000000 		.word	.LC0
 329 0150 00040140 		.word	1073808384
 330 0154 00000140 		.word	1073807360
 331              		.cfi_endproc
 332              	.LFE65:
 334              		.section	.text.HAL_EXTI_GetConfigLine,"ax",%progbits
 335              		.align	1
 336              		.global	HAL_EXTI_GetConfigLine
 337              		.syntax unified
 338              		.thumb
 339              		.thumb_func
 340              		.fpu softvfp
 342              	HAL_EXTI_GetConfigLine:
 343              	.LVL28:
 344              	.LFB66:
 231:Drivers/STM32F1xx_HAL_Driver/Src/stm32f1xx_hal_exti.c **** 
 232:Drivers/STM32F1xx_HAL_Driver/Src/stm32f1xx_hal_exti.c **** /**
 233:Drivers/STM32F1xx_HAL_Driver/Src/stm32f1xx_hal_exti.c ****   * @brief  Get configuration of a dedicated Exti line.
 234:Drivers/STM32F1xx_HAL_Driver/Src/stm32f1xx_hal_exti.c ****   * @param  hexti Exti handle.
 235:Drivers/STM32F1xx_HAL_Driver/Src/stm32f1xx_hal_exti.c ****   * @param  pExtiConfig Pointer on structure to store Exti configuration.
 236:Drivers/STM32F1xx_HAL_Driver/Src/stm32f1xx_hal_exti.c ****   * @retval HAL Status.
 237:Drivers/STM32F1xx_HAL_Driver/Src/stm32f1xx_hal_exti.c ****   */
 238:Drivers/STM32F1xx_HAL_Driver/Src/stm32f1xx_hal_exti.c **** HAL_StatusTypeDef HAL_EXTI_GetConfigLine(EXTI_HandleTypeDef *hexti, EXTI_ConfigTypeDef *pExtiConfig
 239:Drivers/STM32F1xx_HAL_Driver/Src/stm32f1xx_hal_exti.c **** {
 345              		.loc 1 239 1 is_stmt 1 view -0
 346              		.cfi_startproc
 347              		@ args = 0, pretend = 0, frame = 0
 348              		@ frame_needed = 0, uses_anonymous_args = 0
 240:Drivers/STM32F1xx_HAL_Driver/Src/stm32f1xx_hal_exti.c ****   uint32_t regval;
 349              		.loc 1 240 3 view .LVU90
 241:Drivers/STM32F1xx_HAL_Driver/Src/stm32f1xx_hal_exti.c ****   uint32_t linepos;
 350              		.loc 1 241 3 view .LVU91
 242:Drivers/STM32F1xx_HAL_Driver/Src/stm32f1xx_hal_exti.c ****   uint32_t maskline;
 351              		.loc 1 242 3 view .LVU92
 243:Drivers/STM32F1xx_HAL_Driver/Src/stm32f1xx_hal_exti.c **** 
 244:Drivers/STM32F1xx_HAL_Driver/Src/stm32f1xx_hal_exti.c ****   /* Check null pointer */
 245:Drivers/STM32F1xx_HAL_Driver/Src/stm32f1xx_hal_exti.c ****   if ((hexti == NULL) || (pExtiConfig == NULL))
ARM GAS  /tmp/ccTIG2Fz.s 			page 12


 352              		.loc 1 245 3 view .LVU93
 353              		.loc 1 245 6 is_stmt 0 view .LVU94
 354 0000 0028     		cmp	r0, #0
 355 0002 68D0     		beq	.L42
 239:Drivers/STM32F1xx_HAL_Driver/Src/stm32f1xx_hal_exti.c ****   uint32_t regval;
 356              		.loc 1 239 1 discriminator 1 view .LVU95
 357 0004 38B5     		push	{r3, r4, r5, lr}
 358              	.LCFI3:
 359              		.cfi_def_cfa_offset 16
 360              		.cfi_offset 3, -16
 361              		.cfi_offset 4, -12
 362              		.cfi_offset 5, -8
 363              		.cfi_offset 14, -4
 364 0006 0546     		mov	r5, r0
 365              		.loc 1 245 23 discriminator 1 view .LVU96
 366 0008 0029     		cmp	r1, #0
 367 000a 66D0     		beq	.L43
 368 000c 0C46     		mov	r4, r1
 246:Drivers/STM32F1xx_HAL_Driver/Src/stm32f1xx_hal_exti.c ****   {
 247:Drivers/STM32F1xx_HAL_Driver/Src/stm32f1xx_hal_exti.c ****     return HAL_ERROR;
 248:Drivers/STM32F1xx_HAL_Driver/Src/stm32f1xx_hal_exti.c ****   }
 249:Drivers/STM32F1xx_HAL_Driver/Src/stm32f1xx_hal_exti.c **** 
 250:Drivers/STM32F1xx_HAL_Driver/Src/stm32f1xx_hal_exti.c ****   /* Check the parameter */
 251:Drivers/STM32F1xx_HAL_Driver/Src/stm32f1xx_hal_exti.c ****   assert_param(IS_EXTI_LINE(hexti->Line));
 369              		.loc 1 251 3 is_stmt 1 view .LVU97
 370 000e 0268     		ldr	r2, [r0]
 371 0010 22F0C063 		bic	r3, r2, #100663296
 372 0014 23F01F03 		bic	r3, r3, #31
 373 0018 3BB9     		cbnz	r3, .L33
 374              		.loc 1 251 3 is_stmt 0 discriminator 2 view .LVU98
 375 001a 02F0C063 		and	r3, r2, #100663296
 376 001e B3F1007F 		cmp	r3, #33554432
 377 0022 38D0     		beq	.L34
 378              		.loc 1 251 3 discriminator 3 view .LVU99
 379 0024 B3F1C06F 		cmp	r3, #100663296
 380 0028 35D0     		beq	.L34
 381              	.L33:
 382              		.loc 1 251 3 discriminator 7 view .LVU100
 383 002a FB21     		movs	r1, #251
 384              	.LVL29:
 385              		.loc 1 251 3 discriminator 7 view .LVU101
 386 002c 2D48     		ldr	r0, .L52
 387              	.LVL30:
 388              		.loc 1 251 3 discriminator 7 view .LVU102
 389 002e FFF7FEFF 		bl	assert_failed
 390              	.LVL31:
 391              	.L35:
 252:Drivers/STM32F1xx_HAL_Driver/Src/stm32f1xx_hal_exti.c **** 
 253:Drivers/STM32F1xx_HAL_Driver/Src/stm32f1xx_hal_exti.c ****   /* Store handle line number to configuration structure */
 254:Drivers/STM32F1xx_HAL_Driver/Src/stm32f1xx_hal_exti.c ****   pExtiConfig->Line = hexti->Line;
 392              		.loc 1 254 3 is_stmt 1 view .LVU103
 393              		.loc 1 254 28 is_stmt 0 view .LVU104
 394 0032 2968     		ldr	r1, [r5]
 395              		.loc 1 254 21 view .LVU105
 396 0034 2160     		str	r1, [r4]
 255:Drivers/STM32F1xx_HAL_Driver/Src/stm32f1xx_hal_exti.c **** 
 256:Drivers/STM32F1xx_HAL_Driver/Src/stm32f1xx_hal_exti.c ****   /* Compute line mask */
ARM GAS  /tmp/ccTIG2Fz.s 			page 13


 257:Drivers/STM32F1xx_HAL_Driver/Src/stm32f1xx_hal_exti.c ****   linepos = (pExtiConfig->Line & EXTI_PIN_MASK);
 397              		.loc 1 257 3 is_stmt 1 view .LVU106
 398              		.loc 1 257 11 is_stmt 0 view .LVU107
 399 0036 01F01F05 		and	r5, r1, #31
 400              	.LVL32:
 258:Drivers/STM32F1xx_HAL_Driver/Src/stm32f1xx_hal_exti.c ****   maskline = (1uL << linepos);
 401              		.loc 1 258 3 is_stmt 1 view .LVU108
 402              		.loc 1 258 12 is_stmt 0 view .LVU109
 403 003a 0123     		movs	r3, #1
 404 003c AB40     		lsls	r3, r3, r5
 405              	.LVL33:
 259:Drivers/STM32F1xx_HAL_Driver/Src/stm32f1xx_hal_exti.c **** 
 260:Drivers/STM32F1xx_HAL_Driver/Src/stm32f1xx_hal_exti.c ****   /* 1] Get core mode : interrupt */
 261:Drivers/STM32F1xx_HAL_Driver/Src/stm32f1xx_hal_exti.c **** 
 262:Drivers/STM32F1xx_HAL_Driver/Src/stm32f1xx_hal_exti.c ****   /* Check if selected line is enable */
 263:Drivers/STM32F1xx_HAL_Driver/Src/stm32f1xx_hal_exti.c ****   if ((EXTI->IMR & maskline) != 0x00u)
 406              		.loc 1 263 3 is_stmt 1 view .LVU110
 407              		.loc 1 263 12 is_stmt 0 view .LVU111
 408 003e 2A4A     		ldr	r2, .L52+4
 409 0040 1268     		ldr	r2, [r2]
 410              		.loc 1 263 6 view .LVU112
 411 0042 1A42     		tst	r2, r3
 412 0044 2CD0     		beq	.L36
 264:Drivers/STM32F1xx_HAL_Driver/Src/stm32f1xx_hal_exti.c ****   {
 265:Drivers/STM32F1xx_HAL_Driver/Src/stm32f1xx_hal_exti.c ****     pExtiConfig->Mode = EXTI_MODE_INTERRUPT;
 413              		.loc 1 265 5 is_stmt 1 view .LVU113
 414              		.loc 1 265 23 is_stmt 0 view .LVU114
 415 0046 0122     		movs	r2, #1
 416 0048 6260     		str	r2, [r4, #4]
 417              	.L37:
 266:Drivers/STM32F1xx_HAL_Driver/Src/stm32f1xx_hal_exti.c ****   }
 267:Drivers/STM32F1xx_HAL_Driver/Src/stm32f1xx_hal_exti.c ****   else
 268:Drivers/STM32F1xx_HAL_Driver/Src/stm32f1xx_hal_exti.c ****   {
 269:Drivers/STM32F1xx_HAL_Driver/Src/stm32f1xx_hal_exti.c ****     pExtiConfig->Mode = EXTI_MODE_NONE;
 270:Drivers/STM32F1xx_HAL_Driver/Src/stm32f1xx_hal_exti.c ****   }
 271:Drivers/STM32F1xx_HAL_Driver/Src/stm32f1xx_hal_exti.c **** 
 272:Drivers/STM32F1xx_HAL_Driver/Src/stm32f1xx_hal_exti.c ****   /* Get event mode */
 273:Drivers/STM32F1xx_HAL_Driver/Src/stm32f1xx_hal_exti.c ****   /* Check if selected line is enable */
 274:Drivers/STM32F1xx_HAL_Driver/Src/stm32f1xx_hal_exti.c ****   if ((EXTI->EMR & maskline) != 0x00u)
 418              		.loc 1 274 3 is_stmt 1 view .LVU115
 419              		.loc 1 274 12 is_stmt 0 view .LVU116
 420 004a 274A     		ldr	r2, .L52+4
 421 004c 5268     		ldr	r2, [r2, #4]
 422              		.loc 1 274 6 view .LVU117
 423 004e 1A42     		tst	r2, r3
 424 0050 03D0     		beq	.L38
 275:Drivers/STM32F1xx_HAL_Driver/Src/stm32f1xx_hal_exti.c ****   {
 276:Drivers/STM32F1xx_HAL_Driver/Src/stm32f1xx_hal_exti.c ****     pExtiConfig->Mode |= EXTI_MODE_EVENT;
 425              		.loc 1 276 5 is_stmt 1 view .LVU118
 426              		.loc 1 276 23 is_stmt 0 view .LVU119
 427 0052 6268     		ldr	r2, [r4, #4]
 428 0054 42F00202 		orr	r2, r2, #2
 429 0058 6260     		str	r2, [r4, #4]
 430              	.L38:
 277:Drivers/STM32F1xx_HAL_Driver/Src/stm32f1xx_hal_exti.c ****   }
 278:Drivers/STM32F1xx_HAL_Driver/Src/stm32f1xx_hal_exti.c **** 
 279:Drivers/STM32F1xx_HAL_Driver/Src/stm32f1xx_hal_exti.c ****   /* Get default Trigger and GPIOSel configuration */
ARM GAS  /tmp/ccTIG2Fz.s 			page 14


 280:Drivers/STM32F1xx_HAL_Driver/Src/stm32f1xx_hal_exti.c ****   pExtiConfig->Trigger = EXTI_TRIGGER_NONE;
 431              		.loc 1 280 3 is_stmt 1 view .LVU120
 432              		.loc 1 280 24 is_stmt 0 view .LVU121
 433 005a 0022     		movs	r2, #0
 434 005c A260     		str	r2, [r4, #8]
 281:Drivers/STM32F1xx_HAL_Driver/Src/stm32f1xx_hal_exti.c ****   pExtiConfig->GPIOSel = 0x00u;
 435              		.loc 1 281 3 is_stmt 1 view .LVU122
 436              		.loc 1 281 24 is_stmt 0 view .LVU123
 437 005e E260     		str	r2, [r4, #12]
 282:Drivers/STM32F1xx_HAL_Driver/Src/stm32f1xx_hal_exti.c **** 
 283:Drivers/STM32F1xx_HAL_Driver/Src/stm32f1xx_hal_exti.c ****   /* 2] Get trigger for configurable lines : rising */
 284:Drivers/STM32F1xx_HAL_Driver/Src/stm32f1xx_hal_exti.c ****   if ((pExtiConfig->Line & EXTI_CONFIG) != 0x00u)
 438              		.loc 1 284 3 is_stmt 1 view .LVU124
 439              		.loc 1 284 6 is_stmt 0 view .LVU125
 440 0060 11F0007F 		tst	r1, #33554432
 441 0064 3BD0     		beq	.L44
 285:Drivers/STM32F1xx_HAL_Driver/Src/stm32f1xx_hal_exti.c ****   {
 286:Drivers/STM32F1xx_HAL_Driver/Src/stm32f1xx_hal_exti.c ****     /* Check if configuration of selected line is enable */
 287:Drivers/STM32F1xx_HAL_Driver/Src/stm32f1xx_hal_exti.c ****     if ((EXTI->RTSR & maskline) != 0x00u)
 442              		.loc 1 287 5 is_stmt 1 view .LVU126
 443              		.loc 1 287 14 is_stmt 0 view .LVU127
 444 0066 02F18042 		add	r2, r2, #1073741824
 445 006a 02F58232 		add	r2, r2, #66560
 446 006e 9268     		ldr	r2, [r2, #8]
 447              		.loc 1 287 8 view .LVU128
 448 0070 1A42     		tst	r2, r3
 449 0072 01D0     		beq	.L39
 288:Drivers/STM32F1xx_HAL_Driver/Src/stm32f1xx_hal_exti.c ****     {
 289:Drivers/STM32F1xx_HAL_Driver/Src/stm32f1xx_hal_exti.c ****       pExtiConfig->Trigger = EXTI_TRIGGER_RISING;
 450              		.loc 1 289 7 is_stmt 1 view .LVU129
 451              		.loc 1 289 28 is_stmt 0 view .LVU130
 452 0074 0122     		movs	r2, #1
 453 0076 A260     		str	r2, [r4, #8]
 454              	.L39:
 290:Drivers/STM32F1xx_HAL_Driver/Src/stm32f1xx_hal_exti.c ****     }
 291:Drivers/STM32F1xx_HAL_Driver/Src/stm32f1xx_hal_exti.c **** 
 292:Drivers/STM32F1xx_HAL_Driver/Src/stm32f1xx_hal_exti.c ****     /* Get falling configuration */
 293:Drivers/STM32F1xx_HAL_Driver/Src/stm32f1xx_hal_exti.c ****     /* Check if configuration of selected line is enable */
 294:Drivers/STM32F1xx_HAL_Driver/Src/stm32f1xx_hal_exti.c ****     if ((EXTI->FTSR & maskline) != 0x00u)
 455              		.loc 1 294 5 is_stmt 1 view .LVU131
 456              		.loc 1 294 14 is_stmt 0 view .LVU132
 457 0078 1B4A     		ldr	r2, .L52+4
 458 007a D268     		ldr	r2, [r2, #12]
 459              		.loc 1 294 8 view .LVU133
 460 007c 1A42     		tst	r2, r3
 461 007e 03D0     		beq	.L40
 295:Drivers/STM32F1xx_HAL_Driver/Src/stm32f1xx_hal_exti.c ****     {
 296:Drivers/STM32F1xx_HAL_Driver/Src/stm32f1xx_hal_exti.c ****       pExtiConfig->Trigger |= EXTI_TRIGGER_FALLING;
 462              		.loc 1 296 7 is_stmt 1 view .LVU134
 463              		.loc 1 296 28 is_stmt 0 view .LVU135
 464 0080 A368     		ldr	r3, [r4, #8]
 465              	.LVL34:
 466              		.loc 1 296 28 view .LVU136
 467 0082 43F00203 		orr	r3, r3, #2
 468 0086 A360     		str	r3, [r4, #8]
 469              	.L40:
 297:Drivers/STM32F1xx_HAL_Driver/Src/stm32f1xx_hal_exti.c ****     }
ARM GAS  /tmp/ccTIG2Fz.s 			page 15


 298:Drivers/STM32F1xx_HAL_Driver/Src/stm32f1xx_hal_exti.c **** 
 299:Drivers/STM32F1xx_HAL_Driver/Src/stm32f1xx_hal_exti.c ****     /* Get Gpio port selection for gpio lines */
 300:Drivers/STM32F1xx_HAL_Driver/Src/stm32f1xx_hal_exti.c ****     if ((pExtiConfig->Line & EXTI_GPIO) == EXTI_GPIO)
 470              		.loc 1 300 5 is_stmt 1 view .LVU137
 471              		.loc 1 300 28 is_stmt 0 view .LVU138
 472 0088 01F0C063 		and	r3, r1, #100663296
 473              		.loc 1 300 8 view .LVU139
 474 008c B3F1C06F 		cmp	r3, #100663296
 475 0090 09D0     		beq	.L50
 301:Drivers/STM32F1xx_HAL_Driver/Src/stm32f1xx_hal_exti.c ****     {
 302:Drivers/STM32F1xx_HAL_Driver/Src/stm32f1xx_hal_exti.c ****       assert_param(IS_EXTI_GPIO_PIN(linepos));
 303:Drivers/STM32F1xx_HAL_Driver/Src/stm32f1xx_hal_exti.c **** 
 304:Drivers/STM32F1xx_HAL_Driver/Src/stm32f1xx_hal_exti.c ****       regval = AFIO->EXTICR[linepos >> 2u];
 305:Drivers/STM32F1xx_HAL_Driver/Src/stm32f1xx_hal_exti.c ****       pExtiConfig->GPIOSel = ((regval << (AFIO_EXTICR1_EXTI1_Pos * (3uL - (linepos & 0x03u)))) >> 2
 306:Drivers/STM32F1xx_HAL_Driver/Src/stm32f1xx_hal_exti.c ****     }
 307:Drivers/STM32F1xx_HAL_Driver/Src/stm32f1xx_hal_exti.c ****   }
 308:Drivers/STM32F1xx_HAL_Driver/Src/stm32f1xx_hal_exti.c **** 
 309:Drivers/STM32F1xx_HAL_Driver/Src/stm32f1xx_hal_exti.c ****   return HAL_OK;
 476              		.loc 1 309 10 view .LVU140
 477 0092 0020     		movs	r0, #0
 478 0094 24E0     		b	.L32
 479              	.LVL35:
 480              	.L34:
 251:Drivers/STM32F1xx_HAL_Driver/Src/stm32f1xx_hal_exti.c **** 
 481              		.loc 1 251 3 discriminator 6 view .LVU141
 482 0096 02F01F02 		and	r2, r2, #31
 483 009a 122A     		cmp	r2, #18
 484 009c C9D9     		bls	.L35
 485 009e C4E7     		b	.L33
 486              	.LVL36:
 487              	.L36:
 269:Drivers/STM32F1xx_HAL_Driver/Src/stm32f1xx_hal_exti.c ****   }
 488              		.loc 1 269 5 is_stmt 1 view .LVU142
 269:Drivers/STM32F1xx_HAL_Driver/Src/stm32f1xx_hal_exti.c ****   }
 489              		.loc 1 269 23 is_stmt 0 view .LVU143
 490 00a0 0022     		movs	r2, #0
 491 00a2 6260     		str	r2, [r4, #4]
 492 00a4 D1E7     		b	.L37
 493              	.LVL37:
 494              	.L50:
 302:Drivers/STM32F1xx_HAL_Driver/Src/stm32f1xx_hal_exti.c **** 
 495              		.loc 1 302 7 is_stmt 1 view .LVU144
 496 00a6 11F0100F 		tst	r1, #16
 497 00aa 0ED1     		bne	.L51
 498              	.L41:
 304:Drivers/STM32F1xx_HAL_Driver/Src/stm32f1xx_hal_exti.c ****       pExtiConfig->GPIOSel = ((regval << (AFIO_EXTICR1_EXTI1_Pos * (3uL - (linepos & 0x03u)))) >> 2
 499              		.loc 1 304 7 view .LVU145
 304:Drivers/STM32F1xx_HAL_Driver/Src/stm32f1xx_hal_exti.c ****       pExtiConfig->GPIOSel = ((regval << (AFIO_EXTICR1_EXTI1_Pos * (3uL - (linepos & 0x03u)))) >> 2
 500              		.loc 1 304 37 is_stmt 0 view .LVU146
 501 00ac AB08     		lsrs	r3, r5, #2
 304:Drivers/STM32F1xx_HAL_Driver/Src/stm32f1xx_hal_exti.c ****       pExtiConfig->GPIOSel = ((regval << (AFIO_EXTICR1_EXTI1_Pos * (3uL - (linepos & 0x03u)))) >> 2
 502              		.loc 1 304 14 view .LVU147
 503 00ae 0233     		adds	r3, r3, #2
 504 00b0 0E4A     		ldr	r2, .L52+8
 505 00b2 52F82330 		ldr	r3, [r2, r3, lsl #2]
 506              	.LVL38:
 305:Drivers/STM32F1xx_HAL_Driver/Src/stm32f1xx_hal_exti.c ****     }
ARM GAS  /tmp/ccTIG2Fz.s 			page 16


 507              		.loc 1 305 7 is_stmt 1 view .LVU148
 305:Drivers/STM32F1xx_HAL_Driver/Src/stm32f1xx_hal_exti.c ****     }
 508              		.loc 1 305 73 is_stmt 0 view .LVU149
 509 00b6 ED43     		mvns	r5, r5
 510              	.LVL39:
 305:Drivers/STM32F1xx_HAL_Driver/Src/stm32f1xx_hal_exti.c ****     }
 511              		.loc 1 305 73 view .LVU150
 512 00b8 05F00305 		and	r5, r5, #3
 513              	.LVL40:
 305:Drivers/STM32F1xx_HAL_Driver/Src/stm32f1xx_hal_exti.c ****     }
 514              		.loc 1 305 66 view .LVU151
 515 00bc AD00     		lsls	r5, r5, #2
 305:Drivers/STM32F1xx_HAL_Driver/Src/stm32f1xx_hal_exti.c ****     }
 516              		.loc 1 305 39 view .LVU152
 517 00be 03FA05F5 		lsl	r5, r3, r5
 305:Drivers/STM32F1xx_HAL_Driver/Src/stm32f1xx_hal_exti.c ****     }
 518              		.loc 1 305 96 view .LVU153
 519 00c2 2D0E     		lsrs	r5, r5, #24
 305:Drivers/STM32F1xx_HAL_Driver/Src/stm32f1xx_hal_exti.c ****     }
 520              		.loc 1 305 28 view .LVU154
 521 00c4 E560     		str	r5, [r4, #12]
 522              		.loc 1 309 10 view .LVU155
 523 00c6 0020     		movs	r0, #0
 524 00c8 0AE0     		b	.L32
 525              	.LVL41:
 526              	.L51:
 302:Drivers/STM32F1xx_HAL_Driver/Src/stm32f1xx_hal_exti.c **** 
 527              		.loc 1 302 7 discriminator 1 view .LVU156
 528 00ca 4FF49771 		mov	r1, #302
 529 00ce 0548     		ldr	r0, .L52
 530 00d0 FFF7FEFF 		bl	assert_failed
 531              	.LVL42:
 532 00d4 EAE7     		b	.L41
 533              	.LVL43:
 534              	.L42:
 535              	.LCFI4:
 536              		.cfi_def_cfa_offset 0
 537              		.cfi_restore 3
 538              		.cfi_restore 4
 539              		.cfi_restore 5
 540              		.cfi_restore 14
 247:Drivers/STM32F1xx_HAL_Driver/Src/stm32f1xx_hal_exti.c ****   }
 541              		.loc 1 247 12 view .LVU157
 542 00d6 0120     		movs	r0, #1
 543              	.LVL44:
 310:Drivers/STM32F1xx_HAL_Driver/Src/stm32f1xx_hal_exti.c **** }
 544              		.loc 1 310 1 view .LVU158
 545 00d8 7047     		bx	lr
 546              	.LVL45:
 547              	.L43:
 548              	.LCFI5:
 549              		.cfi_def_cfa_offset 16
 550              		.cfi_offset 3, -16
 551              		.cfi_offset 4, -12
 552              		.cfi_offset 5, -8
 553              		.cfi_offset 14, -4
 247:Drivers/STM32F1xx_HAL_Driver/Src/stm32f1xx_hal_exti.c ****   }
ARM GAS  /tmp/ccTIG2Fz.s 			page 17


 554              		.loc 1 247 12 view .LVU159
 555 00da 0120     		movs	r0, #1
 556              	.LVL46:
 247:Drivers/STM32F1xx_HAL_Driver/Src/stm32f1xx_hal_exti.c ****   }
 557              		.loc 1 247 12 view .LVU160
 558 00dc 00E0     		b	.L32
 559              	.LVL47:
 560              	.L44:
 309:Drivers/STM32F1xx_HAL_Driver/Src/stm32f1xx_hal_exti.c **** }
 561              		.loc 1 309 10 view .LVU161
 562 00de 0020     		movs	r0, #0
 563              	.LVL48:
 564              	.L32:
 565              		.loc 1 310 1 view .LVU162
 566 00e0 38BD     		pop	{r3, r4, r5, pc}
 567              	.L53:
 568 00e2 00BF     		.align	2
 569              	.L52:
 570 00e4 00000000 		.word	.LC0
 571 00e8 00040140 		.word	1073808384
 572 00ec 00000140 		.word	1073807360
 573              		.cfi_endproc
 574              	.LFE66:
 576              		.section	.text.HAL_EXTI_ClearConfigLine,"ax",%progbits
 577              		.align	1
 578              		.global	HAL_EXTI_ClearConfigLine
 579              		.syntax unified
 580              		.thumb
 581              		.thumb_func
 582              		.fpu softvfp
 584              	HAL_EXTI_ClearConfigLine:
 585              	.LVL49:
 586              	.LFB67:
 311:Drivers/STM32F1xx_HAL_Driver/Src/stm32f1xx_hal_exti.c **** 
 312:Drivers/STM32F1xx_HAL_Driver/Src/stm32f1xx_hal_exti.c **** /**
 313:Drivers/STM32F1xx_HAL_Driver/Src/stm32f1xx_hal_exti.c ****   * @brief  Clear whole configuration of a dedicated Exti line.
 314:Drivers/STM32F1xx_HAL_Driver/Src/stm32f1xx_hal_exti.c ****   * @param  hexti Exti handle.
 315:Drivers/STM32F1xx_HAL_Driver/Src/stm32f1xx_hal_exti.c ****   * @retval HAL Status.
 316:Drivers/STM32F1xx_HAL_Driver/Src/stm32f1xx_hal_exti.c ****   */
 317:Drivers/STM32F1xx_HAL_Driver/Src/stm32f1xx_hal_exti.c **** HAL_StatusTypeDef HAL_EXTI_ClearConfigLine(EXTI_HandleTypeDef *hexti)
 318:Drivers/STM32F1xx_HAL_Driver/Src/stm32f1xx_hal_exti.c **** {
 587              		.loc 1 318 1 is_stmt 1 view -0
 588              		.cfi_startproc
 589              		@ args = 0, pretend = 0, frame = 0
 590              		@ frame_needed = 0, uses_anonymous_args = 0
 319:Drivers/STM32F1xx_HAL_Driver/Src/stm32f1xx_hal_exti.c ****   uint32_t regval;
 591              		.loc 1 319 3 view .LVU164
 320:Drivers/STM32F1xx_HAL_Driver/Src/stm32f1xx_hal_exti.c ****   uint32_t linepos;
 592              		.loc 1 320 3 view .LVU165
 321:Drivers/STM32F1xx_HAL_Driver/Src/stm32f1xx_hal_exti.c ****   uint32_t maskline;
 593              		.loc 1 321 3 view .LVU166
 322:Drivers/STM32F1xx_HAL_Driver/Src/stm32f1xx_hal_exti.c **** 
 323:Drivers/STM32F1xx_HAL_Driver/Src/stm32f1xx_hal_exti.c ****   /* Check null pointer */
 324:Drivers/STM32F1xx_HAL_Driver/Src/stm32f1xx_hal_exti.c ****   if (hexti == NULL)
 594              		.loc 1 324 3 view .LVU167
 595              		.loc 1 324 6 is_stmt 0 view .LVU168
 596 0000 0028     		cmp	r0, #0
ARM GAS  /tmp/ccTIG2Fz.s 			page 18


 597 0002 53D0     		beq	.L60
 318:Drivers/STM32F1xx_HAL_Driver/Src/stm32f1xx_hal_exti.c ****   uint32_t regval;
 598              		.loc 1 318 1 view .LVU169
 599 0004 70B5     		push	{r4, r5, r6, lr}
 600              	.LCFI6:
 601              		.cfi_def_cfa_offset 16
 602              		.cfi_offset 4, -16
 603              		.cfi_offset 5, -12
 604              		.cfi_offset 6, -8
 605              		.cfi_offset 14, -4
 606 0006 0446     		mov	r4, r0
 325:Drivers/STM32F1xx_HAL_Driver/Src/stm32f1xx_hal_exti.c ****   {
 326:Drivers/STM32F1xx_HAL_Driver/Src/stm32f1xx_hal_exti.c ****     return HAL_ERROR;
 327:Drivers/STM32F1xx_HAL_Driver/Src/stm32f1xx_hal_exti.c ****   }
 328:Drivers/STM32F1xx_HAL_Driver/Src/stm32f1xx_hal_exti.c **** 
 329:Drivers/STM32F1xx_HAL_Driver/Src/stm32f1xx_hal_exti.c ****   /* Check the parameter */
 330:Drivers/STM32F1xx_HAL_Driver/Src/stm32f1xx_hal_exti.c ****   assert_param(IS_EXTI_LINE(hexti->Line));
 607              		.loc 1 330 3 is_stmt 1 view .LVU170
 608 0008 0268     		ldr	r2, [r0]
 609 000a 22F0C063 		bic	r3, r2, #100663296
 610 000e 23F01F03 		bic	r3, r3, #31
 611 0012 3BB9     		cbnz	r3, .L56
 612              		.loc 1 330 3 is_stmt 0 discriminator 2 view .LVU171
 613 0014 02F0C063 		and	r3, r2, #100663296
 614 0018 B3F1007F 		cmp	r3, #33554432
 615 001c 27D0     		beq	.L57
 616              		.loc 1 330 3 discriminator 3 view .LVU172
 617 001e B3F1C06F 		cmp	r3, #100663296
 618 0022 24D0     		beq	.L57
 619              	.L56:
 620              		.loc 1 330 3 discriminator 7 view .LVU173
 621 0024 4FF4A571 		mov	r1, #330
 622 0028 2248     		ldr	r0, .L69
 623              	.LVL50:
 624              		.loc 1 330 3 discriminator 7 view .LVU174
 625 002a FFF7FEFF 		bl	assert_failed
 626              	.LVL51:
 627              	.L58:
 331:Drivers/STM32F1xx_HAL_Driver/Src/stm32f1xx_hal_exti.c **** 
 332:Drivers/STM32F1xx_HAL_Driver/Src/stm32f1xx_hal_exti.c ****   /* compute line mask */
 333:Drivers/STM32F1xx_HAL_Driver/Src/stm32f1xx_hal_exti.c ****   linepos = (hexti->Line & EXTI_PIN_MASK);
 628              		.loc 1 333 3 is_stmt 1 view .LVU175
 629              		.loc 1 333 19 is_stmt 0 view .LVU176
 630 002e 2668     		ldr	r6, [r4]
 631              		.loc 1 333 11 view .LVU177
 632 0030 06F01F05 		and	r5, r6, #31
 633              	.LVL52:
 334:Drivers/STM32F1xx_HAL_Driver/Src/stm32f1xx_hal_exti.c ****   maskline = (1uL << linepos);
 634              		.loc 1 334 3 is_stmt 1 view .LVU178
 635              		.loc 1 334 12 is_stmt 0 view .LVU179
 636 0034 0123     		movs	r3, #1
 637 0036 AB40     		lsls	r3, r3, r5
 638              	.LVL53:
 335:Drivers/STM32F1xx_HAL_Driver/Src/stm32f1xx_hal_exti.c **** 
 336:Drivers/STM32F1xx_HAL_Driver/Src/stm32f1xx_hal_exti.c ****   /* 1] Clear interrupt mode */
 337:Drivers/STM32F1xx_HAL_Driver/Src/stm32f1xx_hal_exti.c ****   EXTI->IMR = (EXTI->IMR & ~maskline);
 639              		.loc 1 337 3 is_stmt 1 view .LVU180
ARM GAS  /tmp/ccTIG2Fz.s 			page 19


 640              		.loc 1 337 20 is_stmt 0 view .LVU181
 641 0038 1F4A     		ldr	r2, .L69+4
 642 003a 1168     		ldr	r1, [r2]
 643              		.loc 1 337 28 view .LVU182
 644 003c DB43     		mvns	r3, r3
 645              	.LVL54:
 646              		.loc 1 337 26 view .LVU183
 647 003e 1940     		ands	r1, r1, r3
 648              		.loc 1 337 13 view .LVU184
 649 0040 1160     		str	r1, [r2]
 338:Drivers/STM32F1xx_HAL_Driver/Src/stm32f1xx_hal_exti.c **** 
 339:Drivers/STM32F1xx_HAL_Driver/Src/stm32f1xx_hal_exti.c ****   /* 2] Clear event mode */
 340:Drivers/STM32F1xx_HAL_Driver/Src/stm32f1xx_hal_exti.c ****   EXTI->EMR = (EXTI->EMR & ~maskline);
 650              		.loc 1 340 3 is_stmt 1 view .LVU185
 651              		.loc 1 340 20 is_stmt 0 view .LVU186
 652 0042 5168     		ldr	r1, [r2, #4]
 653              		.loc 1 340 26 view .LVU187
 654 0044 1940     		ands	r1, r1, r3
 655              		.loc 1 340 13 view .LVU188
 656 0046 5160     		str	r1, [r2, #4]
 341:Drivers/STM32F1xx_HAL_Driver/Src/stm32f1xx_hal_exti.c **** 
 342:Drivers/STM32F1xx_HAL_Driver/Src/stm32f1xx_hal_exti.c ****   /* 3] Clear triggers in case of configurable lines */
 343:Drivers/STM32F1xx_HAL_Driver/Src/stm32f1xx_hal_exti.c ****   if ((hexti->Line & EXTI_CONFIG) != 0x00u)
 657              		.loc 1 343 3 is_stmt 1 view .LVU189
 658              		.loc 1 343 13 is_stmt 0 view .LVU190
 659 0048 2268     		ldr	r2, [r4]
 660              		.loc 1 343 6 view .LVU191
 661 004a 12F0007F 		tst	r2, #33554432
 662 004e 2FD0     		beq	.L61
 344:Drivers/STM32F1xx_HAL_Driver/Src/stm32f1xx_hal_exti.c ****   {
 345:Drivers/STM32F1xx_HAL_Driver/Src/stm32f1xx_hal_exti.c ****     EXTI->RTSR = (EXTI->RTSR & ~maskline);
 663              		.loc 1 345 5 is_stmt 1 view .LVU192
 664              		.loc 1 345 23 is_stmt 0 view .LVU193
 665 0050 194A     		ldr	r2, .L69+4
 666 0052 9168     		ldr	r1, [r2, #8]
 667              		.loc 1 345 30 view .LVU194
 668 0054 1940     		ands	r1, r1, r3
 669              		.loc 1 345 16 view .LVU195
 670 0056 9160     		str	r1, [r2, #8]
 346:Drivers/STM32F1xx_HAL_Driver/Src/stm32f1xx_hal_exti.c ****     EXTI->FTSR = (EXTI->FTSR & ~maskline);
 671              		.loc 1 346 5 is_stmt 1 view .LVU196
 672              		.loc 1 346 23 is_stmt 0 view .LVU197
 673 0058 D168     		ldr	r1, [r2, #12]
 674              		.loc 1 346 30 view .LVU198
 675 005a 0B40     		ands	r3, r3, r1
 676              	.LVL55:
 677              		.loc 1 346 16 view .LVU199
 678 005c D360     		str	r3, [r2, #12]
 347:Drivers/STM32F1xx_HAL_Driver/Src/stm32f1xx_hal_exti.c **** 
 348:Drivers/STM32F1xx_HAL_Driver/Src/stm32f1xx_hal_exti.c ****     /* Get Gpio port selection for gpio lines */
 349:Drivers/STM32F1xx_HAL_Driver/Src/stm32f1xx_hal_exti.c ****     if ((hexti->Line & EXTI_GPIO) == EXTI_GPIO)
 679              		.loc 1 349 5 is_stmt 1 view .LVU200
 680              		.loc 1 349 15 is_stmt 0 view .LVU201
 681 005e 2368     		ldr	r3, [r4]
 682              		.loc 1 349 22 view .LVU202
 683 0060 03F0C063 		and	r3, r3, #100663296
 684              		.loc 1 349 8 view .LVU203
ARM GAS  /tmp/ccTIG2Fz.s 			page 20


 685 0064 B3F1C06F 		cmp	r3, #100663296
 686 0068 06D0     		beq	.L67
 350:Drivers/STM32F1xx_HAL_Driver/Src/stm32f1xx_hal_exti.c ****     {
 351:Drivers/STM32F1xx_HAL_Driver/Src/stm32f1xx_hal_exti.c ****       assert_param(IS_EXTI_GPIO_PIN(linepos));
 352:Drivers/STM32F1xx_HAL_Driver/Src/stm32f1xx_hal_exti.c **** 
 353:Drivers/STM32F1xx_HAL_Driver/Src/stm32f1xx_hal_exti.c ****       regval = AFIO->EXTICR[linepos >> 2u];
 354:Drivers/STM32F1xx_HAL_Driver/Src/stm32f1xx_hal_exti.c ****       regval &= ~(AFIO_EXTICR1_EXTI0 << (AFIO_EXTICR1_EXTI1_Pos * (linepos & 0x03u)));
 355:Drivers/STM32F1xx_HAL_Driver/Src/stm32f1xx_hal_exti.c ****       AFIO->EXTICR[linepos >> 2u] = regval;
 356:Drivers/STM32F1xx_HAL_Driver/Src/stm32f1xx_hal_exti.c ****     }
 357:Drivers/STM32F1xx_HAL_Driver/Src/stm32f1xx_hal_exti.c ****   }
 358:Drivers/STM32F1xx_HAL_Driver/Src/stm32f1xx_hal_exti.c **** 
 359:Drivers/STM32F1xx_HAL_Driver/Src/stm32f1xx_hal_exti.c ****   return HAL_OK;
 687              		.loc 1 359 10 view .LVU204
 688 006a 0020     		movs	r0, #0
 689 006c 21E0     		b	.L55
 690              	.LVL56:
 691              	.L57:
 330:Drivers/STM32F1xx_HAL_Driver/Src/stm32f1xx_hal_exti.c **** 
 692              		.loc 1 330 3 discriminator 6 view .LVU205
 693 006e 02F01F02 		and	r2, r2, #31
 694 0072 122A     		cmp	r2, #18
 695 0074 DBD9     		bls	.L58
 696 0076 D5E7     		b	.L56
 697              	.LVL57:
 698              	.L67:
 351:Drivers/STM32F1xx_HAL_Driver/Src/stm32f1xx_hal_exti.c **** 
 699              		.loc 1 351 7 is_stmt 1 view .LVU206
 700 0078 16F0100F 		tst	r6, #16
 701 007c 10D1     		bne	.L68
 702              	.L59:
 353:Drivers/STM32F1xx_HAL_Driver/Src/stm32f1xx_hal_exti.c ****       regval &= ~(AFIO_EXTICR1_EXTI0 << (AFIO_EXTICR1_EXTI1_Pos * (linepos & 0x03u)));
 703              		.loc 1 353 7 view .LVU207
 353:Drivers/STM32F1xx_HAL_Driver/Src/stm32f1xx_hal_exti.c ****       regval &= ~(AFIO_EXTICR1_EXTI0 << (AFIO_EXTICR1_EXTI1_Pos * (linepos & 0x03u)));
 704              		.loc 1 353 37 is_stmt 0 view .LVU208
 705 007e AD08     		lsrs	r5, r5, #2
 706              	.LVL58:
 353:Drivers/STM32F1xx_HAL_Driver/Src/stm32f1xx_hal_exti.c ****       regval &= ~(AFIO_EXTICR1_EXTI0 << (AFIO_EXTICR1_EXTI1_Pos * (linepos & 0x03u)));
 707              		.loc 1 353 14 view .LVU209
 708 0080 0E49     		ldr	r1, .L69+8
 709 0082 0235     		adds	r5, r5, #2
 710 0084 51F82530 		ldr	r3, [r1, r5, lsl #2]
 711              	.LVL59:
 354:Drivers/STM32F1xx_HAL_Driver/Src/stm32f1xx_hal_exti.c ****       AFIO->EXTICR[linepos >> 2u] = regval;
 712              		.loc 1 354 7 is_stmt 1 view .LVU210
 354:Drivers/STM32F1xx_HAL_Driver/Src/stm32f1xx_hal_exti.c ****       AFIO->EXTICR[linepos >> 2u] = regval;
 713              		.loc 1 354 76 is_stmt 0 view .LVU211
 714 0088 06F00306 		and	r6, r6, #3
 715              	.LVL60:
 354:Drivers/STM32F1xx_HAL_Driver/Src/stm32f1xx_hal_exti.c ****       AFIO->EXTICR[linepos >> 2u] = regval;
 716              		.loc 1 354 65 view .LVU212
 717 008c B600     		lsls	r6, r6, #2
 354:Drivers/STM32F1xx_HAL_Driver/Src/stm32f1xx_hal_exti.c ****       AFIO->EXTICR[linepos >> 2u] = regval;
 718              		.loc 1 354 38 view .LVU213
 719 008e 0F22     		movs	r2, #15
 720 0090 02FA06F6 		lsl	r6, r2, r6
 354:Drivers/STM32F1xx_HAL_Driver/Src/stm32f1xx_hal_exti.c ****       AFIO->EXTICR[linepos >> 2u] = regval;
 721              		.loc 1 354 14 view .LVU214
ARM GAS  /tmp/ccTIG2Fz.s 			page 21


 722 0094 23EA0606 		bic	r6, r3, r6
 723              	.LVL61:
 355:Drivers/STM32F1xx_HAL_Driver/Src/stm32f1xx_hal_exti.c ****     }
 724              		.loc 1 355 7 is_stmt 1 view .LVU215
 355:Drivers/STM32F1xx_HAL_Driver/Src/stm32f1xx_hal_exti.c ****     }
 725              		.loc 1 355 35 is_stmt 0 view .LVU216
 726 0098 41F82560 		str	r6, [r1, r5, lsl #2]
 727              		.loc 1 359 10 view .LVU217
 728 009c 0020     		movs	r0, #0
 729 009e 08E0     		b	.L55
 730              	.LVL62:
 731              	.L68:
 351:Drivers/STM32F1xx_HAL_Driver/Src/stm32f1xx_hal_exti.c **** 
 732              		.loc 1 351 7 discriminator 1 view .LVU218
 733 00a0 40F25F11 		movw	r1, #351
 734 00a4 0348     		ldr	r0, .L69
 735 00a6 FFF7FEFF 		bl	assert_failed
 736              	.LVL63:
 737 00aa E8E7     		b	.L59
 738              	.LVL64:
 739              	.L60:
 740              	.LCFI7:
 741              		.cfi_def_cfa_offset 0
 742              		.cfi_restore 4
 743              		.cfi_restore 5
 744              		.cfi_restore 6
 745              		.cfi_restore 14
 326:Drivers/STM32F1xx_HAL_Driver/Src/stm32f1xx_hal_exti.c ****   }
 746              		.loc 1 326 12 view .LVU219
 747 00ac 0120     		movs	r0, #1
 748              	.LVL65:
 360:Drivers/STM32F1xx_HAL_Driver/Src/stm32f1xx_hal_exti.c **** }
 749              		.loc 1 360 1 view .LVU220
 750 00ae 7047     		bx	lr
 751              	.LVL66:
 752              	.L61:
 753              	.LCFI8:
 754              		.cfi_def_cfa_offset 16
 755              		.cfi_offset 4, -16
 756              		.cfi_offset 5, -12
 757              		.cfi_offset 6, -8
 758              		.cfi_offset 14, -4
 359:Drivers/STM32F1xx_HAL_Driver/Src/stm32f1xx_hal_exti.c **** }
 759              		.loc 1 359 10 view .LVU221
 760 00b0 0020     		movs	r0, #0
 761              	.LVL67:
 762              	.L55:
 763              		.loc 1 360 1 view .LVU222
 764 00b2 70BD     		pop	{r4, r5, r6, pc}
 765              	.LVL68:
 766              	.L70:
 767              		.loc 1 360 1 view .LVU223
 768              		.align	2
 769              	.L69:
 770 00b4 00000000 		.word	.LC0
 771 00b8 00040140 		.word	1073808384
 772 00bc 00000140 		.word	1073807360
ARM GAS  /tmp/ccTIG2Fz.s 			page 22


 773              		.cfi_endproc
 774              	.LFE67:
 776              		.section	.text.HAL_EXTI_RegisterCallback,"ax",%progbits
 777              		.align	1
 778              		.global	HAL_EXTI_RegisterCallback
 779              		.syntax unified
 780              		.thumb
 781              		.thumb_func
 782              		.fpu softvfp
 784              	HAL_EXTI_RegisterCallback:
 785              	.LVL69:
 786              	.LFB68:
 361:Drivers/STM32F1xx_HAL_Driver/Src/stm32f1xx_hal_exti.c **** 
 362:Drivers/STM32F1xx_HAL_Driver/Src/stm32f1xx_hal_exti.c **** /**
 363:Drivers/STM32F1xx_HAL_Driver/Src/stm32f1xx_hal_exti.c ****   * @brief  Register callback for a dedicated Exti line.
 364:Drivers/STM32F1xx_HAL_Driver/Src/stm32f1xx_hal_exti.c ****   * @param  hexti Exti handle.
 365:Drivers/STM32F1xx_HAL_Driver/Src/stm32f1xx_hal_exti.c ****   * @param  CallbackID User callback identifier.
 366:Drivers/STM32F1xx_HAL_Driver/Src/stm32f1xx_hal_exti.c ****   *         This parameter can be one of @arg @ref EXTI_CallbackIDTypeDef values.
 367:Drivers/STM32F1xx_HAL_Driver/Src/stm32f1xx_hal_exti.c ****   * @param  pPendingCbfn function pointer to be stored as callback.
 368:Drivers/STM32F1xx_HAL_Driver/Src/stm32f1xx_hal_exti.c ****   * @retval HAL Status.
 369:Drivers/STM32F1xx_HAL_Driver/Src/stm32f1xx_hal_exti.c ****   */
 370:Drivers/STM32F1xx_HAL_Driver/Src/stm32f1xx_hal_exti.c **** HAL_StatusTypeDef HAL_EXTI_RegisterCallback(EXTI_HandleTypeDef *hexti, EXTI_CallbackIDTypeDef Callb
 371:Drivers/STM32F1xx_HAL_Driver/Src/stm32f1xx_hal_exti.c **** {
 787              		.loc 1 371 1 is_stmt 1 view -0
 788              		.cfi_startproc
 789              		@ args = 0, pretend = 0, frame = 0
 790              		@ frame_needed = 0, uses_anonymous_args = 0
 791              		@ link register save eliminated.
 372:Drivers/STM32F1xx_HAL_Driver/Src/stm32f1xx_hal_exti.c ****   HAL_StatusTypeDef status = HAL_OK;
 792              		.loc 1 372 3 view .LVU225
 373:Drivers/STM32F1xx_HAL_Driver/Src/stm32f1xx_hal_exti.c **** 
 374:Drivers/STM32F1xx_HAL_Driver/Src/stm32f1xx_hal_exti.c ****   switch (CallbackID)
 793              		.loc 1 374 3 view .LVU226
 794 0000 11B9     		cbnz	r1, .L73
 375:Drivers/STM32F1xx_HAL_Driver/Src/stm32f1xx_hal_exti.c ****   {
 376:Drivers/STM32F1xx_HAL_Driver/Src/stm32f1xx_hal_exti.c ****     case  HAL_EXTI_COMMON_CB_ID:
 377:Drivers/STM32F1xx_HAL_Driver/Src/stm32f1xx_hal_exti.c ****       hexti->PendingCallback = pPendingCbfn;
 795              		.loc 1 377 7 view .LVU227
 796              		.loc 1 377 30 is_stmt 0 view .LVU228
 797 0002 4260     		str	r2, [r0, #4]
 378:Drivers/STM32F1xx_HAL_Driver/Src/stm32f1xx_hal_exti.c ****       break;
 798              		.loc 1 378 7 is_stmt 1 view .LVU229
 372:Drivers/STM32F1xx_HAL_Driver/Src/stm32f1xx_hal_exti.c **** 
 799              		.loc 1 372 21 is_stmt 0 view .LVU230
 800 0004 0846     		mov	r0, r1
 801              	.LVL70:
 802              		.loc 1 378 7 view .LVU231
 803 0006 7047     		bx	lr
 804              	.LVL71:
 805              	.L73:
 379:Drivers/STM32F1xx_HAL_Driver/Src/stm32f1xx_hal_exti.c **** 
 380:Drivers/STM32F1xx_HAL_Driver/Src/stm32f1xx_hal_exti.c ****     default:
 381:Drivers/STM32F1xx_HAL_Driver/Src/stm32f1xx_hal_exti.c ****       status = HAL_ERROR;
 806              		.loc 1 381 14 view .LVU232
 807 0008 0120     		movs	r0, #1
 808              	.LVL72:
 382:Drivers/STM32F1xx_HAL_Driver/Src/stm32f1xx_hal_exti.c ****       break;
ARM GAS  /tmp/ccTIG2Fz.s 			page 23


 383:Drivers/STM32F1xx_HAL_Driver/Src/stm32f1xx_hal_exti.c ****   }
 384:Drivers/STM32F1xx_HAL_Driver/Src/stm32f1xx_hal_exti.c **** 
 385:Drivers/STM32F1xx_HAL_Driver/Src/stm32f1xx_hal_exti.c ****   return status;
 809              		.loc 1 385 3 is_stmt 1 view .LVU233
 386:Drivers/STM32F1xx_HAL_Driver/Src/stm32f1xx_hal_exti.c **** }
 810              		.loc 1 386 1 is_stmt 0 view .LVU234
 811 000a 7047     		bx	lr
 812              		.cfi_endproc
 813              	.LFE68:
 815              		.section	.text.HAL_EXTI_GetHandle,"ax",%progbits
 816              		.align	1
 817              		.global	HAL_EXTI_GetHandle
 818              		.syntax unified
 819              		.thumb
 820              		.thumb_func
 821              		.fpu softvfp
 823              	HAL_EXTI_GetHandle:
 824              	.LVL73:
 825              	.LFB69:
 387:Drivers/STM32F1xx_HAL_Driver/Src/stm32f1xx_hal_exti.c **** 
 388:Drivers/STM32F1xx_HAL_Driver/Src/stm32f1xx_hal_exti.c **** /**
 389:Drivers/STM32F1xx_HAL_Driver/Src/stm32f1xx_hal_exti.c ****   * @brief  Store line number as handle private field.
 390:Drivers/STM32F1xx_HAL_Driver/Src/stm32f1xx_hal_exti.c ****   * @param  hexti Exti handle.
 391:Drivers/STM32F1xx_HAL_Driver/Src/stm32f1xx_hal_exti.c ****   * @param  ExtiLine Exti line number.
 392:Drivers/STM32F1xx_HAL_Driver/Src/stm32f1xx_hal_exti.c ****   *         This parameter can be from 0 to @ref EXTI_LINE_NB.
 393:Drivers/STM32F1xx_HAL_Driver/Src/stm32f1xx_hal_exti.c ****   * @retval HAL Status.
 394:Drivers/STM32F1xx_HAL_Driver/Src/stm32f1xx_hal_exti.c ****   */
 395:Drivers/STM32F1xx_HAL_Driver/Src/stm32f1xx_hal_exti.c **** HAL_StatusTypeDef HAL_EXTI_GetHandle(EXTI_HandleTypeDef *hexti, uint32_t ExtiLine)
 396:Drivers/STM32F1xx_HAL_Driver/Src/stm32f1xx_hal_exti.c **** {
 826              		.loc 1 396 1 is_stmt 1 view -0
 827              		.cfi_startproc
 828              		@ args = 0, pretend = 0, frame = 0
 829              		@ frame_needed = 0, uses_anonymous_args = 0
 830              		.loc 1 396 1 is_stmt 0 view .LVU236
 831 0000 38B5     		push	{r3, r4, r5, lr}
 832              	.LCFI9:
 833              		.cfi_def_cfa_offset 16
 834              		.cfi_offset 3, -16
 835              		.cfi_offset 4, -12
 836              		.cfi_offset 5, -8
 837              		.cfi_offset 14, -4
 838 0002 0546     		mov	r5, r0
 839 0004 0C46     		mov	r4, r1
 397:Drivers/STM32F1xx_HAL_Driver/Src/stm32f1xx_hal_exti.c ****   /* Check the parameters */
 398:Drivers/STM32F1xx_HAL_Driver/Src/stm32f1xx_hal_exti.c ****   assert_param(IS_EXTI_LINE(ExtiLine));
 840              		.loc 1 398 3 is_stmt 1 view .LVU237
 841 0006 21F0C063 		bic	r3, r1, #100663296
 842 000a 23F01F03 		bic	r3, r3, #31
 843 000e 3BB9     		cbnz	r3, .L75
 844              		.loc 1 398 3 is_stmt 0 discriminator 2 view .LVU238
 845 0010 01F0C063 		and	r3, r1, #100663296
 846 0014 B3F1007F 		cmp	r3, #33554432
 847 0018 0BD0     		beq	.L76
 848              		.loc 1 398 3 discriminator 3 view .LVU239
 849 001a B3F1C06F 		cmp	r3, #100663296
 850 001e 08D0     		beq	.L76
 851              	.L75:
ARM GAS  /tmp/ccTIG2Fz.s 			page 24


 852              		.loc 1 398 3 discriminator 7 view .LVU240
 853 0020 4FF4C771 		mov	r1, #398
 854              	.LVL74:
 855              		.loc 1 398 3 discriminator 7 view .LVU241
 856 0024 0648     		ldr	r0, .L81
 857              	.LVL75:
 858              		.loc 1 398 3 discriminator 7 view .LVU242
 859 0026 FFF7FEFF 		bl	assert_failed
 860              	.LVL76:
 861              	.L77:
 399:Drivers/STM32F1xx_HAL_Driver/Src/stm32f1xx_hal_exti.c **** 
 400:Drivers/STM32F1xx_HAL_Driver/Src/stm32f1xx_hal_exti.c ****   /* Check null pointer */
 401:Drivers/STM32F1xx_HAL_Driver/Src/stm32f1xx_hal_exti.c ****   if (hexti == NULL)
 862              		.loc 1 401 3 is_stmt 1 view .LVU243
 863              		.loc 1 401 6 is_stmt 0 view .LVU244
 864 002a 3DB1     		cbz	r5, .L79
 402:Drivers/STM32F1xx_HAL_Driver/Src/stm32f1xx_hal_exti.c ****   {
 403:Drivers/STM32F1xx_HAL_Driver/Src/stm32f1xx_hal_exti.c ****     return HAL_ERROR;
 404:Drivers/STM32F1xx_HAL_Driver/Src/stm32f1xx_hal_exti.c ****   }
 405:Drivers/STM32F1xx_HAL_Driver/Src/stm32f1xx_hal_exti.c ****   else
 406:Drivers/STM32F1xx_HAL_Driver/Src/stm32f1xx_hal_exti.c ****   {
 407:Drivers/STM32F1xx_HAL_Driver/Src/stm32f1xx_hal_exti.c ****     /* Store line number as handle private field */
 408:Drivers/STM32F1xx_HAL_Driver/Src/stm32f1xx_hal_exti.c ****     hexti->Line = ExtiLine;
 865              		.loc 1 408 5 is_stmt 1 view .LVU245
 866              		.loc 1 408 17 is_stmt 0 view .LVU246
 867 002c 2C60     		str	r4, [r5]
 409:Drivers/STM32F1xx_HAL_Driver/Src/stm32f1xx_hal_exti.c **** 
 410:Drivers/STM32F1xx_HAL_Driver/Src/stm32f1xx_hal_exti.c ****     return HAL_OK;
 868              		.loc 1 410 5 is_stmt 1 view .LVU247
 869              		.loc 1 410 12 is_stmt 0 view .LVU248
 870 002e 0020     		movs	r0, #0
 871              	.L78:
 411:Drivers/STM32F1xx_HAL_Driver/Src/stm32f1xx_hal_exti.c ****   }
 412:Drivers/STM32F1xx_HAL_Driver/Src/stm32f1xx_hal_exti.c **** }
 872              		.loc 1 412 1 view .LVU249
 873 0030 38BD     		pop	{r3, r4, r5, pc}
 874              	.LVL77:
 875              	.L76:
 398:Drivers/STM32F1xx_HAL_Driver/Src/stm32f1xx_hal_exti.c **** 
 876              		.loc 1 398 3 discriminator 6 view .LVU250
 877 0032 04F01F03 		and	r3, r4, #31
 878 0036 122B     		cmp	r3, #18
 879 0038 F7D9     		bls	.L77
 880 003a F1E7     		b	.L75
 881              	.LVL78:
 882              	.L79:
 403:Drivers/STM32F1xx_HAL_Driver/Src/stm32f1xx_hal_exti.c ****   }
 883              		.loc 1 403 12 view .LVU251
 884 003c 0120     		movs	r0, #1
 885 003e F7E7     		b	.L78
 886              	.L82:
 887              		.align	2
 888              	.L81:
 889 0040 00000000 		.word	.LC0
 890              		.cfi_endproc
 891              	.LFE69:
 893              		.section	.text.HAL_EXTI_IRQHandler,"ax",%progbits
ARM GAS  /tmp/ccTIG2Fz.s 			page 25


 894              		.align	1
 895              		.global	HAL_EXTI_IRQHandler
 896              		.syntax unified
 897              		.thumb
 898              		.thumb_func
 899              		.fpu softvfp
 901              	HAL_EXTI_IRQHandler:
 902              	.LVL79:
 903              	.LFB70:
 413:Drivers/STM32F1xx_HAL_Driver/Src/stm32f1xx_hal_exti.c **** 
 414:Drivers/STM32F1xx_HAL_Driver/Src/stm32f1xx_hal_exti.c **** /**
 415:Drivers/STM32F1xx_HAL_Driver/Src/stm32f1xx_hal_exti.c ****   * @}
 416:Drivers/STM32F1xx_HAL_Driver/Src/stm32f1xx_hal_exti.c ****   */
 417:Drivers/STM32F1xx_HAL_Driver/Src/stm32f1xx_hal_exti.c **** 
 418:Drivers/STM32F1xx_HAL_Driver/Src/stm32f1xx_hal_exti.c **** /** @addtogroup EXTI_Exported_Functions_Group2
 419:Drivers/STM32F1xx_HAL_Driver/Src/stm32f1xx_hal_exti.c ****   *  @brief EXTI IO functions.
 420:Drivers/STM32F1xx_HAL_Driver/Src/stm32f1xx_hal_exti.c ****   *
 421:Drivers/STM32F1xx_HAL_Driver/Src/stm32f1xx_hal_exti.c **** @verbatim
 422:Drivers/STM32F1xx_HAL_Driver/Src/stm32f1xx_hal_exti.c ****  ===============================================================================
 423:Drivers/STM32F1xx_HAL_Driver/Src/stm32f1xx_hal_exti.c ****                        ##### IO operation functions #####
 424:Drivers/STM32F1xx_HAL_Driver/Src/stm32f1xx_hal_exti.c ****  ===============================================================================
 425:Drivers/STM32F1xx_HAL_Driver/Src/stm32f1xx_hal_exti.c **** 
 426:Drivers/STM32F1xx_HAL_Driver/Src/stm32f1xx_hal_exti.c **** @endverbatim
 427:Drivers/STM32F1xx_HAL_Driver/Src/stm32f1xx_hal_exti.c ****   * @{
 428:Drivers/STM32F1xx_HAL_Driver/Src/stm32f1xx_hal_exti.c ****   */
 429:Drivers/STM32F1xx_HAL_Driver/Src/stm32f1xx_hal_exti.c **** 
 430:Drivers/STM32F1xx_HAL_Driver/Src/stm32f1xx_hal_exti.c **** /**
 431:Drivers/STM32F1xx_HAL_Driver/Src/stm32f1xx_hal_exti.c ****   * @brief  Handle EXTI interrupt request.
 432:Drivers/STM32F1xx_HAL_Driver/Src/stm32f1xx_hal_exti.c ****   * @param  hexti Exti handle.
 433:Drivers/STM32F1xx_HAL_Driver/Src/stm32f1xx_hal_exti.c ****   * @retval none.
 434:Drivers/STM32F1xx_HAL_Driver/Src/stm32f1xx_hal_exti.c ****   */
 435:Drivers/STM32F1xx_HAL_Driver/Src/stm32f1xx_hal_exti.c **** void HAL_EXTI_IRQHandler(EXTI_HandleTypeDef *hexti)
 436:Drivers/STM32F1xx_HAL_Driver/Src/stm32f1xx_hal_exti.c **** {
 904              		.loc 1 436 1 is_stmt 1 view -0
 905              		.cfi_startproc
 906              		@ args = 0, pretend = 0, frame = 0
 907              		@ frame_needed = 0, uses_anonymous_args = 0
 908              		.loc 1 436 1 is_stmt 0 view .LVU253
 909 0000 08B5     		push	{r3, lr}
 910              	.LCFI10:
 911              		.cfi_def_cfa_offset 8
 912              		.cfi_offset 3, -8
 913              		.cfi_offset 14, -4
 437:Drivers/STM32F1xx_HAL_Driver/Src/stm32f1xx_hal_exti.c ****   uint32_t regval;
 914              		.loc 1 437 3 is_stmt 1 view .LVU254
 438:Drivers/STM32F1xx_HAL_Driver/Src/stm32f1xx_hal_exti.c ****   uint32_t maskline;
 915              		.loc 1 438 3 view .LVU255
 439:Drivers/STM32F1xx_HAL_Driver/Src/stm32f1xx_hal_exti.c **** 
 440:Drivers/STM32F1xx_HAL_Driver/Src/stm32f1xx_hal_exti.c ****   /* Compute line mask */
 441:Drivers/STM32F1xx_HAL_Driver/Src/stm32f1xx_hal_exti.c ****   maskline = (1uL << (hexti->Line & EXTI_PIN_MASK));
 916              		.loc 1 441 3 view .LVU256
 917              		.loc 1 441 28 is_stmt 0 view .LVU257
 918 0002 0368     		ldr	r3, [r0]
 919              		.loc 1 441 35 view .LVU258
 920 0004 03F01F02 		and	r2, r3, #31
 921              		.loc 1 441 12 view .LVU259
 922 0008 0123     		movs	r3, #1
ARM GAS  /tmp/ccTIG2Fz.s 			page 26


 923 000a 9340     		lsls	r3, r3, r2
 924              	.LVL80:
 442:Drivers/STM32F1xx_HAL_Driver/Src/stm32f1xx_hal_exti.c **** 
 443:Drivers/STM32F1xx_HAL_Driver/Src/stm32f1xx_hal_exti.c ****   /* Get pending bit  */
 444:Drivers/STM32F1xx_HAL_Driver/Src/stm32f1xx_hal_exti.c ****   regval = (EXTI->PR & maskline);
 925              		.loc 1 444 3 is_stmt 1 view .LVU260
 926              		.loc 1 444 17 is_stmt 0 view .LVU261
 927 000c 044A     		ldr	r2, .L86
 928 000e 5269     		ldr	r2, [r2, #20]
 929              	.LVL81:
 445:Drivers/STM32F1xx_HAL_Driver/Src/stm32f1xx_hal_exti.c ****   if (regval != 0x00u)
 930              		.loc 1 445 3 is_stmt 1 view .LVU262
 931              		.loc 1 445 6 is_stmt 0 view .LVU263
 932 0010 1A42     		tst	r2, r3
 933 0012 04D0     		beq	.L83
 446:Drivers/STM32F1xx_HAL_Driver/Src/stm32f1xx_hal_exti.c ****   {
 447:Drivers/STM32F1xx_HAL_Driver/Src/stm32f1xx_hal_exti.c ****     /* Clear pending bit */
 448:Drivers/STM32F1xx_HAL_Driver/Src/stm32f1xx_hal_exti.c ****     EXTI->PR = maskline;
 934              		.loc 1 448 5 is_stmt 1 view .LVU264
 935              		.loc 1 448 14 is_stmt 0 view .LVU265
 936 0014 024A     		ldr	r2, .L86
 937              	.LVL82:
 938              		.loc 1 448 14 view .LVU266
 939 0016 5361     		str	r3, [r2, #20]
 449:Drivers/STM32F1xx_HAL_Driver/Src/stm32f1xx_hal_exti.c **** 
 450:Drivers/STM32F1xx_HAL_Driver/Src/stm32f1xx_hal_exti.c ****     /* Call callback */
 451:Drivers/STM32F1xx_HAL_Driver/Src/stm32f1xx_hal_exti.c ****     if (hexti->PendingCallback != NULL)
 940              		.loc 1 451 5 is_stmt 1 view .LVU267
 941              		.loc 1 451 14 is_stmt 0 view .LVU268
 942 0018 4368     		ldr	r3, [r0, #4]
 943              	.LVL83:
 944              		.loc 1 451 8 view .LVU269
 945 001a 03B1     		cbz	r3, .L83
 452:Drivers/STM32F1xx_HAL_Driver/Src/stm32f1xx_hal_exti.c ****     {
 453:Drivers/STM32F1xx_HAL_Driver/Src/stm32f1xx_hal_exti.c ****       hexti->PendingCallback();
 946              		.loc 1 453 7 is_stmt 1 view .LVU270
 947 001c 9847     		blx	r3
 948              	.LVL84:
 949              	.L83:
 454:Drivers/STM32F1xx_HAL_Driver/Src/stm32f1xx_hal_exti.c ****     }
 455:Drivers/STM32F1xx_HAL_Driver/Src/stm32f1xx_hal_exti.c ****   }
 456:Drivers/STM32F1xx_HAL_Driver/Src/stm32f1xx_hal_exti.c **** }
 950              		.loc 1 456 1 is_stmt 0 view .LVU271
 951 001e 08BD     		pop	{r3, pc}
 952              	.L87:
 953              		.align	2
 954              	.L86:
 955 0020 00040140 		.word	1073808384
 956              		.cfi_endproc
 957              	.LFE70:
 959              		.section	.text.HAL_EXTI_GetPending,"ax",%progbits
 960              		.align	1
 961              		.global	HAL_EXTI_GetPending
 962              		.syntax unified
 963              		.thumb
 964              		.thumb_func
 965              		.fpu softvfp
ARM GAS  /tmp/ccTIG2Fz.s 			page 27


 967              	HAL_EXTI_GetPending:
 968              	.LVL85:
 969              	.LFB71:
 457:Drivers/STM32F1xx_HAL_Driver/Src/stm32f1xx_hal_exti.c **** 
 458:Drivers/STM32F1xx_HAL_Driver/Src/stm32f1xx_hal_exti.c **** /**
 459:Drivers/STM32F1xx_HAL_Driver/Src/stm32f1xx_hal_exti.c ****   * @brief  Get interrupt pending bit of a dedicated line.
 460:Drivers/STM32F1xx_HAL_Driver/Src/stm32f1xx_hal_exti.c ****   * @param  hexti Exti handle.
 461:Drivers/STM32F1xx_HAL_Driver/Src/stm32f1xx_hal_exti.c ****   * @param  Edge Specify which pending edge as to be checked.
 462:Drivers/STM32F1xx_HAL_Driver/Src/stm32f1xx_hal_exti.c ****   *         This parameter can be one of the following values:
 463:Drivers/STM32F1xx_HAL_Driver/Src/stm32f1xx_hal_exti.c ****   *           @arg @ref EXTI_TRIGGER_RISING_FALLING
 464:Drivers/STM32F1xx_HAL_Driver/Src/stm32f1xx_hal_exti.c ****   *         This parameter is kept for compatibility with other series.
 465:Drivers/STM32F1xx_HAL_Driver/Src/stm32f1xx_hal_exti.c ****   * @retval 1 if interrupt is pending else 0.
 466:Drivers/STM32F1xx_HAL_Driver/Src/stm32f1xx_hal_exti.c ****   */
 467:Drivers/STM32F1xx_HAL_Driver/Src/stm32f1xx_hal_exti.c **** uint32_t HAL_EXTI_GetPending(EXTI_HandleTypeDef *hexti, uint32_t Edge)
 468:Drivers/STM32F1xx_HAL_Driver/Src/stm32f1xx_hal_exti.c **** {
 970              		.loc 1 468 1 is_stmt 1 view -0
 971              		.cfi_startproc
 972              		@ args = 0, pretend = 0, frame = 0
 973              		@ frame_needed = 0, uses_anonymous_args = 0
 974              		.loc 1 468 1 is_stmt 0 view .LVU273
 975 0000 38B5     		push	{r3, r4, r5, lr}
 976              	.LCFI11:
 977              		.cfi_def_cfa_offset 16
 978              		.cfi_offset 3, -16
 979              		.cfi_offset 4, -12
 980              		.cfi_offset 5, -8
 981              		.cfi_offset 14, -4
 982 0002 0446     		mov	r4, r0
 983 0004 0D46     		mov	r5, r1
 469:Drivers/STM32F1xx_HAL_Driver/Src/stm32f1xx_hal_exti.c ****   uint32_t regval;
 984              		.loc 1 469 3 is_stmt 1 view .LVU274
 470:Drivers/STM32F1xx_HAL_Driver/Src/stm32f1xx_hal_exti.c ****   uint32_t maskline;
 985              		.loc 1 470 3 view .LVU275
 471:Drivers/STM32F1xx_HAL_Driver/Src/stm32f1xx_hal_exti.c ****   uint32_t linepos;
 986              		.loc 1 471 3 view .LVU276
 472:Drivers/STM32F1xx_HAL_Driver/Src/stm32f1xx_hal_exti.c **** 
 473:Drivers/STM32F1xx_HAL_Driver/Src/stm32f1xx_hal_exti.c ****   /* Check parameters */
 474:Drivers/STM32F1xx_HAL_Driver/Src/stm32f1xx_hal_exti.c ****   assert_param(IS_EXTI_LINE(hexti->Line));
 987              		.loc 1 474 3 view .LVU277
 988 0006 0268     		ldr	r2, [r0]
 989 0008 22F0C063 		bic	r3, r2, #100663296
 990 000c 23F01F03 		bic	r3, r3, #31
 991 0010 3BB9     		cbnz	r3, .L89
 992              		.loc 1 474 3 is_stmt 0 discriminator 2 view .LVU278
 993 0012 02F0C063 		and	r3, r2, #100663296
 994 0016 B3F1007F 		cmp	r3, #33554432
 995 001a 18D0     		beq	.L90
 996              		.loc 1 474 3 discriminator 3 view .LVU279
 997 001c B3F1C06F 		cmp	r3, #100663296
 998 0020 15D0     		beq	.L90
 999              	.L89:
 1000              		.loc 1 474 3 discriminator 7 view .LVU280
 1001 0022 4FF4ED71 		mov	r1, #474
 1002              	.LVL86:
 1003              		.loc 1 474 3 discriminator 7 view .LVU281
 1004 0026 1248     		ldr	r0, .L97
 1005              	.LVL87:
ARM GAS  /tmp/ccTIG2Fz.s 			page 28


 1006              		.loc 1 474 3 discriminator 7 view .LVU282
 1007 0028 FFF7FEFF 		bl	assert_failed
 1008              	.LVL88:
 1009              	.L91:
 475:Drivers/STM32F1xx_HAL_Driver/Src/stm32f1xx_hal_exti.c ****   assert_param(IS_EXTI_CONFIG_LINE(hexti->Line));
 1010              		.loc 1 475 3 is_stmt 1 view .LVU283
 1011 002c 2368     		ldr	r3, [r4]
 1012 002e 13F0007F 		tst	r3, #33554432
 1013 0032 11D0     		beq	.L95
 1014              	.L92:
 476:Drivers/STM32F1xx_HAL_Driver/Src/stm32f1xx_hal_exti.c ****   assert_param(IS_EXTI_PENDING_EDGE(Edge));
 1015              		.loc 1 476 3 view .LVU284
 1016 0034 032D     		cmp	r5, #3
 1017 0036 15D1     		bne	.L96
 1018              	.L93:
 477:Drivers/STM32F1xx_HAL_Driver/Src/stm32f1xx_hal_exti.c **** 
 478:Drivers/STM32F1xx_HAL_Driver/Src/stm32f1xx_hal_exti.c ****   /* Prevent unused argument compilation warning */
 479:Drivers/STM32F1xx_HAL_Driver/Src/stm32f1xx_hal_exti.c ****   UNUSED(Edge);
 1019              		.loc 1 479 3 view .LVU285
 480:Drivers/STM32F1xx_HAL_Driver/Src/stm32f1xx_hal_exti.c **** 
 481:Drivers/STM32F1xx_HAL_Driver/Src/stm32f1xx_hal_exti.c ****   /* Compute line mask */
 482:Drivers/STM32F1xx_HAL_Driver/Src/stm32f1xx_hal_exti.c ****   linepos = (hexti->Line & EXTI_PIN_MASK);
 1020              		.loc 1 482 3 view .LVU286
 1021              		.loc 1 482 19 is_stmt 0 view .LVU287
 1022 0038 2368     		ldr	r3, [r4]
 1023              		.loc 1 482 11 view .LVU288
 1024 003a 03F01F03 		and	r3, r3, #31
 1025              	.LVL89:
 483:Drivers/STM32F1xx_HAL_Driver/Src/stm32f1xx_hal_exti.c ****   maskline = (1uL << linepos);
 1026              		.loc 1 483 3 is_stmt 1 view .LVU289
 1027              		.loc 1 483 12 is_stmt 0 view .LVU290
 1028 003e 0120     		movs	r0, #1
 1029 0040 00FA03F2 		lsl	r2, r0, r3
 1030              	.LVL90:
 484:Drivers/STM32F1xx_HAL_Driver/Src/stm32f1xx_hal_exti.c **** 
 485:Drivers/STM32F1xx_HAL_Driver/Src/stm32f1xx_hal_exti.c ****   /* return 1 if bit is set else 0 */
 486:Drivers/STM32F1xx_HAL_Driver/Src/stm32f1xx_hal_exti.c ****   regval = ((EXTI->PR & maskline) >> linepos);
 1031              		.loc 1 486 3 is_stmt 1 view .LVU291
 1032              		.loc 1 486 18 is_stmt 0 view .LVU292
 1033 0044 0B49     		ldr	r1, .L97+4
 1034 0046 4869     		ldr	r0, [r1, #20]
 1035              		.loc 1 486 23 view .LVU293
 1036 0048 1040     		ands	r0, r0, r2
 1037              	.LVL91:
 487:Drivers/STM32F1xx_HAL_Driver/Src/stm32f1xx_hal_exti.c ****   return regval;
 1038              		.loc 1 487 3 is_stmt 1 view .LVU294
 488:Drivers/STM32F1xx_HAL_Driver/Src/stm32f1xx_hal_exti.c **** }
 1039              		.loc 1 488 1 is_stmt 0 view .LVU295
 1040 004a D840     		lsrs	r0, r0, r3
 1041              	.LVL92:
 1042              		.loc 1 488 1 view .LVU296
 1043 004c 38BD     		pop	{r3, r4, r5, pc}
 1044              	.LVL93:
 1045              	.L90:
 474:Drivers/STM32F1xx_HAL_Driver/Src/stm32f1xx_hal_exti.c ****   assert_param(IS_EXTI_CONFIG_LINE(hexti->Line));
 1046              		.loc 1 474 3 discriminator 6 view .LVU297
 1047 004e 02F01F02 		and	r2, r2, #31
ARM GAS  /tmp/ccTIG2Fz.s 			page 29


 1048 0052 122A     		cmp	r2, #18
 1049 0054 EAD9     		bls	.L91
 1050 0056 E4E7     		b	.L89
 1051              	.LVL94:
 1052              	.L95:
 475:Drivers/STM32F1xx_HAL_Driver/Src/stm32f1xx_hal_exti.c ****   assert_param(IS_EXTI_PENDING_EDGE(Edge));
 1053              		.loc 1 475 3 discriminator 1 view .LVU298
 1054 0058 40F2DB11 		movw	r1, #475
 1055 005c 0448     		ldr	r0, .L97
 1056 005e FFF7FEFF 		bl	assert_failed
 1057              	.LVL95:
 1058 0062 E7E7     		b	.L92
 1059              	.L96:
 476:Drivers/STM32F1xx_HAL_Driver/Src/stm32f1xx_hal_exti.c **** 
 1060              		.loc 1 476 3 discriminator 1 view .LVU299
 1061 0064 4FF4EE71 		mov	r1, #476
 1062 0068 0148     		ldr	r0, .L97
 1063 006a FFF7FEFF 		bl	assert_failed
 1064              	.LVL96:
 1065 006e E3E7     		b	.L93
 1066              	.L98:
 1067              		.align	2
 1068              	.L97:
 1069 0070 00000000 		.word	.LC0
 1070 0074 00040140 		.word	1073808384
 1071              		.cfi_endproc
 1072              	.LFE71:
 1074              		.section	.text.HAL_EXTI_ClearPending,"ax",%progbits
 1075              		.align	1
 1076              		.global	HAL_EXTI_ClearPending
 1077              		.syntax unified
 1078              		.thumb
 1079              		.thumb_func
 1080              		.fpu softvfp
 1082              	HAL_EXTI_ClearPending:
 1083              	.LVL97:
 1084              	.LFB72:
 489:Drivers/STM32F1xx_HAL_Driver/Src/stm32f1xx_hal_exti.c **** 
 490:Drivers/STM32F1xx_HAL_Driver/Src/stm32f1xx_hal_exti.c **** /**
 491:Drivers/STM32F1xx_HAL_Driver/Src/stm32f1xx_hal_exti.c ****   * @brief  Clear interrupt pending bit of a dedicated line.
 492:Drivers/STM32F1xx_HAL_Driver/Src/stm32f1xx_hal_exti.c ****   * @param  hexti Exti handle.
 493:Drivers/STM32F1xx_HAL_Driver/Src/stm32f1xx_hal_exti.c ****   * @param  Edge Specify which pending edge as to be clear.
 494:Drivers/STM32F1xx_HAL_Driver/Src/stm32f1xx_hal_exti.c ****   *         This parameter can be one of the following values:
 495:Drivers/STM32F1xx_HAL_Driver/Src/stm32f1xx_hal_exti.c ****   *           @arg @ref EXTI_TRIGGER_RISING_FALLING
 496:Drivers/STM32F1xx_HAL_Driver/Src/stm32f1xx_hal_exti.c ****   *         This parameter is kept for compatibility with other series.
 497:Drivers/STM32F1xx_HAL_Driver/Src/stm32f1xx_hal_exti.c ****   * @retval None.
 498:Drivers/STM32F1xx_HAL_Driver/Src/stm32f1xx_hal_exti.c ****   */
 499:Drivers/STM32F1xx_HAL_Driver/Src/stm32f1xx_hal_exti.c **** void HAL_EXTI_ClearPending(EXTI_HandleTypeDef *hexti, uint32_t Edge)
 500:Drivers/STM32F1xx_HAL_Driver/Src/stm32f1xx_hal_exti.c **** {
 1085              		.loc 1 500 1 is_stmt 1 view -0
 1086              		.cfi_startproc
 1087              		@ args = 0, pretend = 0, frame = 0
 1088              		@ frame_needed = 0, uses_anonymous_args = 0
 1089              		.loc 1 500 1 is_stmt 0 view .LVU301
 1090 0000 38B5     		push	{r3, r4, r5, lr}
 1091              	.LCFI12:
 1092              		.cfi_def_cfa_offset 16
ARM GAS  /tmp/ccTIG2Fz.s 			page 30


 1093              		.cfi_offset 3, -16
 1094              		.cfi_offset 4, -12
 1095              		.cfi_offset 5, -8
 1096              		.cfi_offset 14, -4
 1097 0002 0446     		mov	r4, r0
 1098 0004 0D46     		mov	r5, r1
 501:Drivers/STM32F1xx_HAL_Driver/Src/stm32f1xx_hal_exti.c ****   uint32_t maskline;
 1099              		.loc 1 501 3 is_stmt 1 view .LVU302
 502:Drivers/STM32F1xx_HAL_Driver/Src/stm32f1xx_hal_exti.c **** 
 503:Drivers/STM32F1xx_HAL_Driver/Src/stm32f1xx_hal_exti.c ****   /* Check parameters */
 504:Drivers/STM32F1xx_HAL_Driver/Src/stm32f1xx_hal_exti.c ****   assert_param(IS_EXTI_LINE(hexti->Line));
 1100              		.loc 1 504 3 view .LVU303
 1101 0006 0268     		ldr	r2, [r0]
 1102 0008 22F0C063 		bic	r3, r2, #100663296
 1103 000c 23F01F03 		bic	r3, r3, #31
 1104 0010 3BB9     		cbnz	r3, .L100
 1105              		.loc 1 504 3 is_stmt 0 discriminator 2 view .LVU304
 1106 0012 02F0C063 		and	r3, r2, #100663296
 1107 0016 B3F1007F 		cmp	r3, #33554432
 1108 001a 15D0     		beq	.L101
 1109              		.loc 1 504 3 discriminator 3 view .LVU305
 1110 001c B3F1C06F 		cmp	r3, #100663296
 1111 0020 12D0     		beq	.L101
 1112              	.L100:
 1113              		.loc 1 504 3 discriminator 7 view .LVU306
 1114 0022 4FF4FC71 		mov	r1, #504
 1115              	.LVL98:
 1116              		.loc 1 504 3 discriminator 7 view .LVU307
 1117 0026 1148     		ldr	r0, .L108
 1118              	.LVL99:
 1119              		.loc 1 504 3 discriminator 7 view .LVU308
 1120 0028 FFF7FEFF 		bl	assert_failed
 1121              	.LVL100:
 1122              	.L102:
 505:Drivers/STM32F1xx_HAL_Driver/Src/stm32f1xx_hal_exti.c ****   assert_param(IS_EXTI_CONFIG_LINE(hexti->Line));
 1123              		.loc 1 505 3 is_stmt 1 view .LVU309
 1124 002c 2368     		ldr	r3, [r4]
 1125 002e 13F0007F 		tst	r3, #33554432
 1126 0032 0ED0     		beq	.L106
 1127              	.L103:
 506:Drivers/STM32F1xx_HAL_Driver/Src/stm32f1xx_hal_exti.c ****   assert_param(IS_EXTI_PENDING_EDGE(Edge));
 1128              		.loc 1 506 3 view .LVU310
 1129 0034 032D     		cmp	r5, #3
 1130 0036 12D1     		bne	.L107
 1131              	.L104:
 507:Drivers/STM32F1xx_HAL_Driver/Src/stm32f1xx_hal_exti.c **** 
 508:Drivers/STM32F1xx_HAL_Driver/Src/stm32f1xx_hal_exti.c ****   /* Prevent unused argument compilation warning */
 509:Drivers/STM32F1xx_HAL_Driver/Src/stm32f1xx_hal_exti.c ****   UNUSED(Edge);
 1132              		.loc 1 509 3 view .LVU311
 510:Drivers/STM32F1xx_HAL_Driver/Src/stm32f1xx_hal_exti.c **** 
 511:Drivers/STM32F1xx_HAL_Driver/Src/stm32f1xx_hal_exti.c ****   /* Compute line mask */
 512:Drivers/STM32F1xx_HAL_Driver/Src/stm32f1xx_hal_exti.c ****   maskline = (1uL << (hexti->Line & EXTI_PIN_MASK));
 1133              		.loc 1 512 3 view .LVU312
 1134              		.loc 1 512 28 is_stmt 0 view .LVU313
 1135 0038 2268     		ldr	r2, [r4]
 1136              		.loc 1 512 35 view .LVU314
 1137 003a 02F01F02 		and	r2, r2, #31
ARM GAS  /tmp/ccTIG2Fz.s 			page 31


 1138              		.loc 1 512 12 view .LVU315
 1139 003e 0123     		movs	r3, #1
 1140 0040 9340     		lsls	r3, r3, r2
 1141              	.LVL101:
 513:Drivers/STM32F1xx_HAL_Driver/Src/stm32f1xx_hal_exti.c **** 
 514:Drivers/STM32F1xx_HAL_Driver/Src/stm32f1xx_hal_exti.c ****   /* Clear Pending bit */
 515:Drivers/STM32F1xx_HAL_Driver/Src/stm32f1xx_hal_exti.c ****   EXTI->PR =  maskline;
 1142              		.loc 1 515 3 is_stmt 1 view .LVU316
 1143              		.loc 1 515 12 is_stmt 0 view .LVU317
 1144 0042 0B4A     		ldr	r2, .L108+4
 1145 0044 5361     		str	r3, [r2, #20]
 516:Drivers/STM32F1xx_HAL_Driver/Src/stm32f1xx_hal_exti.c **** }
 1146              		.loc 1 516 1 view .LVU318
 1147 0046 38BD     		pop	{r3, r4, r5, pc}
 1148              	.LVL102:
 1149              	.L101:
 504:Drivers/STM32F1xx_HAL_Driver/Src/stm32f1xx_hal_exti.c ****   assert_param(IS_EXTI_CONFIG_LINE(hexti->Line));
 1150              		.loc 1 504 3 discriminator 6 view .LVU319
 1151 0048 02F01F02 		and	r2, r2, #31
 1152 004c 122A     		cmp	r2, #18
 1153 004e EDD9     		bls	.L102
 1154 0050 E7E7     		b	.L100
 1155              	.LVL103:
 1156              	.L106:
 505:Drivers/STM32F1xx_HAL_Driver/Src/stm32f1xx_hal_exti.c ****   assert_param(IS_EXTI_PENDING_EDGE(Edge));
 1157              		.loc 1 505 3 discriminator 1 view .LVU320
 1158 0052 40F2F911 		movw	r1, #505
 1159 0056 0548     		ldr	r0, .L108
 1160 0058 FFF7FEFF 		bl	assert_failed
 1161              	.LVL104:
 1162 005c EAE7     		b	.L103
 1163              	.L107:
 506:Drivers/STM32F1xx_HAL_Driver/Src/stm32f1xx_hal_exti.c **** 
 1164              		.loc 1 506 3 discriminator 1 view .LVU321
 1165 005e 4FF4FD71 		mov	r1, #506
 1166 0062 0248     		ldr	r0, .L108
 1167 0064 FFF7FEFF 		bl	assert_failed
 1168              	.LVL105:
 1169 0068 E6E7     		b	.L104
 1170              	.L109:
 1171 006a 00BF     		.align	2
 1172              	.L108:
 1173 006c 00000000 		.word	.LC0
 1174 0070 00040140 		.word	1073808384
 1175              		.cfi_endproc
 1176              	.LFE72:
 1178              		.section	.text.HAL_EXTI_GenerateSWI,"ax",%progbits
 1179              		.align	1
 1180              		.global	HAL_EXTI_GenerateSWI
 1181              		.syntax unified
 1182              		.thumb
 1183              		.thumb_func
 1184              		.fpu softvfp
 1186              	HAL_EXTI_GenerateSWI:
 1187              	.LVL106:
 1188              	.LFB73:
 517:Drivers/STM32F1xx_HAL_Driver/Src/stm32f1xx_hal_exti.c **** 
ARM GAS  /tmp/ccTIG2Fz.s 			page 32


 518:Drivers/STM32F1xx_HAL_Driver/Src/stm32f1xx_hal_exti.c **** /**
 519:Drivers/STM32F1xx_HAL_Driver/Src/stm32f1xx_hal_exti.c ****   * @brief  Generate a software interrupt for a dedicated line.
 520:Drivers/STM32F1xx_HAL_Driver/Src/stm32f1xx_hal_exti.c ****   * @param  hexti Exti handle.
 521:Drivers/STM32F1xx_HAL_Driver/Src/stm32f1xx_hal_exti.c ****   * @retval None.
 522:Drivers/STM32F1xx_HAL_Driver/Src/stm32f1xx_hal_exti.c ****   */
 523:Drivers/STM32F1xx_HAL_Driver/Src/stm32f1xx_hal_exti.c **** void HAL_EXTI_GenerateSWI(EXTI_HandleTypeDef *hexti)
 524:Drivers/STM32F1xx_HAL_Driver/Src/stm32f1xx_hal_exti.c **** {
 1189              		.loc 1 524 1 is_stmt 1 view -0
 1190              		.cfi_startproc
 1191              		@ args = 0, pretend = 0, frame = 0
 1192              		@ frame_needed = 0, uses_anonymous_args = 0
 1193              		.loc 1 524 1 is_stmt 0 view .LVU323
 1194 0000 10B5     		push	{r4, lr}
 1195              	.LCFI13:
 1196              		.cfi_def_cfa_offset 8
 1197              		.cfi_offset 4, -8
 1198              		.cfi_offset 14, -4
 1199 0002 0446     		mov	r4, r0
 525:Drivers/STM32F1xx_HAL_Driver/Src/stm32f1xx_hal_exti.c ****   uint32_t maskline;
 1200              		.loc 1 525 3 is_stmt 1 view .LVU324
 526:Drivers/STM32F1xx_HAL_Driver/Src/stm32f1xx_hal_exti.c **** 
 527:Drivers/STM32F1xx_HAL_Driver/Src/stm32f1xx_hal_exti.c ****   /* Check parameters */
 528:Drivers/STM32F1xx_HAL_Driver/Src/stm32f1xx_hal_exti.c ****   assert_param(IS_EXTI_LINE(hexti->Line));
 1201              		.loc 1 528 3 view .LVU325
 1202 0004 0268     		ldr	r2, [r0]
 1203 0006 22F0C063 		bic	r3, r2, #100663296
 1204 000a 23F01F03 		bic	r3, r3, #31
 1205 000e 3BB9     		cbnz	r3, .L111
 1206              		.loc 1 528 3 is_stmt 0 discriminator 2 view .LVU326
 1207 0010 02F0C063 		and	r3, r2, #100663296
 1208 0014 B3F1007F 		cmp	r3, #33554432
 1209 0018 13D0     		beq	.L112
 1210              		.loc 1 528 3 discriminator 3 view .LVU327
 1211 001a B3F1C06F 		cmp	r3, #100663296
 1212 001e 10D0     		beq	.L112
 1213              	.L111:
 1214              		.loc 1 528 3 discriminator 7 view .LVU328
 1215 0020 4FF40471 		mov	r1, #528
 1216 0024 0C48     		ldr	r0, .L117
 1217              	.LVL107:
 1218              		.loc 1 528 3 discriminator 7 view .LVU329
 1219 0026 FFF7FEFF 		bl	assert_failed
 1220              	.LVL108:
 1221              	.L113:
 529:Drivers/STM32F1xx_HAL_Driver/Src/stm32f1xx_hal_exti.c ****   assert_param(IS_EXTI_CONFIG_LINE(hexti->Line));
 1222              		.loc 1 529 3 is_stmt 1 view .LVU330
 1223 002a 2368     		ldr	r3, [r4]
 1224 002c 13F0007F 		tst	r3, #33554432
 1225 0030 0CD0     		beq	.L116
 1226              	.L114:
 530:Drivers/STM32F1xx_HAL_Driver/Src/stm32f1xx_hal_exti.c **** 
 531:Drivers/STM32F1xx_HAL_Driver/Src/stm32f1xx_hal_exti.c ****   /* Compute line mask */
 532:Drivers/STM32F1xx_HAL_Driver/Src/stm32f1xx_hal_exti.c ****   maskline = (1uL << (hexti->Line & EXTI_PIN_MASK));
 1227              		.loc 1 532 3 view .LVU331
 1228              		.loc 1 532 28 is_stmt 0 view .LVU332
 1229 0032 2268     		ldr	r2, [r4]
 1230              		.loc 1 532 35 view .LVU333
ARM GAS  /tmp/ccTIG2Fz.s 			page 33


 1231 0034 02F01F02 		and	r2, r2, #31
 1232              		.loc 1 532 12 view .LVU334
 1233 0038 0123     		movs	r3, #1
 1234 003a 9340     		lsls	r3, r3, r2
 1235              	.LVL109:
 533:Drivers/STM32F1xx_HAL_Driver/Src/stm32f1xx_hal_exti.c **** 
 534:Drivers/STM32F1xx_HAL_Driver/Src/stm32f1xx_hal_exti.c ****   /* Generate Software interrupt */
 535:Drivers/STM32F1xx_HAL_Driver/Src/stm32f1xx_hal_exti.c ****   EXTI->SWIER = maskline;
 1236              		.loc 1 535 3 is_stmt 1 view .LVU335
 1237              		.loc 1 535 15 is_stmt 0 view .LVU336
 1238 003c 074A     		ldr	r2, .L117+4
 1239 003e 1361     		str	r3, [r2, #16]
 536:Drivers/STM32F1xx_HAL_Driver/Src/stm32f1xx_hal_exti.c **** }
 1240              		.loc 1 536 1 view .LVU337
 1241 0040 10BD     		pop	{r4, pc}
 1242              	.LVL110:
 1243              	.L112:
 528:Drivers/STM32F1xx_HAL_Driver/Src/stm32f1xx_hal_exti.c ****   assert_param(IS_EXTI_CONFIG_LINE(hexti->Line));
 1244              		.loc 1 528 3 discriminator 6 view .LVU338
 1245 0042 02F01F02 		and	r2, r2, #31
 1246 0046 122A     		cmp	r2, #18
 1247 0048 EFD9     		bls	.L113
 1248 004a E9E7     		b	.L111
 1249              	.LVL111:
 1250              	.L116:
 529:Drivers/STM32F1xx_HAL_Driver/Src/stm32f1xx_hal_exti.c **** 
 1251              		.loc 1 529 3 discriminator 1 view .LVU339
 1252 004c 40F21121 		movw	r1, #529
 1253 0050 0148     		ldr	r0, .L117
 1254 0052 FFF7FEFF 		bl	assert_failed
 1255              	.LVL112:
 1256 0056 ECE7     		b	.L114
 1257              	.L118:
 1258              		.align	2
 1259              	.L117:
 1260 0058 00000000 		.word	.LC0
 1261 005c 00040140 		.word	1073808384
 1262              		.cfi_endproc
 1263              	.LFE73:
 1265              		.section	.rodata.HAL_EXTI_SetConfigLine.str1.4,"aMS",%progbits,1
 1266              		.align	2
 1267              	.LC0:
 1268 0000 44726976 		.ascii	"Drivers/STM32F1xx_HAL_Driver/Src/stm32f1xx_hal_exti"
 1268      6572732F 
 1268      53544D33 
 1268      32463178 
 1268      785F4841 
 1269 0033 2E6300   		.ascii	".c\000"
 1270              		.text
 1271              	.Letext0:
 1272              		.file 2 "/usr/lib/gcc/arm-none-eabi/8.3.1/include/stdint.h"
 1273              		.file 3 "Drivers/CMSIS/Include/core_cm3.h"
 1274              		.file 4 "Drivers/CMSIS/Device/ST/STM32F1xx/Include/system_stm32f1xx.h"
 1275              		.file 5 "Drivers/CMSIS/Device/ST/STM32F1xx/Include/stm32f103xb.h"
 1276              		.file 6 "Drivers/STM32F1xx_HAL_Driver/Inc/stm32f1xx_hal_def.h"
 1277              		.file 7 "Drivers/STM32F1xx_HAL_Driver/Inc/stm32f1xx_hal_exti.h"
 1278              		.file 8 "Drivers/STM32F1xx_HAL_Driver/Inc/stm32f1xx_hal.h"
ARM GAS  /tmp/ccTIG2Fz.s 			page 34


 1279              		.file 9 "Inc/stm32f1xx_hal_conf.h"
ARM GAS  /tmp/ccTIG2Fz.s 			page 35

